(lp0
(lp1
F15.452120780944824
aF-1.658782958984375
aF-7.988563537597656
aF0.0007528066635131836
aF-0.036606401205062866
aF-0.0017376989126205444
aF29.11282253265381
aF-5.1209869384765625
aF-12.857192993164062
aF0.0029276013374328613
aF-0.06955819204449654
aF0.004183784127235413
aF1.7914190292358398
aF1.8034210205078125
aF-3.11993408203125
aF-0.0014219880104064941
aF-0.003654610365629196
aF-0.0076591819524765015
aF21.300003051757812
aF154.33494567871094
aF84.61293029785156
aF-0.5949236750602722
aF-0.06309247016906738
aF0.18477772176265717
aa(lp2
F21.502144813537598
aF-1.0903472900390625
aF-14.318389892578125
aF0.0014249682426452637
aF-0.0443691648542881
aF0.0016356110572814941
aF37.044437408447266
aF-4.43499755859375
aF-20.550621032714844
aF0.0028315186500549316
aF-0.0827406159369275
aF0.008199036121368408
aF5.95985221862793
aF2.254302978515625
aF-8.086158752441406
aF1.8417835235595703e-05
aF-0.005997713771648705
aF-0.00492781400680542
aF31.92136001586914
aF154.16000366210938
aF76.1500473022461
aF-0.5944035649299622
aF-0.08084581047296524
aF0.18923915922641754
aa(lp3
F22.618935585021973
aF-0.54327392578125
aF-19.012344360351562
aF0.0018494725227355957
aF-0.03917132318019867
aF0.012281849980354309
aF40.037477016448975
aF-3.5825347900390625
aF-26.832412719726562
aF0.0030457377433776855
aF-0.08325597178190947
aF0.01672542095184326
aF5.200394153594971
aF2.4959869384765625
aF-11.192276000976562
aF0.0006532073020935059
aF0.004913325421512127
aF0.007838279008865356
aF38.07491683959961
aF154.14125061035156
aF68.8334732055664
aF-0.5933164358139038
aF-0.08914460986852646
aF0.1981128603219986
aa(lp4
F21.546253204345703
aF0.3966522216796875
aF-22.00027847290039
aF0.003053426742553711
aF-0.033919647336006165
aF0.023129746317863464
aF41.14518320560455
aF-2.134735107421875
aF-31.756168365478516
aF0.003781139850616455
aF-0.07998365722596645
aF0.023029372096061707
aF1.947323203086853
aF2.92803955078125
aF-12.244388580322266
aF0.002325713634490967
aF0.012144362553954124
aF0.023230120539665222
aF42.846256256103516
aF154.73159790039062
aF62.61265182495117
aF-0.5918702483177185
aF-0.09701211750507355
aF0.20790746808052063
aa(lp5
F16.89056396484375
aF1.672210693359375
aF-20.406841278076172
aF0.007723867893218994
aF-0.02080487459897995
aF0.02802981436252594
aF42.9640417098999
aF-0.1615142822265625
aF-36.8582878112793
aF0.008996784687042236
aF-0.07516461610794067
aF0.03075355291366577
aF-9.182913780212402
aF3.5059356689453125
aF-3.955394744873047
aF0.006450951099395752
aF0.033554866909980774
aF0.02530607581138611
aF48.81192398071289
aF155.83221435546875
aF55.74320602416992
aF-0.5866796970367432
aF-0.10165068507194519
aF0.21726897358894348
aa(lp6
F17.595802307128906
aF3.466094970703125
aF-20.561500549316406
aF0.010240375995635986
aF-0.016919754445552826
aF0.02793993055820465
aF45.25150394439697
aF2.35699462890625
aF-42.19646453857422
aF0.0127524733543396
aF-0.06958771869540215
aF0.0384492427110672
aF-10.05989933013916
aF4.5751953125
aF1.0734634399414062
aF0.007728278636932373
aF0.035748209804296494
aF0.017430618405342102
aF55.670719146728516
aF157.6073455810547
aF48.27197265625
aF-0.5830760598182678
aF-0.10606436431407928
aF0.22605279088020325
aa(lp7
F19.525005340576172
aF5.120819091796875
aF-21.625076293945312
aF0.011628806591033936
aF-0.012613102793693542
aF0.024951055645942688
aF46.91528034210205
aF5.1678924560546875
aF-46.85824203491211
aF0.014924466609954834
aF-0.0596519336104393
aF0.04702751338481903
aF-7.865269660949707
aF5.0737457275390625
aF3.6080894470214844
aF0.008333146572113037
aF0.034425728023052216
aF0.002874597907066345
aF62.37126159667969
aF159.8524169921875
aF40.98757553100586
aF-0.5802414417266846
aF-0.10962522029876709
aF0.23285852372646332
aa(lp8
F19.998470306396484
aF6.6802978515625
aF-21.799755096435547
aF0.010234236717224121
aF-0.010361872613430023
aF0.02061586081981659
aF47.51039123535156
aF8.177566528320312
aF-50.66947937011719
aF0.018478214740753174
aF-0.04892008751630783
aF0.053107112646102905
aF-7.513450622558594
aF5.1830291748046875
aF7.069969177246094
aF0.0019902586936950684
aF0.028196342289447784
aF-0.011875391006469727
aF68.81039428710938
aF162.51251220703125
aF33.943450927734375
aF-0.576445460319519
aF-0.11201255768537521
aF0.23788483440876007
aa(lp9
F18.84842300415039
aF7.761993408203125
aF-21.028295516967773
aF0.012646615505218506
aF-0.006775319576263428
aF0.015121638774871826
aF42.597782135009766
aF11.209335327148438
aF-48.90637016296387
aF0.023974120616912842
aF-0.03199387341737747
aF0.05193527042865753
aF-4.900936126708984
aF4.3146514892578125
aF6.84977912902832
aF0.00131911039352417
aF0.018443234264850616
aF-0.02169199287891388
aF74.5191421508789
aF165.3693389892578
aF27.243677139282227
aF-0.5704294443130493
aF-0.11283968389034271
aF0.24117442965507507
aa(lp10
F17.309974670410156
aF8.741180419921875
aF-20.29810333251953
aF0.018001258373260498
aF-0.002474188804626465
aF0.00915151834487915
aF41.606319427490234
aF14.452346801757812
aF-48.14400100708008
aF0.031076252460479736
aF-0.022954799234867096
aF0.04389718174934387
aF-6.986370086669922
aF3.0300140380859375
aF7.547794342041016
aF0.00492626428604126
aF0.018006421625614166
aF-0.02559414505958557
aF79.68123626708984
aF168.59359741210938
aF20.689472198486328
aF-0.5622401833534241
aF-0.11209940910339355
aF0.24201004207134247
aa(lp11
F15.207023620605469
aF9.445648193359375
aF-19.299625396728516
aF0.04113936424255371
aF0.00879998505115509
aF0.003238365054130554
aF41.17116165161133
aF17.2265625
aF-47.96882629394531
aF0.056564152240753174
aF-0.006200455129146576
aF0.033215731382369995
aF-10.75711441040039
aF1.66473388671875
aF9.369575500488281
aF0.025714576244354248
aF0.023800425231456757
aF-0.026739001274108887
aF84.01741790771484
aF171.95816040039062
aF14.64382553100586
aF-0.5353060960769653
aF-0.10321257263422012
aF0.24112319946289062
aa(lp12
F13.275856018066406
aF10.347396850585938
aF-18.91753101348877
aF0.06200277805328369
aF0.024170614778995514
aF-0.0032793134450912476
aF38.98307418823242
aF19.884521484375
aF-47.417059898376465
aF0.07825303077697754
aF0.012981615960597992
aF0.020626142621040344
aF-12.43136215209961
aF0.810272216796875
aF9.581997871398926
aF0.045752525329589844
aF0.035359613597393036
aF-0.02718476951122284
aF87.79499816894531
aF175.71673583984375
aF8.326146125793457
aF-0.5084266662597656
aF-0.0886690691113472
aF0.23789511620998383
aa(lp13
F11.207717895507812
aF11.208663940429688
aF-18.380171060562134
aF0.0819578766822815
aF0.03959830105304718
aF-0.009587034583091736
aF35.21823501586914
aF22.194915771484375
aF-45.962671518325806
aF0.10279375314712524
aF0.03356325626373291
aF0.006370216608047485
aF-12.802799224853516
aF0.222412109375
aF9.202329397201538
aF0.061122000217437744
aF0.04563334584236145
aF-0.025544285774230957
aF90.88895416259766
aF179.80226135253906
aF2.3093011379241943
aF-0.4802823066711426
aF-0.07250110805034637
aF0.23242300748825073
aa(lp14
F9.148422241210938
aF11.87066650390625
aF-18.296786785125732
aF0.08227130770683289
aF0.04490652307868004
aF-0.014347195625305176
aF30.794578552246094
aF23.976409912109375
aF-44.64053678512573
aF0.12720665335655212
aF0.051319170743227005
aF-0.006082519888877869
aF-12.497734069824219
aF-0.235076904296875
aF8.046963214874268
aF0.03733596205711365
aF0.03849387541413307
aF-0.022611871361732483
aF93.16584014892578
aF183.82882690429688
aF-3.652961254119873
aF-0.45303478837013245
aF-0.058306049555540085
aF0.22677600383758545
aa(lp15
F6.8384246826171875
aF12.228927612304688
aF-17.614867210388184
aF0.0828547477722168
aF0.04760332033038139
aF-0.018058016896247864
aF25.823028564453125
aF25.433151245117188
aF-43.2321720123291
aF0.15087354183197021
aF0.07094680890440941
aF-0.01804773509502411
aF-12.14617919921875
aF-0.9752960205078125
aF8.002437591552734
aF0.014835953712463379
aF0.02425983175635338
aF-0.01806829869747162
aF94.6334228515625
aF187.94566345214844
aF-9.288721084594727
aF-0.42557191848754883
aF-0.041065748780965805
aF0.21983709931373596
aa(lp16
F4.334938049316406
aF11.8961181640625
aF-16.789243459701538
aF0.08044525980949402
aF0.048904405906796455
aF-0.018911287188529968
aF20.704750061035156
aF26.32904052734375
aF-41.72361946105957
aF0.17059239745140076
aF0.0892429817467928
aF-0.02766270935535431
aF-12.034873962402344
aF-2.53680419921875
aF8.145132541656494
aF-0.00970187783241272
aF0.008565830066800117
aF-0.010159865021705627
aF95.22389221191406
aF191.69837951660156
aF-14.479942321777344
aF-0.39983704686164856
aF-0.02359670214354992
aF0.21351172029972076
aa(lp17
F1.8412246704101562
aF11.807693481445312
aF-16.23622179031372
aF0.07751035690307617
aF0.054821572965011
aF-0.020397603511810303
aF15.325828552246094
aF27.042922973632812
aF-40.57865524291992
aF0.1867157518863678
aF0.10861493251286447
aF-0.03563164174556732
aF-11.643379211425781
aF-3.4275360107421875
aF8.10621166229248
aF-0.031695038080215454
aF0.0010282134171575308
aF-0.005163565278053284
aF95.00706481933594
aF195.6365203857422
aF-19.889183044433594
aF-0.3755244314670563
aF-0.003484476590529084
aF0.20637840032577515
aa(lp18
F-0.44403839111328125
aF10.903472900390625
aF-15.092615127563477
aF0.07571238279342651
aF0.05846196040511131
aF-0.02172200381755829
aF10.171966552734375
aF26.890975952148438
aF-39.02516174316406
aF0.18544656038284302
aF0.12060878425836563
aF-0.04300810396671295
aF-11.060043334960938
aF-5.0840301513671875
aF8.83993148803711
aF-0.03402179479598999
aF-0.0036848634481430054
aF-0.0004359036684036255
aF94.18938446044922
aF198.84913635253906
aF-24.381336212158203
aF-0.3498595356941223
aF0.017396211624145508
aF0.19811509549617767
aa(lp19
F-2.7694091796875
aF10.344589233398438
aF-14.451448440551758
aF0.07577335834503174
aF0.062332650646567345
aF-0.02446480095386505
aF4.65948486328125
aF26.32623291015625
aF-37.25753688812256
aF0.1843629777431488
aF0.12740501761436462
aF-0.04884819686412811
aF-10.19830322265625
aF-5.637054443359375
aF8.354640007019043
aF-0.03281626105308533
aF-0.0027397163212299347
aF-8.140504360198975e-05
aF92.45448303222656
aF202.04296875
aF-28.9313907623291
aF-0.3240636885166168
aF0.038735948503017426
aF0.1890469193458557
aa(lp20
F-4.9897918701171875
aF9.452178955078125
aF-13.597389221191406
aF0.07574370503425598
aF0.06396302976645529
aF-0.02787865698337555
aF-0.8716812133789062
aF25.28643798828125
aF-35.795873403549194
aF0.18050158023834229
aF0.13297966122627258
aF-0.053923264145851135
aF-9.107902526855469
aF-6.382080078125
aF8.601094961166382
aF-0.029014170169830322
aF-0.005053601693361998
aF-0.0018340498208999634
aF90.01727294921875
aF205.0886993408203
aF-33.486572265625
aF-0.2997807264328003
aF0.06047855317592621
aF0.1784997433423996
aa(lp21
F-7.337684631347656
aF9.151046752929688
aF-13.569046020507812
aF0.07275205850601196
aF0.06400025635957718
aF-0.030710294842720032
aF-6.314140319824219
aF24.171356201171875
aF-34.29742097854614
aF0.1759273111820221
aF0.13970251753926277
aF-0.05937120318412781
aF-8.361228942871094
aF-5.8692626953125
aF7.159328937530518
aF-0.03042319416999817
aF-0.011702004820108414
aF-0.002049386501312256
aF86.85169982910156
aF208.00018310546875
aF-37.950382232666016
aF-0.27710747718811035
aF0.08139646798372269
aF0.16740480065345764
aa(lp22
F-9.188850402832031
aF8.457443237304688
aF-12.941579818725586
aF0.06859004497528076
aF0.06208658963441849
aF-0.032604411244392395
aF-11.367790222167969
aF22.55474853515625
aF-32.58424949645996
aF0.17009827494621277
aF0.14188828691840172
aF-0.06339459121227264
aF-7.009910583496094
aF-5.639862060546875
aF6.701089859008789
aF-0.032918184995651245
aF-0.017715107649564743
aF-0.001814231276512146
aF83.26563262939453
aF210.5004119873047
aF-41.87297058105469
aF-0.25547364354133606
aF0.10082253813743591
aF0.15644250810146332
aa(lp23
F-10.969230651855469
aF7.6138916015625
aF-12.167610168457031
aF0.06440868973731995
aF0.058194905519485474
aF-0.033542752265930176
aF-16.17584991455078
aF21.00421142578125
aF-31.174240112304688
aF0.1644650101661682
aF0.1422701608389616
aF-0.06855472922325134
aF-5.762611389160156
aF-5.77642822265625
aF6.839019775390625
aF-0.03564763069152832
aF-0.025880349799990654
aF0.0014692246913909912
aF79.04804229736328
aF212.7025909423828
aF-45.65418243408203
aF-0.23537203669548035
aF0.11867345869541168
aF0.14495699107646942
aa(lp24
F-12.601776123046875
aF6.648468017578125
aF-11.092811584472656
aF0.05964261293411255
aF0.05442393571138382
aF-0.03430768847465515
aF-20.75714111328125
aF19.012130737304688
aF-29.154010772705078
aF0.15805956721305847
aF0.1393048802856356
aF-0.07328128814697266
aF-4.4464111328125
aF-5.7151947021484375
aF6.968387603759766
aF-0.038774341344833374
aF-0.03045700886286795
aF0.0046659111976623535
aF74.24992370605469
aF214.64865112304688
aF-49.04319381713867
aF-0.2174648642539978
aF0.1358204036951065
aF0.1330971121788025
aa(lp25
F-14.277618408203125
aF5.781005859375
aF-10.224380493164062
aF0.054870545864105225
aF0.05072551965713501
aF-0.036245010793209076
aF-25.201370239257812
aF17.432281494140625
aF-27.716014862060547
aF0.14925643801689148
aF0.13415184617042542
aF-0.07791759818792343
aF-3.3538665771484375
aF-5.870269775390625
aF7.267253875732422
aF-0.03951534628868103
aF-0.032700806856155396
aF0.0054275766015052795
aF68.9880142211914
aF216.2814178466797
aF-52.09735107421875
aF-0.20060309767723083
aF0.15154805779457092
aF0.12019749730825424
aa(lp26
F-15.7623291015625
aF4.872222900390625
aF-8.926502227783203
aF0.0505962073802948
aF0.04590533673763275
aF-0.03765196353197098
aF-29.16876983642578
aF15.531845092773438
aF-25.649293899536133
aF0.13928785920143127
aF0.125842846930027
aF-0.08174189180135727
aF-2.3558883666992188
aF-5.7873992919921875
aF7.796289443969727
aF-0.038095444440841675
aF-0.034032173454761505
aF0.006437964737415314
aF63.28571319580078
aF217.57481384277344
aF-54.580684661865234
aF-0.18477582931518555
aF0.16457879543304443
aF0.10730502754449844
aa(lp27
F-17.132713317871094
aF3.959442138671875
aF-7.665077209472656
aF0.04653814435005188
aF0.03968152403831482
aF-0.0377202183008194
aF-32.900062561035156
aF13.519393920898438
aF-23.221698760986328
aF0.12885400652885437
aF0.11502337455749512
aF-0.0831228494644165
aF-1.3653640747070312
aF-5.6005096435546875
aF7.891544342041016
aF-0.03577771782875061
aF-0.03566032648086548
aF0.00768241286277771
aF57.117210388183594
aF218.60809326171875
aF-56.70827102661133
aF-0.17092671990394592
aF0.17550192773342133
aF0.0953768938779831
aa(lp28
F-18.344345092773438
aF3.148529052734375
aF-6.292346954345703
aF0.041498586535453796
aF0.035856544971466064
aF-0.03717402368783951
aF-36.208030700683594
aF11.429763793945312
aF-20.439315795898438
aF0.11800296604633331
aF0.1060081347823143
aF-0.08438132703304291
aF-0.48065948486328125
aF-5.1327056884765625
aF7.854621887207031
aF-0.03500579297542572
aF-0.03429504483938217
aF0.010033279657363892
aF50.64366912841797
aF219.42994689941406
aF-58.38969802856445
aF-0.15910451114177704
aF0.187404602766037
aF0.08302347362041473
aa(lp29
F-19.63259506225586
aF2.4526214599609375
aF-5.358875274658203
aF0.03548763692378998
aF0.03213252127170563
aF-0.03666645288467407
aF-39.61251449584961
aF9.527023315429688
aF-18.06658935546875
aF0.10618545114994049
aF0.09588877856731415
aF-0.08580393344163895
aF0.3473243713378906
aF-4.6217803955078125
aF7.348838806152344
aF-0.035210177302360535
aF-0.03162373602390289
aF0.012471027672290802
aF43.65311813354492
aF220.02743530273438
aF-59.93955993652344
aF-0.14928819239139557
aF0.19671131670475006
aF0.07063857465982437
aa(lp30
F-20.643978118896484
aF1.790863037109375
aF-4.1480865478515625
aF0.028922751545906067
aF0.02875855565071106
aF-0.035564690828323364
aF-42.57481002807617
aF7.6963653564453125
aF-15.20217514038086
aF0.09336806833744049
aF0.0855870246887207
aF-0.08514478802680969
aF1.2868537902832031
aF-4.1146392822265625
aF6.906002044677734
aF-0.03552256524562836
aF-0.028069913387298584
aF0.014015406370162964
aF36.47323226928711
aF220.39895629882812
aF-60.85635757446289
aF-0.14200396835803986
aF0.20426048338413239
aF0.05981220304965973
aa(lp31
F-21.95090675354004
aF1.1729583740234375
aF-3.6618614196777344
aF0.021545618772506714
aF0.024549096822738647
aF-0.032826703041791916
aF-45.55716133117676
aF5.954254150390625
aF-13.008365631103516
aF0.07990597188472748
aF0.07613329589366913
aF-0.08290034160017967
aF1.6553478240966797
aF-3.60833740234375
aF5.684642791748047
aF-0.03681473433971405
aF-0.027035102248191833
aF0.01724693551659584
aF28.69276237487793
aF220.6029052734375
aF-62.05155944824219
aF-0.13755889236927032
aF0.21195369958877563
aF0.05019677057862282
aa(lp32
F-22.927644729614258
aF0.6300811767578125
aF-2.7002639770507812
aF0.011566326022148132
aF0.021285220980644226
aF-0.029683012515306473
aF-48.26254081726074
aF4.3760986328125
aF-10.542472839355469
aF0.0628812313079834
aF0.06644847989082336
aF-0.07924193516373634
aF2.4072513580322266
aF-3.115936279296875
aF5.141944885253906
aF-0.039748579263687134
aF-0.023878037929534912
aF0.019875910133123398
aF20.725473403930664
aF220.6575164794922
aF-62.63982391357422
aF-0.13772186636924744
aF0.2179965376853943
aF0.0409555621445179
aa(lp33
F-23.960200309753418
aF0.1143341064453125
aF-2.0084228515625
aF0.0027241557836532593
aF0.021471261978149414
aF-0.02927456796169281
aF-50.77268123626709
aF2.9384765625
aF-8.284095764160156
aF0.04549601674079895
aF0.061152949929237366
aF-0.07676739245653152
aF2.852280616760254
aF-2.709808349609375
aF4.267250061035156
aF-0.04004770517349243
aF-0.018210425972938538
aF0.018218256533145905
aF12.513031959533691
aF220.51329040527344
aF-62.86478042602539
aF-0.1392798125743866
aF0.2257317453622818
aF0.03053763508796692
aa(lp34
F-24.784637212753296
aF-0.2327728271484375
aF-1.1304931640625
aF-0.005005091428756714
aF0.016637727618217468
aF-0.028157245367765427
aF-53.20908522605896
aF1.7620391845703125
aF-6.473781585693359
aF0.028362736105918884
aF0.05308949947357178
aF-0.0733373686671257
aF3.639810800552368
aF-2.2275848388671875
aF4.212795257568359
aF-0.03837291896343231
aF-0.01981404423713684
aF0.01702287793159485
aF3.908125162124634
aF220.37013244628906
aF-63.18205261230469
aF-0.14256398379802704
aF0.2285914272069931
aF0.02203952521085739
aa(lp35
F-25.256709575653076
aF-0.6487579345703125
aF0.03481292724609375
aF-0.010361269116401672
aF0.013993531465530396
aF-0.02577961515635252
aF-55.17490530014038
aF0.5788116455078125
aF-4.215312957763672
aF0.01102137565612793
aF0.044585466384887695
aF-0.06784752663224936
aF4.6614861488342285
aF-1.8763275146484375
aF4.284938812255859
aF-0.031743913888931274
aF-0.016598403453826904
aF0.016288296319544315
aF-4.531236171722412
aF220.00875854492188
aF-62.605010986328125
aF-0.1480831354856491
aF0.23199006915092468
aF0.015175946988165379
aa(lp36
F-25.7833194732666
aF-1.062957763671875
aF1.2626953125
aF-0.016007065773010254
aF0.005190610885620117
aF-0.022097595036029816
aF-56.92340564727783
aF-0.5771026611328125
aF-1.6625251770019531
aF-0.005998685956001282
aF0.034211039543151855
aF-0.06219853460788727
aF5.356766700744629
aF-1.5488128662109375
aF4.187915802001953
aF-0.026015445590019226
aF-0.02382981777191162
aF0.018003344535827637
aF-13.27028751373291
aF219.45033264160156
aF-61.60208511352539
aF-0.15528687834739685
aF0.23092235624790192
aF0.008440040051937103
aa(lp37
F-25.87246537208557
aF-1.625030517578125
aF2.8227462768554688
aF-0.020322948694229126
aF0.005222156643867493
aF-0.02580892387777567
aF-58.43757247924805
aF-1.6538543701171875
aF0.4970512390136719
aF-0.02088296413421631
aF0.02955310046672821
aF-0.063581601716578
aF6.692641735076904
aF-1.5962066650390625
aF5.148441314697266
aF-0.019762933254241943
aF-0.019108787178993225
aF0.011963753961026669
aF-21.964340209960938
aF218.74510192871094
aF-60.35930633544922
aF-0.16288693249225616
aF0.2338135838508606
aF-0.0037693986669182777
aa(lp38
F-25.9385724067688
aF-1.9770355224609375
aF4.192924499511719
aF-0.025942355394363403
aF0.0018175691366195679
aF-0.024379607290029526
aF-59.16257095336914
aF-2.5711822509765625
aF3.6394729614257812
aF-0.03646659851074219
aF0.021853938698768616
aF-0.059400430880486965
aF7.285426139831543
aF-1.3828887939453125
aF4.746376037597656
aF-0.01541811227798462
aF-0.01821880042552948
aF0.010641216300427914
aF-30.46980857849121
aF218.03172302246094
aF-58.412086486816406
aF-0.1740254908800125
aF0.23380763828754425
aF-0.009203660301864147
aa(lp39
F-25.799094200134277
aF-2.157867431640625
aF5.375659942626953
aF-0.03105480968952179
aF0.002317875623703003
aF-0.02474195696413517
aF-59.79485511779785
aF-3.36505126953125
aF6.413398742675781
aF-0.048619821667671204
aF0.015243694186210632
aF-0.057257479056715965
aF8.196666717529297
aF-0.95068359375
aF4.337921142578125
aF-0.013489797711372375
aF-0.010607942938804626
aF0.007773565128445625
aF-39.06938171386719
aF217.29246520996094
aF-56.22642517089844
aF-0.18634168803691864
aF0.23324023187160492
aF-0.016301916912198067
aa(lp40
F-24.864822387695312
aF-2.2227783203125
aF7.874141693115234
aF-0.037996843457221985
aF-0.005318313837051392
aF-0.01634963508695364
aF-59.34219455718994
aF-3.990966796875
aF10.379615783691406
aF-0.06160396337509155
aF0.002763524651527405
aF-0.05065666884183884
aF9.612549781799316
aF-0.45458984375
aF5.3686676025390625
aF-0.014389723539352417
aF-0.013400152325630188
aF0.017957398667931557
aF-46.82916259765625
aF216.52232360839844
aF-52.485164642333984
aF-0.20088377594947815
aF0.2284952700138092
aF-0.020119033753871918
aa(lp41
F-23.96549415588379
aF-2.407928466796875
aF9.646068572998047
aF-0.042769864201545715
aF-0.012238681316375732
aF-0.014508389867842197
aF-58.343427896499634
aF-4.746337890625
aF14.416034698486328
aF-0.07423137128353119
aF-0.007022470235824585
aF-0.045751575380563736
aF10.412439584732056
aF-0.06951904296875
aF4.876102447509766
aF-0.011308357119560242
aF-0.01745489239692688
aF0.01673479564487934
aF-54.435302734375
aF215.62379455566406
aF-48.76601791381836
aF-0.21679535508155823
aF0.22156895697116852
aF-0.023712050169706345
aa(lp42
F-22.933948516845703
aF-2.5087432861328125
aF11.049674987792969
aF-0.04858994483947754
aF-0.020548120141029358
aF-0.007992442697286606
aF-57.47209405899048
aF-5.22503662109375
aF17.428260803222656
aF-0.08684849739074707
aF-0.01929795742034912
aF-0.03947030659765005
aF11.604197025299072
aF0.207550048828125
aF4.671089172363281
aF-0.010331392288208008
aF-0.021798282861709595
aF0.02348542120307684
aF-62.00333023071289
aF214.78372192382812
aF-45.17675018310547
aF-0.23493163287639618
aF0.21269211173057556
aF-0.024294359609484673
aa(lp43
F-22.412567138671875
aF-2.4786529541015625
aF11.43918228149414
aF-0.05286437273025513
aF-0.02580992877483368
aF-0.006101643666625023
aF-55.971442222595215
aF-5.4066619873046875
aF20.556102752685547
aF-0.09846127033233643
aF-0.02823701500892639
aF-0.034660717472434044
aF11.146307945251465
aF0.4493560791015625
aF2.3222618103027344
aF-0.007267475128173828
aF-0.023382842540740967
aF0.022457430139183998
aF-69.24172973632812
aF214.04367065429688
aF-41.045982360839844
aF-0.2537481486797333
aF0.20268534123897552
aF-0.02622067742049694
aa(lp44
F-21.89533233642578
aF-2.3643341064453125
aF12.293441772460938
aF-0.05642002820968628
aF-0.029868438839912415
aF-0.001839401200413704
aF-54.366294860839844
aF-5.4856414794921875
aF23.886730194091797
aF-0.11032845079898834
aF-0.04211306571960449
aF-0.02178205270320177
aF10.575630187988281
aF0.7569732666015625
aF0.7001533508300781
aF-0.0025116056203842163
aF-0.017623811960220337
aF0.018103250302374363
aF-76.33063507080078
aF213.25946044921875
aF-36.47257614135742
aF-0.2732153832912445
aF0.1917005181312561
aF-0.02555145137012005
aa(lp45
F-20.95168685913086
aF-2.275665283203125
aF13.70250129699707
aF-0.05854173004627228
aF-0.02983744442462921
aF-0.00010064803063869476
aF-52.48520851135254
aF-5.5236663818359375
aF26.937837600708008
aF-0.11944787204265594
aF-0.0509529709815979
aF-0.01519134733825922
aF10.58183479309082
aF0.9723358154296875
aF0.4671649932861328
aF0.002364411950111389
aF-0.008721917867660522
aF0.01499005127698183
aF-82.95501708984375
aF212.508056640625
aF-31.4742488861084
aF-0.29347336292266846
aF0.18285466730594635
aF-0.024395007640123367
aa(lp46
F-19.929458618164062
aF-2.2836151123046875
aF15.241910934448242
aF-0.062025994062423706
aF-0.03037305176258087
aF0.009015092626214027
aF-50.101806640625
aF-5.53240966796875
aF30.422353744506836
aF-0.12943245470523834
aF-0.060927942395210266
aF-0.0009036678820848465
aF10.242889404296875
aF0.965179443359375
aF0.06146812438964844
aF0.00538046658039093
aF0.00018183887004852295
aF0.0189338531345129
aF-89.17118835449219
aF211.7600555419922
aF-25.8040714263916
aF-0.315774142742157
aF0.17231228947639465
aF-0.017205584794282913
aa(lp47
F-18.429542541503906
aF-2.2725677490234375
aF16.852523803710938
aF-0.06570491194725037
aF-0.032146111130714417
aF0.007192904129624367
aF-47.93101501464844
aF-5.535430908203125
aF32.8651123046875
aF-0.13803651928901672
aF-0.06894086301326752
aF0.001760486513376236
aF11.071929931640625
aF0.99029541015625
aF0.839935302734375
aF0.006626695394515991
aF0.004648640751838684
aF0.012625321745872498
aF-94.76017761230469
aF210.9868927001953
aF-19.620052337646484
aF-0.3389202952384949
aF0.1595544070005417
aF-0.018358547240495682
aa(lp48
F-16.89136505126953
aF-2.3607025146484375
aF18.462255477905273
aF-0.07043609023094177
aF-0.03277881443500519
aF0.016343594528734684
aF-45.41107940673828
aF-5.4764404296875
aF35.754024505615234
aF-0.147114098072052
aF-0.07149310410022736
aF0.01566063705831766
aF11.628349304199219
aF0.755035400390625
aF1.1704864501953125
aF0.006241917610168457
aF0.00593547523021698
aF0.017026551999151707
aF-99.84638214111328
aF210.14735412597656
aF-13.011993408203125
aF-0.36390945315361023
aF0.15007585287094116
aF-0.008051413111388683
aa(lp49
F-14.986045837402344
aF-2.4405059814453125
aF19.87489414215088
aF-0.07326170802116394
aF-0.034836992621421814
aF0.01955761876888573
aF-42.15390396118164
aF-5.46417236328125
aF39.247572898864746
aF-0.15410421788692474
aF-0.07521681487560272
aF0.02664639358408749
aF12.181812286376953
aF0.583160400390625
aF0.5022153854370117
aF0.007580801844596863
aF0.005542829632759094
aF0.012468843953683972
aF-104.15723419189453
aF209.31954956054688
aF-5.929177284240723
aF-0.3890358507633209
aF0.13747529685497284
aF0.0023520339746028185
aa(lp50
F-13.32537841796875
aF-2.4912261962890625
aF20.880005955696106
aF-0.0745682418346405
aF-0.036661677062511444
aF0.02352739032357931
aF-38.84382629394531
aF-5.548004150390625
aF42.305935978889465
aF-0.1597403883934021
aF-0.07979261130094528
aF0.03138952050358057
aF12.193069458007812
aF0.5655517578125
aF-0.5459240674972534
aF0.010603904724121094
aF0.006469257175922394
aF0.015665260143578053
aF-108.08555603027344
aF208.49566650390625
aF1.2599536180496216
aF-0.4134885370731354
aF0.12289272993803024
aF0.00516884308308363
aa(lp51
F-11.347320556640625
aF-2.5061492919921875
aF21.810455322265625
aF-0.07540565729141235
aF-0.03919447958469391
aF0.02448293101042509
aF-34.863067626953125
aF-5.618255615234375
aF45.27103805541992
aF-0.16609972715377808
aF-0.08081914484500885
aF0.041982969269156456
aF12.168426513671875
aF0.60595703125
aF-1.6501274108886719
aF0.01528841257095337
aF0.0024301856756210327
aF0.006982892751693726
aF-111.1937026977539
aF207.64120483398438
aF8.7984619140625
aF-0.4393151104450226
aF0.11088137328624725
aF0.016431517899036407
aa(lp52
F-9.661415100097656
aF-2.40411376953125
aF22.01595973968506
aF-0.07541581988334656
aF-0.042198024690151215
aF0.018988989992067218
aF-30.863632202148438
aF-5.592620849609375
aF47.561031341552734
aF-0.17097830772399902
aF-0.08757739514112473
aF0.045736031606793404
aF11.540802001953125
aF0.784393310546875
aF-3.529111862182617
aF0.020146667957305908
aF0.003181345760822296
aF-0.007758051622658968
aF-113.81864929199219
aF206.91543579101562
aF16.086782455444336
aF-0.4644516706466675
aF0.09527727216482162
aF0.021341023966670036
aa(lp53
F-7.497383117675781
aF-2.2459564208984375
aF21.82972800731659
aF-0.07676327228546143
aF-0.04075377434492111
aF0.02630274835973978
aF-26.41175079345703
aF-5.510345458984375
aF48.89375305175781
aF-0.17447766661643982
aF-0.09017333388328552
aF0.04867717623710632
aF11.416984558105469
aF1.0184326171875
aF-5.234297037124634
aF0.020951122045516968
aF0.008665785193443298
aF0.003928320482373238
aF-115.58293914794922
aF206.2497100830078
aF23.08968162536621
aF-0.4902518093585968
aF0.08213895559310913
aF0.03147159144282341
aa(lp54
F-5.742156982421875
aF-2.052490234375
aF21.571714401245117
aF-0.07732167840003967
aF-0.036421872675418854
aF0.020468898117542267
aF-22.175682067871094
aF-5.3981781005859375
aF49.9902286529541
aF-0.17771649360656738
aF-0.08509490638971329
aF0.055258963257074356
aF10.691368103027344
aF1.2931976318359375
aF-6.846799850463867
aF0.023073136806488037
aF0.01225116103887558
aF-0.014321167021989822
aF-116.93585968017578
aF205.58871459960938
aF30.370176315307617
aF-0.5166367888450623
aF0.0744595006108284
aF0.036900416016578674
aa(lp55
F-4.188102722167969
aF-2.0399169921875
aF22.43434715270996
aF-0.07909578084945679
aF-0.03182835876941681
aF0.022846387699246407
aF-18.160369873046875
aF-5.2718353271484375
aF51.53312301635742
aF-0.17963799834251404
aF-0.08662693947553635
aF0.052238824777305126
aF9.784164428710938
aF1.1920013427734375
aF-6.6644287109375
aF0.021446436643600464
aF0.02297022193670273
aF-0.006546049378812313
aF-118.00675201416016
aF204.87551879882812
aF38.5211296081543
aF-0.5435474514961243
aF0.06344891339540482
aF0.04418741166591644
aa(lp56
F-2.8319931030273438
aF-1.9540252685546875
aF21.920461654663086
aF-0.0799192488193512
aF-0.029910340905189514
aF0.01886194571852684
aF-14.257698059082031
aF-5.02386474609375
aF50.93932056427002
aF-0.18113520741462708
aF-0.08524668216705322
aF0.04798150318674743
aF8.593711853027344
aF1.115814208984375
aF-7.098397254943848
aF0.021296709775924683
aF0.025426000356674194
aF-0.010257611749693751
aF-118.41493225097656
aF204.29568481445312
aF45.0101432800293
aF-0.570171058177948
aF0.05222861468791962
aF0.05033353716135025
aa(lp57
F-1.6330413818359375
aF-2.0474090576171875
aF22.70194435119629
aF-0.1113552451133728
aF-0.03517446666955948
aF0.021285954862833023
aF-10.483345031738281
aF-4.9543609619140625
aF51.812167048454285
aF-0.21450349688529968
aF-0.08360769599676132
aF0.05301752779632807
aF7.217262268066406
aF0.8595428466796875
aF-6.4082783460617065
aF-0.008206993341445923
aF0.013258762657642365
aF-0.010445618070662022
aF-118.56890106201172
aF203.5413055419922
aF53.072120666503906
aF-0.6279920339584351
aF0.03928503394126892
aF0.0581863708794117
aa(lp58
F0.09159088134765625
aF-2.258270263671875
aF22.216567993164062
aF-0.13077068328857422
aF-0.03614785894751549
aF0.020597748458385468
aF-6.721458435058594
aF-5.023956298828125
aF51.93923568725586
aF-0.2350030243396759
aF-0.08358031883835793
aF0.0483536422252655
aF6.904640197753906
aF0.507415771484375
aF-7.506099700927734
aF-0.026538342237472534
aF0.01128460094332695
aF-0.007158145308494568
aF-117.9151611328125
aF202.61724853515625
aF60.73769760131836
aF-0.6743181347846985
aF0.027301054447889328
aF0.06478516012430191
aa(lp59
F1.4206390380859375
aF-2.5409698486328125
aF23.000812530517578
aF-0.1459141969680786
aF-0.03709363006055355
aF0.021720625460147858
aF-3.1756439208984375
aF-5.1607208251953125
aF51.92417335510254
aF-0.25163358449935913
aF-0.08014228753745556
aF0.05071313865482807
aF6.0169219970703125
aF0.0787811279296875
aF-5.922548294067383
aF-0.040194809436798096
aF0.005955027416348457
aF-0.007271887734532356
aF-116.99429321289062
aF201.7547149658203
aF68.01095581054688
aF-0.7160852551460266
aF0.015134984627366066
aF0.07205416262149811
aa(lp60
F2.9853439331054688
aF-2.7301025390625
aF21.727951049804688
aF-0.12727725505828857
aF-0.036350787384435534
aF0.021616611629724503
aF-0.00061798095703125
aF-5.438507080078125
aF51.71039009094238
aF-0.26501747965812683
aF-0.07920470903627574
aF0.04833139106631279
aF5.971305847167969
aF-0.021697998046875
aF-8.254487991333008
aF0.010462969541549683
aF0.0065031342674046755
aF-0.005098167806863785
aF-115.58355712890625
aF200.8112030029297
aF74.8000717163086
aF-0.7552692890167236
aF0.0029342465568333864
aF0.0798029825091362
aa.