(lp0
(lp1
F5.6068196296691895
aF85.59831237792969
aF17.077892303466797
aF-0.012887466698884964
aF0.08657538145780563
aF-0.025529691949486732
aF3.995401978492737
aF1.622161865234375
aF-30.554927825927734
aF0.10492737218737602
aF0.055585457012057304
aF-0.01673400867730379
aF-4994.393180370331
aF-4914.40168762207
aF-4982.922107696533
aF-5000.012887466699
aF-4999.913424618542
aF-5000.0255296919495
aF5002.383984327316
aF4917.646011352539
aF4921.812252044678
aF5000.222742211074
aF5000.024595532566
aF4999.992061674595
aa(lp2
F6.275484085083008
aF85.34734344482422
aF9.684234619140625
aF0.02050343155860901
aF0.09408245235681534
aF-0.03051755577325821
aF2.437722682952881
aF-0.0162506103515625
aF-22.95440673828125
aF0.13417991250753403
aF0.040421657264232635
aF-0.0152567895129323
aF-4993.724515914917
aF-4914.652656555176
aF-4990.315765380859
aF-4999.979496568441
aF-4999.905917547643
aF-5000.030517555773
aF4998.599961280823
aF4914.620155334473
aF4944.406951904297
aF5000.2478563934565
aF4999.986760862172
aF5000.000003976747
aa(lp3
F6.8835649490356445
aF85.43131256103516
aF2.7372262477874756
aF0.05024520307779312
aF0.09488588571548462
aF-0.035718780010938644
aF2.0338563919067383
aF-0.18717193603515625
aF-21.451706171035767
aF0.10825057700276375
aF0.02161521464586258
aF-0.014976337552070618
aF-4993.116435050964
aF-4914.568687438965
aF-4997.2627737522125
aF-4999.949754796922
aF-4999.9051141142845
aF-5000.035718780011
aF4997.184147834778
aF4914.1943435668945
aF4954.359361410141
aF5000.166255950928
aF4999.948344543576
aF5000.005766104907
aa(lp4
F7.2698073387146
aF86.64197540283203
aF-3.0842061042785645
aF0.07665588706731796
aF0.09196078032255173
aF-0.039521168917417526
aF1.6629877090454102
aF1.0436630249023438
aF-20.16209840774536
aF0.08954335376620293
aF0.005385398864746094
aF-0.013991476967930794
aF7.11017869412899
aF3.8805389404296875
aF-58.391884326934814
aF0.20023254305124283
aF0.0850625247694552
aF-0.0334541448391974
aF-3.78420327603817
aF-1.793212890625
aF18.067687511444092
aF-0.021145835518836975
aF-0.07429172703996301
aF0.00547119090333581
aa(lp5
F6.977255344390869
aF88.9738998413086
aF-6.685996055603027
aF0.09946002811193466
aF0.08171147853136063
aF-0.04104553535580635
aF0.7017712593078613
aF3.626556396484375
aF-16.370230674743652
aF0.07895659655332565
aF-0.012370973825454712
aF-0.010527979582548141
aF5.3658376932144165
aF4.997749328613281
aF-54.31881618499756
aF0.21727486699819565
aF0.0507215540856123
aF-0.03224985208362341
aF-3.962295174598694
aF2.2553634643554688
aF21.578354835510254
aF-0.05936167389154434
aF-0.07546350173652172
aF0.011193892918527126
aa(lp6
F6.811325550079346
aF94.17520141601562
aF-10.294384002685547
aF0.11866587400436401
aF0.07650010287761688
aF-0.041431818157434464
aF-0.07223939895629883
aF8.743888854980469
aF-13.031610250473022
aF0.06842067092657089
aF-0.018385782837867737
aF-0.005713038146495819
aF2.9735641479492188
aF8.811607360839844
aF-42.93302536010742
aF0.23234235495328903
aF0.02283930778503418
aF-0.026171051897108555
aF-3.1180429458618164
aF8.676170349121094
aF16.869804859161377
aF-0.09550101310014725
aF-0.05961087346076965
aF0.014744975604116917
aa(lp7
F6.594372749328613
aF97.57413482666016
aF-11.856037139892578
aF0.1323574185371399
aF0.06906799226999283
aF-0.04064572602510452
aF-0.6754345893859863
aF10.932159423828125
aF-8.771831035614014
aF0.05570153146982193
aF-0.0228927880525589
aF-0.0011245571076869965
aF1.744664192199707
aF11.955650329589844
aF-36.04496955871582
aF0.19036279246211052
aF-0.004202678799629211
aF-0.019903283566236496
aF-3.0955333709716797
aF9.908668518066406
aF18.501307487487793
aF-0.07895972952246666
aF-0.041582897305488586
aF0.017654169350862503
aa(lp8
F6.414794921875
aF99.58071899414062
aF-12.194759368896484
aF0.14240548014640808
aF0.06768903881311417
aF-0.038234893232584
aF-0.5624604225158691
aF10.606819152832031
aF-5.508763313293457
aF0.04294545203447342
aF-0.01402243971824646
aF0.002810642123222351
aF0.8079752922058105
aF13.982406616210938
aF-29.27265167236328
aF0.15529294684529305
aF-0.018886342644691467
aF-0.012705201283097267
aF-1.9328961372375488
aF7.231231689453125
aF18.255125045776367
aF-0.0694020427763462
aF-0.009158536791801453
aF0.01832648552954197
aa(lp9
F4.844052791595459
aF111.24290466308594
aF-15.129626274108887
aF0.1483449637889862
aF0.06561686843633652
aF-0.036317452788352966
aF-1.9672727584838867
aF17.067703247070312
aF-4.83524227142334
aF0.029679089784622192
aF-0.010883234441280365
aF0.005114365369081497
aF-1.4314312934875488
aF25.89556121826172
aF-24.81386089324951
aF0.1278415322303772
aF-0.02846558392047882
aF-0.005799897015094757
aF-2.5031142234802246
aF8.239845275878906
aF15.143376350402832
aF-0.06848335266113281
aF0.006699115037918091
aF0.01602862775325775
aa(lp10
F2.849184036254883
aF125.83607482910156
aF-18.520586013793945
aF0.1534593105316162
aF0.06345675140619278
aF-0.03547767922282219
aF-3.7451887130737305
aF28.261940002441406
aF-6.664548873901367
aF0.02110189199447632
aF-0.005611240863800049
aF0.005168046802282333
aF-4.034380912780762
aF40.404762268066406
aF-21.25781226158142
aF0.10321410745382309
aF-0.03142913430929184
aF0.00024110078811645508
aF-3.455996513366699
aF16.119117736816406
aF7.9287145137786865
aF-0.06101032346487045
aF0.020206652581691742
aF0.010094992816448212
aa(lp11
F1.3746362924575806
aF136.36903381347656
aF-20.701988220214844
aF0.15255406498908997
aF0.06203288212418556
aF-0.03551460802555084
aF-5.040158629417419
aF36.78831481933594
aF-8.50722885131836
aF0.010148584842681885
aF-0.005656156688928604
aF0.0027202852070331573
aF-5.895171046257019
aF49.72705841064453
aF-17.61778211593628
aF0.075898177921772
aF-0.029927898198366165
aF0.004006560891866684
aF-4.18514621257782
aF23.849571228027344
aF0.6033244132995605
aF-0.055601008236408234
aF0.018615584820508957
aF0.0014340095221996307
aa(lp12
F-0.8051424026489258
aF155.84861755371094
aF-23.735958099365234
aF0.15838520228862762
aF0.06081034243106842
aF-0.03652850165963173
aF-5.649195194244385
aF44.605712890625
aF-8.606331825256348
aF0.010040238499641418
aF-0.004806526005268097
aF-0.00021104887127876282
aF-7.782397747039795
aF66.87471771240234
aF-17.049962043762207
aF0.05892517417669296
aF-0.020901136100292206
aF0.004517033696174622
aF-3.5159926414489746
aF22.336708068847656
aF-0.16270160675048828
aF-0.038844697177410126
aF0.011288084089756012
aF-0.004939131438732147
aa(lp13
F-3.4493086338043213
aF184.82398986816406
aF-27.61705207824707
aF0.16307798027992249
aF0.06315818428993225
aF-0.034524671733379364
aF-6.298492670059204
aF58.9879150390625
aF-9.096466064453125
aF0.009618669748306274
aF-0.00029856711626052856
aF0.0009530074894428253
aF-10.260634183883667
aF90.64878845214844
aF-17.322668075561523
aF0.04441210627555847
aF-0.013341918587684631
aF0.0069071464240550995
aF-2.336351156234741
aF27.327041625976562
aF-0.8702640533447266
aF-0.025174766778945923
aF0.012744784355163574
aF-0.005001131445169449
aa(lp14
F-4.504410266876221
aF199.77841186523438
aF-28.85019302368164
aF0.1681436151266098
aF0.06467904895544052
aF-0.02888418175280094
aF-5.879046559333801
aF63.40937805175781
aF-8.148204803466797
aF0.015589550137519836
aF0.002646166831254959
aF0.006630426272749901
aF-11.098783016204834
aF102.20427703857422
aF-16.994155883789062
aF0.03578619658946991
aF-0.004388943314552307
aF0.011761544272303581
aF-0.6593101024627686
aF24.614479064941406
aF0.6977462768554688
aF-0.004607096314430237
aF0.009681276977062225
aF0.0014993082731962204
aa(lp15
F-6.04010009765625
aF223.6174774169922
aF-30.749794006347656
aF0.16355763375759125
aF0.06992191821336746
aF-0.02390473708510399
aF-5.234957695007324
aF67.76885986328125
aF-7.013835906982422
aF0.005172431468963623
aF0.009111575782299042
aF0.01262376457452774
aF-12.45489501953125
aF124.03675842285156
aF-18.555034637451172
aF0.021152153611183167
aF0.002232879400253296
aF0.014330156147480011
aF1.9849796295166016
aF11.500961303710938
aF4.527362823486328
aF-0.01080729067325592
aF0.015990272164344788
aF0.01091737300157547
aa(lp16
F-6.602118492126465
aF235.1618194580078
aF-30.782917022705078
aF0.16403521597385406
aF0.07171598076820374
aF-0.01756955124437809
aF-3.1528098583221436
aF50.33782958984375
aF-3.165864944458008
aF0.0009572356939315796
aF0.008557796478271484
aF0.016955120489001274
aF-11.446171283721924
aF123.91891479492188
aF-15.653290748596191
aF0.01569025218486786
aF0.006099112331867218
aF0.018747901543974876
aF5.140551567077637
aF-23.243255615234375
aF9.321560859680176
aF-0.0137757807970047
aF0.01101648062467575
aF0.015162339434027672
aa(lp17
F-7.395627021789551
aF245.8739471435547
aF-28.19672966003418
aF0.16174189746379852
aF0.07440531253814697
aF-0.011240528896450996
aF-2.89121675491333
aF46.09553527832031
aF0.6534633636474609
aF-0.006401717662811279
aF0.009726263582706451
aF0.017643652856349945
aF-10.244811058044434
aF120.03787231445312
aF-9.676143646240234
aF0.008282586932182312
aF0.010948561131954193
aF0.024237150326371193
aF4.462377548217773
aF-27.8468017578125
aF10.983070373535156
aF-0.02108602225780487
aF0.00850396603345871
aF0.011050155386328697
aa(lp18
F-8.135088920593262
aF257.3768615722656
aF-26.49477195739746
aF0.1265619993209839
aF0.08077853918075562
aF-0.0062877107411623
aF-2.0949888229370117
aF33.75938415527344
aF4.255022048950195
aF-0.03699563443660736
aF0.010856620967388153
aF0.01761702634394169
aF-9.509725213050842
aF121.00782775878906
aF-5.792783737182617
aF-0.02599206566810608
aF0.018745657056570053
aF0.029226897284388542
aF5.319747567176819
aF-53.48905944824219
aF14.302827835083008
aF-0.04799920320510864
aF0.002967584878206253
aF0.006007155403494835
aa(lp19
F-8.753334999084473
aF268.3094177246094
aF-27.69040298461914
aF0.09679360687732697
aF0.08419868350028992
aF-0.003421352244913578
aF-2.151216506958008
aF33.14759826660156
aF3.0925140380859375
aF-0.0672416090965271
aF0.012482702732086182
aF0.014148198999464512
aF-7.948192596435547
aF112.46080017089844
aF-3.9544448852539062
aF-0.06159159541130066
aF0.023388341069221497
aF0.03310714941471815
aF3.6457595825195312
aF-46.16560363769531
aF10.139472961425781
aF-0.07289162278175354
aF0.0015770643949508667
aF-0.004810751415789127
aa(lp20
F-9.405567169189453
aF279.0466003417969
aF-27.076839447021484
aF0.07114153355360031
aF0.08750090003013611
aF0.003532162168994546
aF-2.0099401473999023
aF33.17265319824219
aF1.1198902130126953
aF-0.09060036391019821
aF0.013095587491989136
aF0.014772691065445542
aF-5.956258535385132
aF94.22261047363281
aF0.5402126312255859
aF-0.09193644672632217
aF0.024342715740203857
aF0.03805683390237391
aF1.9363782405853271
aF-27.877304077148438
aF1.6995677947998047
aF-0.08926428109407425
aF0.001848459243774414
aF-0.008511451771482825
aa(lp21
F-10.113285064697266
aF290.2152404785156
aF-27.281356811523438
aF0.04866693168878555
aF0.0986461490392685
aF0.00783117488026619
aF-1.978196144104004
aF32.83837890625
aF-0.7865848541259766
aF-0.07789506763219833
aF0.01786760985851288
aF0.01411888562142849
aF-5.608874797821045
aF90.43682861328125
aF1.5688362121582031
aF-0.11947668343782425
aF0.03396710008382797
aF0.03671535663306713
aF1.652482509613037
aF-24.76007080078125
aF-3.1420059204101562
aF-0.03631345182657242
aF0.0017681196331977844
aF-0.008477585390210152
aa(lp22
F-10.854454040527344
aF301.1777038574219
aF-26.701904296875
aF0.028576329350471497
aF0.10254266113042831
aF0.014931046403944492
aF-2.101119041442871
aF32.8682861328125
aF0.9884986877441406
aF-0.06821727752685547
aF0.018343977630138397
aF0.01835239864885807
aF-4.814353942871094
aF77.56022644042969
aF4.047889709472656
aF-0.13498130440711975
aF0.03262074291706085
aF0.03883578348904848
aF0.6121158599853516
aF-11.823654174804688
aF-2.070892333984375
aF-0.0014532506465911865
aF0.004067212343215942
aF-0.0021309861913323402
aa(lp23
F-11.71341609954834
aF312.1586608886719
aF-25.966506958007812
aF0.011293938383460045
aF0.11120477318763733
aF0.018084941431879997
aF-2.3078489303588867
aF33.112060546875
aF1.1103324890136719
aF-0.059847595170140266
aF0.02370387315750122
aF0.014552779262885451
aF-5.111297607421875
aF76.99684143066406
aF4.816410064697266
aF-0.15274127759039402
aF0.039488792419433594
aF0.03565449267625809
aF0.49559974670410156
aF-10.772720336914062
aF-2.595745086669922
aF0.03304608725011349
aF0.007918953895568848
aF-0.0065489341504871845
aa(lp24
F-12.627083778381348
aF323.5813903808594
aF-24.85941505432129
aF-0.006013290025293827
aF0.12706723809242249
aF0.022714950144290924
aF-2.513798713684082
aF33.36614990234375
aF2.4219417572021484
aF-0.05468022171407938
aF0.02842108905315399
aF0.014883775264024734
aF-5.231456756591797
aF77.70744323730469
aF3.3373146057128906
aF-0.16775518748909235
aF0.05266192555427551
aF0.03395547904074192
aF0.2038593292236328
aF-10.975143432617188
aF1.5065689086914062
aF0.05839474406093359
aF0.004180252552032471
aF-0.0041879285126924515
aa(lp25
F-13.602867126464844
aF335.11480712890625
aF-23.521026611328125
aF-0.018094882369041443
aF0.13390669226646423
aF0.019401032477617264
aF-2.7484130859375
aF33.937103271484375
aF3.180877685546875
aF-0.04667121171951294
aF0.03136403113603592
aF0.0044699860736727715
aF-5.467778205871582
aF77.73794555664062
aF2.973745346069336
aF-0.14465688169002533
aF0.05312815308570862
aF0.025688743218779564
aF-0.02904796600341797
aF-9.863739013671875
aF3.388010025024414
aF0.05131445825099945
aF0.00959990918636322
aF-0.01674877107143402
aa(lp26
F-14.763331413269043
aF347.7388916015625
aF-22.04128646850586
aF-0.04057338461279869
aF0.13934271037578583
aF0.013121547177433968
aF-3.049915313720703
aF35.580230712890625
aF3.925220489501953
aF-0.051867322996258736
aF0.0281379371881485
aF-0.00496339425444603
aF-6.00999641418457
aF79.42947387695312
aF5.649116516113281
aF-0.13736699149012566
aF0.05514402687549591
aF0.016542899422347546
aF-0.08983421325683594
aF-8.269012451171875
aF2.201324462890625
aF0.033632345497608185
aF0.0011318475008010864
aF-0.026469687931239605
aa(lp27
F-15.808115005493164
aF358.67315673828125
aF-20.4924259185791
aF-0.055681951344013214
aF0.17419250309467316
aF0.012259691953659058
aF-3.1810312271118164
aF35.091766357421875
aF4.3669891357421875
aF-0.04966866131871939
aF0.04712526500225067
aF-0.010455258190631866
aF-6.402547836303711
aF79.62655639648438
aF6.584413528442383
aF-0.12682348489761353
aF0.08669160306453705
aF0.008727529784664512
aF0.040485382080078125
aF-9.443023681640625
aF2.149564743041992
aF0.02748616226017475
aF0.007558926939964294
aF-0.029638046165928245
aa(lp28
F-16.838577270507812
aF368.0082702636719
aF-18.820892333984375
aF-0.07257242500782013
aF0.16662022471427917
aF0.031193150207400322
aF-3.2357101440429688
aF32.893463134765625
aF4.70013427734375
aF-0.054477542638778687
aF0.03271353244781494
aF0.011792117729783058
aF-6.725292205810547
aF77.79302978515625
aF8.460464477539062
aF-0.12123935669660568
aF0.06797407567501068
aF0.023361975327134132
aF0.2538719177246094
aF-12.006103515625
aF0.9398040771484375
aF0.01228427141904831
aF-0.0025470107793807983
aF0.00022226013243198395
aa(lp29
F-18.081417083740234
aF376.73565673828125
aF-17.306901931762695
aF-0.08352984488010406
aF0.15140751004219055
aF0.039403174072504044
aF-3.3180856704711914
aF28.99676513671875
aF4.734384536743164
aF-0.042956460267305374
aF0.012064799666404724
aF0.026281626895070076
aF-7.226963043212891
aF75.55795288085938
aF9.395002365112305
aF-0.11210617423057556
aF0.04886484891176224
aF0.02447212766855955
aF0.5907917022705078
aF-17.564422607421875
aF0.07376670837402344
aF0.026193253695964813
aF-0.02473524957895279
aF0.0280911261215806
aa(lp30
F-18.877721786499023
aF381.7377014160156
aF-16.256229400634766
aF-0.08661048114299774
aF0.1637772023677826
aF0.041136156767606735
aF-3.0696067810058594
aF23.064544677734375
aF4.236196517944336
aF-0.030928529798984528
aF-0.010415300726890564
aF0.028876464813947678
aF-7.164305686950684
aF69.57904052734375
aF9.710277557373047
aF-0.09790441952645779
aF0.052572429180145264
aF0.023051215335726738
aF1.0250921249389648
aF-23.449951171875
aF-1.237884521484375
aF0.03604735992848873
aF-0.07340303063392639
aF0.03470171429216862
aa.