(lp0
(lp1
F14.254472732543945
aF82.3752212524414
aF18.043697357177734
aF-0.1755146086215973
aF0.15536262094974518
aF0.009870459325611591
aF-3.8484649658203125
aF1.359161376953125
aF-17.705917358398438
aF0.04831288754940033
aF0.05175170302391052
aF-0.009873532690107822
aF-10.131568908691406
aF-1.4007797241210938
aF-55.89352035522461
aF0.15426623821258545
aF0.13403046317398548
aF-0.011705254204571247
aF2.4346389770507812
aF4.119102478027344
aF20.481685638427734
aF-0.05764046311378479
aF-0.030527057126164436
aF-0.008041811175644398
aa(lp2
F13.247950553894043
aF83.77940368652344
aF13.05672836303711
aF-0.1646571159362793
aF0.1669696718454361
aF0.004806568380445242
aF-3.561577796936035
aF2.4316940307617188
aF-16.43268394470215
aF0.04102928936481476
aF0.04469667375087738
aF-0.01466761203482747
aF-9.212016105651855
aF1.891265869140625
aF-48.02301025390625
aF0.1391613483428955
aF0.12809723243117332
aF-0.015944790560752153
aF2.088860511779785
aF2.9721221923828125
aF15.157642364501953
aF-0.05710276961326599
aF-0.038703884929418564
aF-0.013390433508902788
aa(lp3
F12.417379379272461
aF86.35883331298828
aF8.794169425964355
aF-0.15583603084087372
aF0.17771829664707184
aF0.0007333913235925138
aF-3.068875312805176
aF4.626487731933594
aF-14.786177635192871
aF0.03357653319835663
aF0.03676873445510864
aF-0.014334119914565235
aF-8.980318069458008
aF5.060302734375
aF-45.579182624816895
aF0.11758463084697723
aF0.11734166368842125
aF-0.02203714573988691
aF2.8425674438476562
aF4.1926727294921875
aF16.006827354431152
aF-0.05043156445026398
aF-0.043804194778203964
aF-0.006631094089243561
aa(lp4
F11.598454475402832
aF90.22080993652344
aF5.4517316818237305
aF-0.14943057298660278
aF0.1827562302350998
aF0.002496515167877078
aF-2.6560182571411133
aF7.845588684082031
aF-12.591965675354004
aF0.026084035634994507
aF0.027393609285354614
aF-0.007373944157734513
aF-7.71066951751709
aF9.345893859863281
aF-36.63549518585205
aF0.0972566157579422
aF0.09934882074594498
aF-0.0156960126478225
aF2.3986330032348633
aF6.345283508300781
aF11.451563835144043
aF-0.045088544487953186
aF-0.04456160217523575
aF0.0009481243323534727
aa(lp5
F10.686190605163574
aF95.80523681640625
aF2.888474225997925
aF-0.16920073330402374
aF0.1863253116607666
aF-4.633711068890989e-05
aF-2.5617599487304688
aF12.025833129882812
aF-10.168254137039185
aF-0.004543617367744446
aF0.019355639815330505
aF-0.004852905491134152
aF-7.416747093200684
aF14.789176940917969
aF-32.86114048957825
aF0.05462676286697388
aF0.08271439373493195
aF-0.019790329126408324
aF2.293227195739746
aF9.262489318847656
aF12.524632215499878
aF-0.06371399760246277
aF-0.044003114104270935
aF0.01008451814414002
aa(lp6
F9.602232933044434
aF103.12559509277344
aF1.1529879570007324
aF-0.1870661973953247
aF0.18374577164649963
aF0.0003356898669153452
aF-2.8151464462280273
aF16.766761779785156
aF-7.641181468963623
aF-0.03123016655445099
aF0.006027474999427795
aF-0.0003977014566771686
aF-7.2072954177856445
aF21.77788543701172
aF-28.336424350738525
aF0.018620207905769348
aF0.06147277355194092
aF-0.019138490548357368
aF1.5770025253295898
aF11.755638122558594
aF13.05406141281128
aF-0.08108054101467133
aF-0.04941782355308533
aF0.01834308763500303
aa(lp7
F8.3390474319458
aF112.27542114257812
aF-0.12036794424057007
aF-0.20318761467933655
aF0.17628534138202667
aF0.0009578301687724888
aF-3.2594070434570312
aF22.054611206054688
aF-5.5720996260643005
aF-0.053757041692733765
aF-0.00647088885307312
aF-0.0015386849991045892
aF-7.147207260131836
aF30.543075561523438
aF-23.700715005397797
aF-0.013775050640106201
aF0.03533577919006348
aF-0.01410968106938526
aF0.6283931732177734
aF13.566146850585938
aF12.556515753269196
aF-0.09373903274536133
aF-0.04827755689620972
aF0.011032311071176082
aa(lp8
F6.946993350982666
aF123.2034912109375
aF-0.9901082515716553
aF-0.21766313910484314
aF0.16410589218139648
aF0.0011775216553360224
aF-3.739197254180908
aF27.39825439453125
aF-3.87858247756958
aF-0.0484624058008194
aF-0.022219419479370117
aF0.0012238587660249323
aF-7.307479381561279
aF40.828269958496094
aF-19.03380560874939
aF-0.04214853048324585
aF0.008743271231651306
aF-0.008692937670275569
aF-0.1709151268005371
aF13.968238830566406
aF11.27664065361023
aF-0.054776281118392944
aF-0.05318211019039154
aF0.011140655202325433
aa(lp9
F5.474684715270996
aF135.88833618164062
aF-1.740247130393982
aF-0.2324378490447998
aF0.15084820985794067
aF0.00755314901471138
aF-4.1275482177734375
aF32.76274108886719
aF-2.8932350873947144
aF-0.0453716516494751
aF-0.03289756178855896
aF0.007217459147796035
aF-7.773265838623047
aF52.10893249511719
aF-14.796975493431091
aF-0.06778073310852051
aF-0.016121461987495422
aF0.002746580634266138
aF-0.4818305969238281
aF13.416549682617188
aF9.010505318641663
aF-0.022962570190429688
aF-0.0496736615896225
aF0.011688337661325932
aa(lp10
F2.8780643939971924
aF164.1171875
aF-3.52190899848938
aF-0.2476997971534729
aF0.13958200812339783
aF0.016150349751114845
aF-5.460983037948608
aF51.841766357421875
aF-3.40154105424881
aF-0.04451218247413635
aF-0.036703333258628845
aF0.015192519582342356
aF-9.539314985275269
aF77.75835418701172
aF-12.316078424453735
aF-0.09186376631259918
aF-0.03813628852367401
aF0.015416958427522331
aF-1.3826510906219482
aF25.92517852783203
aF5.512996315956116
aF0.002839401364326477
aF-0.03527037799358368
aF0.014968080737162381
aa(lp11
F1.712665319442749
aF181.5537567138672
aF-4.179171562194824
aF-0.26149702072143555
aF0.1372685581445694
aF0.0210320595651865
aF-5.234328031539917
aF58.35026550292969
aF-3.189063310623169
aF-0.04383388161659241
aF-0.026837334036827087
aF0.019854537909850478
aF-9.885789155960083
aF91.33294677734375
aF-9.630903244018555
aF-0.11206644773483276
aF-0.045487672090530396
aF0.018535544397309422
aF-0.582866907119751
aF25.367584228515625
aF3.252776622772217
aF0.02439868450164795
aF-0.00818699598312378
aF0.021173531422391534
aa(lp12
F-0.18592482805252075
aF213.4727783203125
aF-6.004124164581299
aF-0.27650320529937744
aF0.13546626269817352
aF0.026645179837942123
aF-5.660609543323517
aF77.58444213867188
aF-4.263877034187317
aF-0.04406535625457764
aF-0.015381947159767151
aF0.019092030823230743
aF-10.872115433216095
aF117.66754150390625
aF-8.892598390579224
aF-0.1073024719953537
aF-0.05085904896259308
aF0.026691516948631033
aF-0.4491036534309387
aF37.5013427734375
aF0.36484432220458984
aF0.019171759486198425
aF0.020095154643058777
aF0.011492544697830454
aa(lp13
F-0.8022025227546692
aF231.0055694580078
aF-6.145071029663086
aF-0.29002654552459717
aF0.13050760328769684
aF0.032195448875427246
aF-3.6802669167518616
aF66.88838195800781
aF-2.623162031173706
aF-0.04232674837112427
aF-0.009074404835700989
aF0.0160450991243124
aF-10.404435455799103
aF127.87997436523438
aF-7.298058986663818
aF-0.10296034812927246
aF-0.053238168358802795
aF0.0318597590085119
aF3.0439016222953796
aF5.89678955078125
aF2.0517349243164062
aF0.018306851387023926
aF0.03508935868740082
aF0.00023043924011290073
aa(lp14
F-2.2857093811035156
aF261.4442443847656
aF-7.136570453643799
aF-0.30493396520614624
aF0.13137751817703247
aF0.039158742874860764
aF-3.9983747005462646
aF79.89048767089844
aF-2.9573988914489746
aF-0.04343694448471069
aF-0.005891039967536926
aF0.018126683309674263
aF-10.624756813049316
aF149.1688232421875
aF-7.016202509403229
aF-0.10174635052680969
aF-0.0449078232049942
aF0.038200912706088275
aF2.628007411956787
aF10.612152099609375
aF1.1014047265052795
aF0.014872461557388306
aF0.03312574326992035
aF-0.0019475460867397487
aa(lp15
F-1.9800807237625122
aF276.7923278808594
aF-4.029279708862305
aF-0.32084789872169495
aF0.1368246078491211
aF0.046513162553310394
aF-1.7941558957099915
aF63.319549560546875
aF1.9748444557189941
aF-0.044344693422317505
aF0.0013583451509475708
aF0.01986798271536827
aF-8.927074074745178
aF153.58883666992188
aF-3.0391714572906494
aF-0.1031847596168518
aF-0.02728128433227539
aF0.04533564089797437
aF5.338762283325195
aF-26.949737548828125
aF6.988860368728638
aF0.014495372772216797
aF0.029997974634170532
aF-0.00559967546723783
aa(lp16
F-0.7772332429885864
aF291.2181396484375
aF1.7187445163726807
aF-0.3571309447288513
aF0.13148853182792664
aF0.061258114874362946
aF0.024969279766082764
aF60.21257019042969
aF7.863815546035767
aF-0.06710439920425415
aF0.0009809285402297974
aF0.0290626659989357
aF-6.2519179582595825
aF155.32980346679688
aF3.4589916467666626
aF-0.12469309568405151
aF-0.019359678030014038
aF0.053704965859651566
aF6.301856517791748
aF-34.9046630859375
aF12.26863944530487
aF-0.009515702724456787
aF0.021321535110473633
aF0.004420366138219833
aa(lp17
F-1.7642475366592407
aF305.28460693359375
aF1.2289117574691772
aF-0.38417738676071167
aF0.1276768147945404
aF0.06728341430425644
aF0.5214618444442749
aF43.840362548828125
aF8.365482211112976
aF-0.07924342155456543
aF-0.0037007033824920654
aF0.028124671429395676
aF-4.642311930656433
aF141.16741943359375
aF4.750820755958557
aF-0.13647758960723877
aF-0.011905193328857422
aF0.051133064553141594
aF5.685235619544983
aF-53.4866943359375
aF11.980143666267395
aF-0.02200925350189209
aF0.004503786563873291
aF0.005116278305649757
aa(lp18
F-3.442157745361328
aF318.74932861328125
aF-1.6756646633148193
aF-0.4062684178352356
aF0.13361501693725586
aF0.07254252582788467
aF-1.462077021598816
aF41.957000732421875
aF2.3536150455474854
aF-0.08542051911354065
aF-0.0032095909118652344
aF0.02602936327457428
aF-5.154823064804077
aF137.19557189941406
aF2.503506898880005
aF-0.14477139711380005
aF-0.0036535412073135376
aF0.051510466262698174
aF2.2306690216064453
aF-53.28157043457031
aF2.203723192214966
aF-0.02606964111328125
aF-0.002765640616416931
aF0.000548260286450386
aa(lp19
F-4.915888786315918
aF332.68896484375
aF-3.717224359512329
aF-0.4278434216976166
aF0.1556338667869568
aF0.06933972239494324
aF-4.1386555433273315
aF41.4708251953125
aF-5.43596887588501
aF-0.07071247696876526
aF0.02414533495903015
aF0.008081607520580292
aF-4.729963958263397
aF119.2161865234375
aF2.2868998050689697
aF-0.15134021639823914
aF0.020167604088783264
aF0.042694542557001114
aF-3.547347128391266
aF-36.2745361328125
aF-13.15883755683899
aF0.009915262460708618
aF0.02812306582927704
aF-0.02653132751584053
aa(lp20
F-6.153995990753174
aF345.8487548828125
aF-3.879964828491211
aF-0.4479445219039917
aF0.17262740433216095
aF0.07068168371915817
aF-4.389748454093933
aF40.56414794921875
aF-5.108876585960388
aF-0.06376713514328003
aF0.044950589537620544
aF0.0033982694149017334
aF-5.351793467998505
aF114.84318542480469
aF2.265106201171875
aF-0.15791797637939453
aF0.04211980104446411
aF0.038486234843730927
aF-3.4277034401893616
aF-33.71488952636719
aF-12.482859373092651
aF0.030383706092834473
aF0.04778137803077698
aF-0.03168969601392746
aa(lp21
F-7.455242156982422
aF358.82354736328125
aF-2.9556353092193604
aF-0.4580945670604706
aF0.1807987242937088
aF0.06264469772577286
aF-4.013084411621094
aF40.07421875
aF-1.279970645904541
aF-0.051826149225234985
aF0.04718370735645294
aF-0.009897828102111816
aF-5.169532775878906
aF97.37930297851562
aF4.1809351444244385
aF-0.15316060185432434
aF0.04942120611667633
aF0.023485954850912094
aF-2.8566360473632812
aF-17.230865478515625
aF-6.7408764362335205
aF0.04950830340385437
aF0.04494620859622955
aF-0.04328161105513573
aa(lp22
F-8.96770191192627
aF371.2276916503906
aF-2.1302287578582764
aF-0.46887925267219543
aF0.19983093440532684
aF0.06032925099134445
aF-4.051813125610352
aF38.538726806640625
aF1.5869956016540527
aF-0.04103583097457886
aF0.044197067618370056
aF-0.009010471403598785
aF-6.987621188163757
aF94.43536376953125
aF1.8990509510040283
aF-0.1480313539505005
aF0.06300632655620575
aF0.013816088438034058
aF-1.1160050630569458
aF-17.35791015625
aF1.2749402523040771
aF0.06595969200134277
aF0.025387808680534363
aF-0.03183703124523163
aa(lp23
F-10.300643920898438
aF383.1666564941406
aF-0.828102171421051
aF-0.4687546491622925
aF0.19588923454284668
aF0.05777738243341446
aF-4.146647930145264
aF37.317901611328125
aF3.05186265707016
aF-0.02081012725830078
aF0.02326183021068573
aF-0.012904301285743713
aF-9.523410677909851
aF91.94851684570312
aF-2.5468466877937317
aF-0.11162370443344116
aF0.06440070271492004
aF-0.0034807324409484863
aF1.2301148176193237
aF-17.312713623046875
aF8.650572001934052
aF0.0700034499168396
aF-0.017877042293548584
aF-0.02232787013053894
aa(lp24
F-11.833297729492188
aF395.2028503417969
aF-0.4270668029785156
aF-0.4734688699245453
aF0.20308509469032288
aF0.06603316217660904
aF-4.378055572509766
aF36.379302978515625
aF2.5285685062408447
aF-0.015374302864074707
aF0.022286370396614075
aF0.0033884644508361816
aF-10.069050192832947
aF89.91824340820312
aF-1.6559785604476929
aF-0.08929148316383362
aF0.07540827989578247
aF-0.0012502521276474
aF1.3129390478134155
aF-17.159637451171875
aF6.713115572929382
aF0.058542877435684204
aF-0.03083553910255432
aF0.008027181029319763
aa(lp25
F-13.006104469299316
aF406.4229736328125
aF0.44516539573669434
aF-0.4843164086341858
aF0.23255963623523712
aF0.06749466061592102
aF-4.038402557373047
aF35.195281982421875
aF2.5753941535949707
aF-0.015437155961990356
aF0.03272870182991028
aF0.007165409624576569
aF-9.563946723937988
aF87.67364501953125
aF2.1208300590515137
aF-0.0780479907989502
aF0.09894461929798126
aF-0.0050478652119636536
aF1.4871416091918945
aF-17.2830810546875
aF3.0299582481384277
aF0.04717367887496948
aF-0.033487215638160706
aF0.01937868446111679
aa(lp26
F-13.716099739074707
aF414.0474548339844
aF1.31820809841156
aF-0.4936361610889435
aF0.23436404764652252
aF0.0903187170624733
aF-3.4154558181762695
aF30.88079833984375
aF2.146310269832611
aF-0.024881511926651
aF0.03847481310367584
aF0.03254133462905884
aF-8.800210952758789
aF81.35848999023438
aF5.035432457923889
aF-0.0657927393913269
aF0.07873018085956573
aF0.02097899466753006
aF1.96929931640625
aF-19.596893310546875
aF-0.742811918258667
aF0.016029715538024902
aF-0.0017805546522140503
aF0.044103674590587616
aa(lp27
F-14.604639053344727
aF426.39404296875
aF2.654325485229492
aF-0.4754115343093872
aF0.2239392101764679
aF0.10960981249809265
aF-2.771341323852539
aF31.191192626953125
aF3.081392288208008
aF-0.001942664384841919
aF0.02085411548614502
aF0.04357665032148361
aF-8.450643062591553
aF80.5452880859375
aF6.534290313720703
aF-0.027467012405395508
aF0.051311805844306946
aF0.03892812877893448
aF2.9079604148864746
aF-18.16290283203125
aF-0.3715057373046875
aF0.02358168363571167
aF-0.009603574872016907
aF0.048225171864032745
aa(lp28
F-15.241901397705078
aF435.9433898925781
aF3.6432814598083496
aF-0.45995110273361206
aF0.22779296338558197
aF0.10998091846704483
aF-2.2357969284057617
aF29.520416259765625
aF3.1981160640716553
aF0.02436530590057373
aF-0.004766672849655151
aF0.04248625785112381
aF-7.786659240722656
aF77.11984252929688
aF6.59891676902771
aF-0.0018565356731414795
aF0.04699423909187317
aF0.04733622074127197
aF3.315065383911133
aF-18.079010009765625
aF-0.20268464088439941
aF0.05058714747428894
aF-0.05652758479118347
aF0.03763629496097565
aa(lp29
F-15.650376319885254
aF445.96026611328125
aF5.007871627807617
aF-0.4317062497138977
aF0.18263393640518188
aF0.1110476478934288
aF-1.9342765808105469
aF31.912811279296875
aF3.689663529396057
aF0.061929911375045776
aF-0.05173011124134064
aF0.020728930830955505
aF-6.682674407958984
aF74.73257446289062
aF7.1381003856658936
aF0.03717300295829773
aF-0.01719699800014496
aF0.05071839690208435
aF2.8141212463378906
aF-10.906951904296875
aF0.2412266731262207
aF0.08668681979179382
aF-0.08626322448253632
aF-0.00926053524017334
aa(lp30
F-15.588786125183105
aF452.4379577636719
aF6.394067287445068
aF-0.4175843298435211
aF0.16688500344753265
aF0.11188851296901703
aF-0.9841470718383789
aF26.043914794921875
aF3.739741802215576
aF0.05782720446586609
aF-0.05705420672893524
aF0.0022787004709243774
aF-5.288142204284668
aF69.27130126953125
aF7.222169458866119
aF0.05117031931877136
aF-0.029004231095314026
aF0.05411113053560257
aF3.31984806060791
aF-17.1834716796875
aF0.25731414556503296
aF0.06448408961296082
aF-0.08510418236255646
aF-0.049553729593753815
aa.