(lp0
(lp1
F-35.266841888427734
aF108.46092224121094
aF23.884506225585938
aF-0.34507620334625244
aF0.10798268765211105
aF0.1745016872882843
aF-3.728639602661133
aF-2.498321533203125
aF-18.752033233642578
aF0.007968693971633911
aF0.010261200368404388
aF-0.011607557535171509
aF-9.943286895751953
aF-7.205818176269531
aF-42.177398681640625
aF0.03181979060173035
aF0.0042086318135261536
aF-0.015065222978591919
aF2.4860076904296875
aF2.2091751098632812
aF4.673332214355469
aF-0.015882402658462524
aF0.016313768923282623
aF-0.008149892091751099
aa(lp2
F-36.52580261230469
aF108.84906005859375
aF17.817394256591797
aF-0.3432874083518982
aF0.11232884228229523
aF0.17010217905044556
aF-3.8270301818847656
aF-0.9357452392578125
aF-18.568634033203125
aF0.006627410650253296
aF0.013443432748317719
aF-0.01443733274936676
aF-9.025104522705078
aF-5.791358947753906
aF-42.48196029663086
aF0.02639669179916382
aF0.011258445680141449
aF-0.020575761795043945
aF1.3710441589355469
aF3.9198684692382812
aF5.344692230224609
aF-0.013141870498657227
aF0.015628419816493988
aF-0.008298903703689575
aa(lp3
F-37.66618728637695
aF110.29207611083984
aF12.173210144042969
aF-0.34212347865104675
aF0.11745112389326096
aF0.1588648110628128
aF-3.6524734497070312
aF1.3837051391601562
aF-17.85053253173828
aF0.005107104778289795
aF0.014139801263809204
aF-0.018496602773666382
aF-8.506818771362305
aF-3.00042724609375
aF-42.574039459228516
aF0.02070668339729309
aF0.01994854211807251
aF-0.03130719065666199
aF1.2018718719482422
aF5.7678375244140625
aF6.872974395751953
aF-0.010492473840713501
aF0.008331060409545898
aF-0.005686014890670776
aa(lp4
F-38.779239654541016
aF112.98905944824219
aF6.882115840911865
aF-0.34131431579589844
aF0.12183867394924164
aF0.14886876940727234
aF-3.5123977661132812
aF4.52813720703125
aF-17.002390384674072
aF0.003761887550354004
aF0.013855986297130585
aF-0.025632917881011963
aF-8.403251647949219
aF0.8771438598632812
aF-41.99171686172485
aF0.01593160629272461
aF0.02468103915452957
aF-0.03947041928768158
aF1.3784561157226562
aF8.179130554199219
aF7.986936092376709
aF-0.008407831192016602
aF0.003030933439731598
aF-0.011795416474342346
aa(lp5
F-39.89930725097656
aF117.36296081542969
aF2.318725347518921
aF-0.3400232195854187
aF0.12306952476501465
aF0.1424151211977005
aF-3.373504638671875
aF8.513900756835938
aF-15.498668909072876
aF0.003264188766479492
aF0.010740682482719421
aF-0.027687057852745056
aF-8.361104965209961
aF6.403717041015625
aF-40.317814111709595
aF0.013021677732467651
aF0.025348037481307983
aF-0.04369412362575531
aF1.614095687866211
aF10.62408447265625
aF9.320476293563843
aF-0.006493300199508667
aF-0.0038666725158691406
aF-0.011679992079734802
aa(lp6
F-41.32352066040039
aF123.56231689453125
aF-1.6003994941711426
aF-0.3394736051559448
aF0.12540258467197418
aF0.14237339794635773
aF-3.6573333740234375
aF13.270240783691406
aF-13.773609638214111
aF0.0026498734951019287
aF0.007951460778713226
aF-0.016491413116455078
aF-8.624748229980469
aF13.777511596679688
aF-37.986427783966064
aF0.010441213846206665
aF0.026517175137996674
aF-0.04216611385345459
aF1.3100814819335938
aF12.762969970703125
aF10.439208507537842
aF-0.005141466856002808
aF-0.010614253580570221
aF0.009183287620544434
aa(lp7
F-43.061553955078125
aF131.5069122314453
aF-4.873059272766113
aF-0.33877095580101013
aF0.13031183183193207
aF0.1378600001335144
aF-4.282314300537109
aF18.517852783203125
aF-11.755175113677979
aF0.0025433599948883057
aF0.00847315788269043
aF-0.011008769273757935
aF-9.047840118408203
aF22.598541259765625
aF-34.89680194854736
aF0.008459627628326416
aF0.027000509202480316
aF-0.03950141370296478
aF0.4832115173339844
aF14.437164306640625
aF11.386451721191406
aF-0.0033729076385498047
aF-0.010054193437099457
aF0.017483875155448914
aa(lp8
F-45.27519607543945
aF140.94778442382812
aF-7.373456001281738
aF-0.3376055359840393
aF0.13472609221935272
aF0.13238434493541718
aF-5.375888824462891
aF23.584823608398438
aF-9.69218134880066
aF0.0024176836013793945
aF0.011656567454338074
aF-0.010030776262283325
aF-10.008354187011719
aF32.48686218261719
aF-31.257962226867676
aF0.007470667362213135
aF0.02674340456724167
aF-0.042117342352867126
aF-0.7434234619140625
aF14.682785034179688
aF11.873599529266357
aF-0.0026353001594543457
aF-0.0034302696585655212
aF0.022055789828300476
aa(lp9
F-47.710670471191406
aF152.26840209960938
aF-9.115161895751953
aF-0.33694493770599365
aF0.1390007585287094
aF0.1318945586681366
aF-6.387149810791016
aF28.706085205078125
aF-7.5147624015808105
aF0.002528667449951172
aF0.01359817385673523
aF-0.01047883927822113
aF-11.184867858886719
aF43.419342041015625
aF-26.93255615234375
aF0.006342470645904541
aF0.026671916246414185
aF-0.03820762038230896
aF-1.5894317626953125
aF13.992828369140625
aF11.903031349182129
aF-0.0012851357460021973
aF0.0005244314670562744
aF0.0172499418258667
aa(lp10
F-52.322723388671875
aF175.43942260742188
aF-11.47104263305664
aF-0.3354117274284363
aF0.14011381566524506
aF0.13217231631278992
aF-9.26116943359375
aF43.93251037597656
aF-6.597983360290527
aF0.0033592283725738525
aF0.009801983833312988
aF-0.005687683820724487
aF-14.656536102294922
aF65.14734649658203
aF-23.64425277709961
aF0.006711751222610474
aF0.0226626917719841
aF-0.026692494750022888
aF-3.865802764892578
aF22.717674255371094
aF10.448286056518555
aF6.705522537231445e-06
aF-0.0030587241053581238
aF0.015317127108573914
aa(lp11
F-54.782135009765625
aF188.90589904785156
aF-12.211921691894531
aF-0.33497196435928345
aF0.1406327337026596
aF0.13553665578365326
aF-9.506938934326172
aF47.95811462402344
aF-4.838465690612793
aF0.0026335716247558594
aF0.005906641483306885
aF0.003152310848236084
aF-16.00289535522461
aF75.91683959960938
aF-19.094037532806396
aF0.00634235143661499
aF0.01879405975341797
aF-0.01333211362361908
aF-3.0109825134277344
aF19.9993896484375
aF9.41710615158081
aF-0.0010752081871032715
aF-0.006980776786804199
aF0.019636735320091248
aa(lp12
F-59.94429397583008
aF213.57725524902344
aF-13.811944961547852
aF-0.3315691649913788
aF0.13734498620033264
aF0.13468433916568756
aF-12.233623504638672
aF61.30885314941406
aF-4.696783065795898
aF0.005375772714614868
aF-0.00165577232837677
aF0.0027897804975509644
aF-20.044986724853516
aF96.21429443359375
aF-16.130670309066772
aF0.008454054594039917
aF0.014275461435317993
aF-0.0077307820320129395
aF-4.422260284423828
aF26.403411865234375
aF6.737104177474976
aF0.0022974908351898193
aF-0.017587006092071533
aF0.013310343027114868
aa(lp13
F-62.55702590942383
aF227.1660614013672
aF-13.630114555358887
aF-0.32862353324890137
aF0.13879430294036865
aF0.13218402862548828
aF-10.234302520751953
aF51.72663879394531
aF-2.159071922302246
aF0.006788194179534912
aF-0.0013195127248764038
aF1.1712312698364258e-05
aF-21.233505249023438
aF103.60374450683594
aF-12.029715061187744
aF0.010850071907043457
aF0.01339171826839447
aF-0.010189369320869446
aF0.7649002075195312
aF-0.1504669189453125
aF7.711571216583252
aF0.002726316452026367
aF-0.016030743718147278
aF0.010212793946266174
aa(lp14
F-65.4531021118164
aF239.94241333007812
aF-14.96544075012207
aF-0.32577499747276306
aF0.13581141829490662
aF0.13595037162303925
aF-10.670967102050781
aF51.03651428222656
aF-2.753519058227539
aF0.009196966886520386
aF-0.004821315407752991
aF0.00041371583938598633
aF-22.39154815673828
aF108.43550109863281
aF-10.092381477355957
aF0.01299595832824707
aF0.005499586462974548
aF-0.0019096285104751587
aF1.0496139526367188
aF-6.3624725341796875
aF4.585343360900879
aF0.005397975444793701
aF-0.01514221727848053
aF0.0027370601892471313
aa(lp15
F-67.95885467529297
aF252.3686981201172
aF-15.329024314880371
aF-0.326336145401001
aF0.13852937519550323
aF0.1429688036441803
aF-8.01456069946289
aF38.79144287109375
aF-1.5170793533325195
aF0.005233019590377808
aF0.0011843889951705933
aF0.008284464478492737
aF-22.683658599853516
aF111.42091369628906
aF-7.955568313598633
aF0.01126939058303833
aF0.0038032829761505127
aF0.010584458708763123
aF6.654537200927734
aF-33.83802795410156
aF4.921409606933594
aF-0.0008033514022827148
aF-0.0014345049858093262
aF0.005984470248222351
aa(lp16
F-69.99227142333984
aF263.2326354980469
aF-15.954668998718262
aF-0.330025851726532
aF0.14264951646327972
aF0.15796439349651337
aF-7.435245513916016
aF36.06657409667969
aF-2.324554443359375
aF-0.0014023184776306152
aF0.0038552135229110718
aF0.025780364871025085
aF-22.281600952148438
aF110.9642333984375
aF-6.839507102966309
aF0.00691908597946167
aF0.0036487579345703125
aF0.02606983482837677
aF7.411109924316406
aF-38.831085205078125
aF2.1903982162475586
aF-0.0097237229347229
aF0.004061669111251831
aF0.0254908949136734
aa(lp17
F-72.20819854736328
aF275.4140319824219
aF-16.7369327545166
aF-0.3358475863933563
aF0.14761687815189362
aF0.17522776126861572
aF-6.755096435546875
aF35.47161865234375
aF-1.7714920043945312
aF-0.010072588920593262
aF0.011805459856987
aF0.03927738964557648
aF-19.885475158691406
aF99.974609375
aF-5.265890121459961
aF-0.00043585896492004395
aF0.00750306248664856
aF0.043055444955825806
aF6.375282287597656
aF-29.0313720703125
aF1.7229061126708984
aF-0.01970931887626648
aF0.01610785722732544
aF0.03549933433532715
aa(lp18
F-74.42967224121094
aF287.43267822265625
aF-16.950815200805664
aF-0.34448477625846863
aF0.15521849691867828
aF0.1963897943496704
aF-6.470817565917969
aF35.06398010253906
aF-1.621790885925293
aF-0.01814863085746765
aF0.01668912172317505
aF0.05342099070549011
aF-19.647537231445312
aF98.52677917480469
aF-4.738893508911133
aF-0.00951281189918518
aF0.014585763216018677
aF0.06085313856601715
aF6.705902099609375
aF-28.398818969726562
aF1.4953117370605469
aF-0.026784449815750122
aF0.01879248023033142
aF0.045988842844963074
aa(lp19
F-74.08087921142578
aF297.79278564453125
aF-9.513954162597656
aF-0.354612797498703
aF0.17155063152313232
aF0.21281731128692627
aF-4.0886077880859375
aF34.560150146484375
aF6.4407148361206055
aF-0.02458694577217102
aF0.0289011150598526
aF0.0548529177904129
aF-14.136585235595703
aF84.21553039550781
aF4.297990798950195
aF-0.02304363250732422
aF0.03420564532279968
aF0.07813297212123871
aF5.959369659423828
aF-15.095230102539062
aF8.583438873291016
aF-0.026130259037017822
aF0.023596584796905518
aF0.0315728634595871
aa(lp20
F-77.28834533691406
aF309.37689208984375
aF-11.956156730651855
aF-0.3584783673286438
aF0.18105989694595337
aF0.22130104899406433
aF-5.080146789550781
aF33.962860107421875
aF4.780776023864746
aF-0.022630780935287476
aF0.03344301879405975
aF0.04607328772544861
aF-14.731319427490234
aF82.21083068847656
aF1.6739578247070312
aF-0.02985483407974243
aF0.04226559400558472
aF0.08911702036857605
aF4.571025848388672
aF-14.285110473632812
aF7.887594223022461
aF-0.01540672779083252
aF0.02462044358253479
aF0.003029555082321167
aa(lp21
F-79.720458984375
aF322.222900390625
aF-10.629368782043457
aF-0.3633963167667389
aF0.18935468792915344
aF0.23546990752220154
aF-5.2907867431640625
aF34.79022216796875
aF6.321446418762207
aF-0.018911540508270264
aF0.03413619101047516
aF0.03908011317253113
aF-14.267356872558594
aF82.28048706054688
aF4.336071968078613
aF-0.03762131929397583
aF0.053543269634246826
aF0.09951953589916229
aF3.6857833862304688
aF-12.700042724609375
aF8.3068208694458
aF-0.00020176172256469727
aF0.014729112386703491
aF-0.021359309554100037
aa(lp22
F-83.3353042602539
aF334.8421936035156
aF-12.980414390563965
aF-0.3697759807109833
aF0.20132377743721008
aF0.25163498520851135
aF-9.254425048828125
aF37.049407958984375
aF-3.4664602279663086
aF-0.015163183212280273
aF0.02977314591407776
aF0.03881767392158508
aF-15.376449584960938
aF82.47349548339844
aF2.3486099243164062
aF-0.0434398353099823
aF0.06279440224170685
aF0.10866618156433105
aF-3.1324005126953125
aF-8.374679565429688
aF-9.281530380249023
aF0.013113468885421753
aF-0.0032481104135513306
aF-0.03103083372116089
aa(lp23
F-86.43110656738281
aF347.4129943847656
aF-13.11737060546875
aF-0.36981743574142456
aF0.2072189599275589
aF0.2562795579433441
aF-9.14276123046875
aF38.036102294921875
aF-1.1612138748168945
aF-0.011339068412780762
aF0.02615906298160553
aF0.034978508949279785
aF-16.43883514404297
aF84.18035888671875
aF2.8372983932495117
aF-0.03979158401489258
aF0.06456944346427917
aF0.09831516444683075
aF-1.8466873168945312
aF-8.108154296875
aF-5.159726142883301
aF0.017113447189331055
aF-0.012251317501068115
aF-0.02835814654827118
aa(lp24
F-89.25431823730469
aF359.7701721191406
aF-12.112516403198242
aF-0.3718944191932678
aF0.21787653863430023
aF0.2631753385066986
aF-9.533859252929688
aF37.547271728515625
aF-1.4831476211547852
aF-0.00849810242652893
aF0.02852185070514679
aF0.02770543098449707
aF-17.046119689941406
aF84.35614013671875
aF4.624416351318359
aF-0.0360468327999115
aF0.07025966048240662
aF0.08794757723808289
aF-2.0215988159179688
aF-9.2615966796875
aF-7.59071159362793
aF0.019050627946853638
aF-0.013215959072113037
aF-0.032536715269088745
aa(lp25
F-92.02918243408203
aF372.0335388183594
aF-11.448640823364258
aF-0.3798951804637909
aF0.2337816059589386
aF0.2806634306907654
aF-8.693878173828125
aF37.19134521484375
aF1.531773567199707
aF-0.010119199752807617
aF0.032457828521728516
aF0.02902844548225403
aF-17.599510192871094
aF84.60086059570312
aF5.502174377441406
aF-0.035410404205322266
aF0.07856310904026031
aF0.08427363634109497
aF0.21175384521484375
aF-10.218170166015625
aF-2.438627243041992
aF0.015172004699707031
aF-0.013647451996803284
aF-0.026216745376586914
aa(lp26
F-94.54619598388672
aF383.9248046875
aF-10.226460456848145
aF-0.3817289173603058
aF0.23982968926429749
aF0.2938290238380432
aF-8.115089416503906
aF36.511810302734375
aF2.8909101486206055
aF-0.011911481618881226
aF0.032610729336738586
aF0.0375494658946991
aF-20.465316772460938
aF86.13201904296875
aF-0.7125062942504883
aF-0.027116119861602783
aF0.06827905774116516
aF0.08101171255111694
aF4.235137939453125
aF-13.1083984375
aF6.494326591491699
aF0.003293156623840332
aF-0.0030575990676879883
aF-0.00591278076171875
aa(lp27
F-96.39482116699219
aF392.9135437011719
aF-8.739904403686523
aF-0.3830467462539673
aF0.23179899156093597
aF0.32766517996788025
aF-7.1405029296875
aF33.14337158203125
aF3.3726119995117188
aF-0.011152327060699463
aF0.013922452926635742
aF0.06448984146118164
aF-19.106475830078125
aF83.53665161132812
aF3.216252326965332
aF-0.024568378925323486
aF0.050739094614982605
aF0.10636413097381592
aF4.825469970703125
aF-17.249908447265625
aF3.5289716720581055
aF0.0022637248039245605
aF-0.02289418876171112
aF0.022615551948547363
aa(lp28
F-98.88907623291016
aF404.9134826660156
aF-7.133890628814697
aF-0.38298383355140686
aF0.24212944507598877
aF0.3385131061077118
aF-6.859893798828125
aF32.87994384765625
aF4.3147501945495605
aF-0.003088653087615967
aF0.008347839117050171
aF0.05784967541694641
aF-19.168617248535156
aF82.69058227539062
aF3.4954781532287598
aF-0.01958751678466797
aF0.05277475714683533
aF0.10304319858551025
aF5.448829650878906
aF-16.930694580078125
aF5.134022235870361
aF0.013410210609436035
aF-0.036079078912734985
aF0.012656152248382568
aa(lp29
F-101.24400329589844
aF417.2207946777344
aF-5.878901481628418
aF-0.37526923418045044
aF0.2382441908121109
aF0.3409152626991272
aF-6.697807312011719
aF33.295989990234375
aF4.347558975219727
aF0.006459683179855347
aF-0.0015854984521865845
aF0.047086238861083984
aF-17.90869903564453
aF82.37860107421875
aF7.101512908935547
aF-0.005493253469467163
aF0.03692041337490082
aF0.08928027749061584
aF4.513084411621094
aF-15.78662109375
aF1.5936050415039062
aF0.018412619829177856
aF-0.04009141027927399
aF0.004892200231552124
aa(lp30
F-102.71858215332031
aF429.31329345703125
aF-3.646697521209717
aF-0.38328415155410767
aF0.22644172608852386
aF0.3350432515144348
aF-6.323760986328125
aF36.399749755859375
aF5.093206882476807
aF-0.00023740530014038086
aF-0.005357265472412109
aF0.007378071546554565
aF-16.2874755859375
aF81.90029907226562
aF9.470673084259033
aF-0.013466715812683105
aF0.019222766160964966
aF0.0787636935710907
aF3.63995361328125
aF-9.100799560546875
aF0.7157406806945801
aF0.012991905212402344
aF-0.029937297105789185
aF-0.06400755047798157
aa.