(lp0
(lp1
F0.6263103485107422
aF-0.513092041015625
aF-0.0059986114501953125
aF-0.005088835954666138
aF-0.00844961404800415
aF-0.007368981838226318
aF1.2899436950683594
aF-7.842018127441406
aF0.6427593231201172
aF-0.01264694333076477
aF-0.022303670644760132
aF-0.010439157485961914
aF-0.037322998046875
aF6.815834045410156
aF-0.6547565460205078
aF0.002469271421432495
aF0.005404442548751831
aF-0.004298806190490723
aF-17.458118438720703
aF115.19050598144531
aF-9.055293083190918
aF-0.3104546070098877
aF0.25980010628700256
aF0.16917048394680023
aa(lp2
F0.5634498596191406
aF1.09747314453125
aF-0.2811603546142578
aF-0.005513697862625122
aF-0.009186595678329468
aF-0.0071947574615478516
aF1.288412094116211
aF-4.660255432128906
aF0.28126049041748047
aF-0.012536793947219849
aF-0.022292256355285645
aF-0.01226109266281128
aF-0.1615123748779297
aF6.855201721191406
aF-0.8435811996459961
aF0.0015093982219696045
aF0.003919064998626709
aF-0.002128422260284424
aF-17.29460334777832
aF116.02552795410156
aF-9.182172775268555
aF-0.31240537762641907
aF0.2557738125324249
aF0.16710972785949707
aa(lp3
F0.6074466705322266
aF3.4031524658203125
aF-0.40517139434814453
aF-0.00602760910987854
aF-0.009422898292541504
aF-0.0070707350969314575
aF1.4113941192626953
aF-0.5902633666992188
aF0.06346607208251953
aF-0.012596935033798218
aF-0.022557616233825684
aF-0.013943031430244446
aF-0.1965007781982422
aF7.396568298339844
aF-0.8738088607788086
aF0.0005417168140411377
aF0.0037118196487426758
aF-0.00019843876361846924
aF-17.050092697143555
aF118.11720275878906
aF-9.32833194732666
aF-0.3145935833454132
aF0.25272881984710693
aF0.1649305671453476
aa(lp4
F0.7209320068359375
aF6.366096496582031
aF-0.5294809341430664
aF-0.006551802158355713
aF-0.009246110916137695
aF-0.006296679377555847
aF1.5228233337402344
aF4.600471496582031
aF-0.4157295227050781
aF-0.013250499963760376
aF-0.021913349628448486
aF-0.01437002420425415
aF-0.08095932006835938
aF8.131721496582031
aF-0.6432323455810547
aF0.0001468956470489502
aF0.0034211277961730957
aF0.001776665449142456
aF-16.737186431884766
aF121.55660247802734
aF-9.584774017333984
aF-0.3170064091682434
aF0.25055399537086487
aF0.16287380456924438
aa(lp5
F0.9452800750732422
aF10.333320617675781
aF-0.6912240982055664
aF-0.004710018634796143
aF-0.006920740008354187
aF-0.006474494934082031
aF1.7351055145263672
aF10.655250549316406
aF-0.8241024017333984
aF-0.011749625205993652
aF-0.019396647810935974
aF-0.01590423285961151
aF0.1554546356201172
aF10.011390686035156
aF-0.5583457946777344
aF0.002329587936401367
aF0.0055551677942276
aF0.0029552429914474487
aF-16.349323272705078
aF126.35884857177734
aF-9.873396873474121
aF-0.3171153962612152
aF0.24885307252407074
aF0.16063523292541504
aa(lp6
F1.0758142471313477
aF13.14697265625
aF-0.7340688705444336
aF-0.006336092948913574
aF-0.006394222378730774
aF-0.005985841155052185
aF1.883774757385254
aF16.33612060546875
aF-1.1613883972167969
aF-0.014037996530532837
aF-0.018625810742378235
aF-0.015359759330749512
aF0.2678537368774414
aF9.95782470703125
aF-0.3067493438720703
aF0.0013658106327056885
aF0.005837365984916687
aF0.0033880770206451416
aF-15.974278450012207
aF131.26417541503906
aF-10.062400817871094
aF-0.3209296762943268
aF0.24633459746837616
aF0.1589447259902954
aa(lp7
F1.4159479141235352
aF26.25756072998047
aF-1.7209186553955078
aF-0.007547557353973389
aF-0.006419256329536438
aF-0.008232131600379944
aF2.336300849914551
aF33.10011291503906
aF-2.3825321197509766
aF-0.01598799228668213
aF-0.018016979098320007
aF-0.017359629273414612
aF0.49559497833251953
aF19.415008544921875
aF-1.059305191040039
aF0.0008928775787353516
aF0.005178466439247131
aF0.0008953660726547241
aF-15.32123851776123
aF147.8141632080078
aF-11.305692672729492
aF-0.3245539665222168
aF0.24413473904132843
aF0.15464167296886444
aa(lp8
F1.2165651321411133
aF29.921409606933594
aF-1.9969635009765625
aF-0.01372954249382019
aF-0.005733385682106018
aF-0.010258659720420837
aF2.3253602981567383
aF41.089752197265625
aF-2.8150672912597656
aF-0.020390331745147705
aF-0.016680419445037842
aF-0.01879391074180603
aF0.10776996612548828
aF18.753067016601562
aF-1.1788597106933594
aF-0.007068753242492676
aF0.005213648080825806
aF-0.0017234086990356445
aF-15.132758140563965
aF156.28025817871094
aF-11.870360374450684
aF-0.3308449387550354
aF0.24311968684196472
aF0.1503765732049942
aa(lp9
F1.0406875610351562
aF32.99726867675781
aF-2.1559267044067383
aF-0.014683127403259277
aF-0.004386395215988159
aF-0.013568922877311707
aF2.3610124588012695
aF48.23591613769531
aF-3.0361547470092773
aF-0.023207426071166992
aF-0.013825610280036926
aF-0.021733924746513367
aF-0.27963733673095703
aF17.758621215820312
aF-1.2756986618041992
aF-0.0061588287353515625
aF0.005052819848060608
aF-0.005403921008110046
aF-14.93359088897705
aF164.26144409179688
aF-12.218327522277832
aF-0.33561280369758606
aF0.241948202252388
aF0.1453758031129837
aa(lp10
F0.5521059036254883
aF24.420394897460938
aF-1.195673942565918
aF-0.014523804187774658
aF-0.003925353288650513
aF-0.015290051698684692
aF2.2809600830078125
aF54.11735534667969
aF-3.17303466796875
aF-0.024484187364578247
aF-0.012519434094429016
aF-0.025578945875167847
aF-1.176748275756836
aF-5.2765655517578125
aF0.7816867828369141
aF-0.004563421010971069
aF0.004668727517127991
aF-0.005001157522201538
aF-14.769132614135742
aF172.23455810546875
aF-12.50136661529541
aF-0.33907777070999146
aF0.24020938575267792
aF0.13935162127017975
aa(lp11
F0.4386873245239258
aF24.129684448242188
aF-1.0622329711914062
aF-0.011166244745254517
aF-0.002942591905593872
aF-0.016092374920845032
aF2.0431156158447266
aF58.85334014892578
aF-3.3478193283081055
aF-0.02500477433204651
aF-0.010376900434494019
aF-0.028589606285095215
aF-1.165740966796875
aF-10.593971252441406
aF1.223353385925293
aF0.0026722848415374756
aF0.004491716623306274
aF-0.0035951435565948486
aF-14.694070816040039
aF180.40994262695312
aF-12.93259334564209
aF-0.3420111835002899
aF0.24017709493637085
aF0.13428419828414917
aa(lp12
F0.29636573791503906
aF24.5887451171875
aF-1.1167917251586914
aF-0.008018255233764648
aF-0.003086000680923462
aF-0.016763359308242798
aF1.7120981216430664
aF62.49134063720703
aF-3.4617223739624023
aF-0.026515662670135498
aF-0.009990870952606201
aF-0.03202278912067413
aF-1.1193666458129883
aF-13.313850402832031
aF1.2281389236450195
aF0.010479152202606201
aF0.0038188695907592773
aF-0.0015039294958114624
aF-14.637225151062012
aF188.85018920898438
aF-13.335119247436523
aF-0.3436310589313507
aF0.23886220157146454
aF0.1286124438047409
aa(lp13
F0.2558279037475586
aF25.062408447265625
aF-0.7525539398193359
aF-0.006254911422729492
aF-0.00022166967391967773
aF-0.01633496582508087
aF1.4609737396240234
aF66.03279113769531
aF-3.1915197372436523
aF-0.024403005838394165
aF-0.00634688138961792
aF-0.03592807054519653
aF-0.9493179321289062
aF-15.907974243164062
aF1.6864118576049805
aF0.01189318299293518
aF0.0059035420417785645
aF0.00325813889503479
aF-14.513304710388184
aF197.29696655273438
aF-13.253920555114746
aF-0.34533268213272095
aF0.23998771607875824
aF0.12301665544509888
aa(lp14
F0.24406147003173828
aF25.440765380859375
aF-0.33177661895751953
aF-0.004772275686264038
aF0.000842362642288208
aF-0.015001311898231506
aF0.8712291717529297
aF58.03654479980469
aF-1.9586772918701172
aF-0.022229492664337158
aF-0.0031152814626693726
aF-0.03535878658294678
aF-0.3831062316894531
aF-7.1550140380859375
aF1.2951240539550781
aF0.012684941291809082
aF0.004800006747245789
aF0.005356162786483765
aF-14.4500093460083
aF205.8507080078125
aF-13.26436996459961
aF-0.34678345918655396
aF0.24101945757865906
aF0.11928288638591766
aa(lp15
F0.07905006408691406
aF25.786178588867188
aF-0.44964027404785156
aF-0.0010481774806976318
aF0.005746975541114807
aF-0.012748993933200836
aF0.5745830535888672
aF58.356109619140625
aF-1.9143991470336914
aF-0.01383429765701294
aF0.001489490270614624
aF-0.03451312333345413
aF-0.41648292541503906
aF-6.78375244140625
aF1.0151185989379883
aF0.011737942695617676
aF0.01000446081161499
aF0.00901513546705246
aF-14.558175086975098
aF214.63636779785156
aF-13.784759521484375
aF-0.34467923641204834
aF0.24460917711257935
aF0.11586344987154007
aa(lp16
F-0.0809164047241211
aF26.127227783203125
aF-0.6652240753173828
aF0.006048023700714111
aF0.009057566523551941
aF-0.01036025583744049
aF0.3393697738647461
aF59.162750244140625
aF-1.7008171081542969
aF-0.0036718547344207764
aF0.00709708034992218
aF-0.03271940350532532
aF-0.5012025833129883
aF-6.908294677734375
aF0.37036895751953125
aF0.015767902135849
aF0.011018052697181702
aF0.011998891830444336
aF-14.594221115112305
aF223.4241943359375
aF-13.919144630432129
aF-0.33928465843200684
aF0.24904528260231018
aF0.11265639960765839
aa(lp17
F-0.2664070129394531
aF26.295257568359375
aF-0.9552774429321289
aF0.011930584907531738
aF0.014000236988067627
aF-0.008675649762153625
aF0.05271625518798828
aF59.911407470703125
aF-1.7182807922363281
aF0.004224896430969238
aF0.014810308814048767
aF-0.02874438464641571
aF-0.5855302810668945
aF-7.320892333984375
aF-0.1922740936279297
aF0.01963627338409424
aF0.013190165162086487
aF0.01139308512210846
aF-14.716416358947754
aF232.14596557617188
aF-14.219647407531738
aF-0.3348528742790222
aF0.2550196945667267
aF0.11060723662376404
aa(lp18
F-0.3798074722290039
aF26.238754272460938
aF-0.8459444046020508
aF0.010156333446502686
aF0.015367299318313599
aF-0.005920149385929108
aF-0.2439117431640625
aF60.465179443359375
aF-1.698110580444336
aF0.007488280534744263
aF0.019799381494522095
aF-0.024340897798538208
aF-0.5157032012939453
aF-7.9876708984375
aF0.006221771240234375
aF0.012824386358261108
aF0.010935217142105103
aF0.012500599026679993
aF-14.937982559204102
aF240.8751220703125
aF-14.630703926086426
aF-0.33452290296554565
aF0.25997647643089294
aF0.10994330048561096
aa(lp19
F-0.43674564361572266
aF25.932769775390625
aF-0.7965564727783203
aF0.004730820655822754
aF0.01800587773323059
aF-0.0017265081405639648
aF-0.3937416076660156
aF60.50677490234375
aF-1.3805818557739258
aF0.009077221155166626
aF0.028188958764076233
aF-0.017682552337646484
aF-0.4797496795654297
aF-8.6412353515625
aF-0.21253108978271484
aF0.00038442015647888184
aF0.007822796702384949
aF0.014229536056518555
aF-15.030966758728027
aF249.35696411132812
aF-14.71570110321045
aF-0.3345538377761841
aF0.26705116033554077
aF0.11092989146709442
aa(lp20
F-0.40650463104248047
aF25.106170654296875
aF-0.5446081161499023
aF0.002115607261657715
aF0.017188072204589844
aF0.0019341930747032166
aF-0.6096162796020508
aF59.955169677734375
aF-1.5103349685668945
aF0.012595415115356445
aF0.03222005069255829
aF-0.010475225746631622
aF-0.20339298248291016
aF-9.742828369140625
aF0.42111873626708984
aF-0.008364200592041016
aF0.002156093716621399
aF0.014343611896038055
aF-15.122920989990234
aF257.25213623046875
aF-14.76425552368164
aF-0.3327372670173645
aF0.27220776677131653
aF0.11254142969846725
aa(lp21
F-0.21120548248291016
aF24.460052490234375
aF0.16412734985351562
aF-0.0009888708591461182
aF0.019555658102035522
aF0.005279906094074249
aF-0.6991786956787109
aF59.484466552734375
aF-1.2022066116333008
aF0.011271685361862183
aF0.03851267695426941
aF-0.004059679806232452
aF0.2767677307128906
aF-10.564361572265625
aF1.530461311340332
aF-0.013249427080154419
aF0.0005986392498016357
aF0.014619491994380951
aF-15.149188041687012
aF265.3351745605469
aF-14.46657657623291
aF-0.3355117738246918
aF0.27953213453292847
aF0.11522320657968521
aa(lp22
F-0.1677532196044922
aF23.76422119140625
aF0.3470191955566406
aF-0.0024044811725616455
aF0.017959237098693848
aF0.006059326231479645
aF-0.6405448913574219
aF58.48481750488281
aF-0.5839223861694336
aF0.007720917463302612
aF0.04040122032165527
aF0.0011257678270339966
aF0.3050384521484375
aF-10.956375122070312
aF1.2779607772827148
aF-0.012529879808425903
aF-0.004482746124267578
aF0.010992884635925293
aF-15.19871997833252
aF273.1211853027344
aF-14.368681907653809
aF-0.3369583189487457
aF0.2850103974342346
aF0.11698921769857407
aa(lp23
F-0.017330169677734375
aF23.29779052734375
aF0.8470220565795898
aF-0.006098806858062744
aF0.017456650733947754
aF0.008450947701931
aF-0.5460300445556641
aF57.125732421875
aF0.001911163330078125
aF0.00044858455657958984
aF0.0406191349029541
aF0.008335977792739868
aF0.5113697052001953
aF-10.5301513671875
aF1.6921329498291016
aF-0.012646198272705078
aF-0.005705833435058594
aF0.008565917611122131
aF-15.140251159667969
aF280.5499267578125
aF-13.91723346710205
aF-0.33883607387542725
aF0.2896644175052643
aF0.12099237740039825
aa(lp24
F-0.040320396423339844
aF22.231781005859375
aF0.7928581237792969
aF-0.005577772855758667
aF0.016168713569641113
aF0.009904257953166962
aF-0.47309207916259766
aF55.420989990234375
aF0.545928955078125
aF-0.006236672401428223
aF0.040681153535842896
aF0.014520227909088135
aF0.39245128631591797
aF-10.957427978515625
aF1.0397872924804688
aF-0.004918873310089111
aF-0.008343726396560669
aF0.005288287997245789
aF-15.189508438110352
aF287.56695556640625
aF-13.673718452453613
aF-0.34108954668045044
aF0.2957008481025696
aF0.12512746453285217
aa(lp25
F-0.12492752075195312
aF21.58526611328125
aF0.7781028747558594
aF-0.00431022047996521
aF0.015098482370376587
aF0.01042947918176651
aF-0.3856649398803711
aF53.831329345703125
aF1.0401248931884766
aF-0.006745636463165283
aF0.04013240337371826
aF0.017475396394729614
aF0.13580989837646484
aF-10.660797119140625
aF0.5160808563232422
aF-0.0018748044967651367
aF-0.009935438632965088
aF0.0033835619688034058
aF-15.323647499084473
aF294.7064514160156
aF-13.59057903289795
aF-0.34126853942871094
aF0.3001088798046112
aF0.12741869688034058
aa(lp26
F-0.3398475646972656
aF21.659881591796875
aF0.4969301223754883
aF0.0007343292236328125
aF0.012636721134185791
aF0.003990575671195984
aF-0.44913196563720703
aF52.85284423828125
aF1.2953977584838867
aF-0.0035479068756103516
aF0.0352499783039093
aF0.014053061604499817
aF-0.23056316375732422
aF-9.5330810546875
aF-0.30153751373291016
aF0.0050165653228759766
aF-0.00997653603553772
aF-0.006071910262107849
aF-15.480098724365234
aF302.2098083496094
aF-13.420303344726562
aF-0.33810174465179443
aF0.3023011386394501
aF0.12498295307159424
aa(lp27
F-0.4417123794555664
aF21.594818115234375
aF0.19843673706054688
aF0.0034058690071105957
aF0.01477360725402832
aF0.0010171383619308472
aF-0.5082998275756836
aF51.909637451171875
aF1.2889738082885742
aF-0.004946410655975342
aF0.03826668858528137
aF0.013603173196315765
aF-0.3751249313354492
aF-8.720001220703125
aF-0.8921003341674805
aF0.011758148670196533
aF-0.008719474077224731
aF-0.011568896472454071
aF-15.631220817565918
aF309.1617736816406
aF-13.475281715393066
aF-0.33768367767333984
aF0.3104744553565979
aF0.12614460289478302
aa(lp28
F-0.3482065200805664
aF21.26226806640625
aF0.35219669342041016
aF0.001969963312149048
aF0.02222004532814026
aF-0.0012773871421813965
aF-0.5226659774780273
aF50.633544921875
aF1.228194236755371
aF-0.003786802291870117
aF0.042796790599823
aF0.010918103158473969
aF-0.17374706268310547
aF-8.1090087890625
aF-0.5238008499145508
aF0.007726728916168213
aF0.0016433000564575195
aF-0.013472877442836761
aF-15.671854019165039
aF315.9687194824219
aF-13.238382339477539
aF-0.3392985761165619
aF0.32232892513275146
aF0.12614130973815918
aa(lp29
F-0.19545269012451172
aF20.75396728515625
aF0.58465576171875
aF0.002254992723464966
aF0.02058619260787964
aF0.0008871704339981079
aF-0.47683143615722656
aF49.84259033203125
aF1.533034324645996
aF0.0011115670204162598
aF0.03787693381309509
aF0.00888090580701828
aF0.08592605590820312
aF-8.33465576171875
aF-0.3637228012084961
aF0.003398418426513672
aF0.0032954514026641846
aF-0.007106564939022064
aF-15.675551414489746
aF322.9637756347656
aF-12.835647583007812
aF-0.33584675192832947
aF0.3228873312473297
aF0.12587012350559235
aa(lp30
F-0.10470008850097656
aF20.33892822265625
aF0.6860599517822266
aF0.07123550772666931
aF0.02850240468978882
aF-0.0017526522278785706
aF-0.5956697463989258
aF48.950775146484375
aF1.128011703491211
aF0.07238790392875671
aF0.049312442541122437
aF0.003399573266506195
aF0.38626956939697266
aF-8.272918701171875
aF0.2441082000732422
aF0.07008311152458191
aF0.0076923668384552
aF-0.006904877722263336
aF-15.735920906066895
aF329.5007019042969
aF-12.78922176361084
aF-0.26644816994667053
aF0.3389768600463867
aF0.12439195066690445
aa(lp31
F-0.046263694763183594
aF20.22265625
aF0.5198497772216797
aF0.133938729763031
aF0.02884712815284729
aF0.0035281628370285034
aF-0.5286092758178711
aF48.624420166015625
aF0.9551858901977539
aF0.13572970032691956
aF0.055475205183029175
aF0.00454200804233551
aF0.4360818862915039
aF-8.179107666015625
aF0.08451366424560547
aF0.13214775919914246
aF0.0022190511226654053
aF0.0025143176317214966
aF-15.718117713928223
aF336.1913757324219
aF-12.71853256225586
aF-0.20535984635353088
aF0.35117605328559875
aF0.12966947257518768
aa(lp32
F0.0770273208618164
aF20.2935791015625
aF0.5652437210083008
aF0.18234683573246002
aF0.041104525327682495
aF0.00599689781665802
aF-0.27487659454345703
aF48.5509033203125
aF1.3201751708984375
aF0.1877686232328415
aF0.063882976770401
aF0.00444832444190979
aF0.42893123626708984
aF-7.9637451171875
aF-0.18968772888183594
aF0.17692504823207855
aF0.01832607388496399
aF0.00754547119140625
aF-15.59852409362793
aF343.2573547363281
aF-12.270403861999512
aF-0.15349991619586945
aF0.3639918565750122
aF0.13186702132225037
aa(lp33
F0.12127208709716797
aF21.07366943359375
aF0.4040946960449219
aF0.15542097389698029
aF0.040539830923080444
aF0.014652110636234283
aF-0.1345500946044922
aF48.36456298828125
aF1.0351762771606445
aF0.2270745486021042
aF0.07721555233001709
aF0.014061108231544495
aF0.3770942687988281
aF-6.21722412109375
aF-0.22698688507080078
aF0.08376739919185638
aF0.003864109516143799
aF0.015243113040924072
aF-15.614648818969727
aF350.5743713378906
aF-12.385127067565918
aF-0.11102719604969025
aF0.37951669096946716
aF0.13904406130313873
aa(lp34
F0.20594406127929688
aF21.335357666015625
aF0.7960100173950195
aF0.136437825858593
aF0.03823843598365784
aF0.014511138200759888
aF0.11904716491699219
aF48.364959716796875
aF1.5527591705322266
aF0.26876165717840195
aF0.07894003391265869
aF0.01803600788116455
aF0.29284095764160156
aF-5.694244384765625
aF0.0392608642578125
aF0.004113994538784027
aF-0.0024631619453430176
aF0.010986268520355225
aF-15.512173652648926
aF357.5267333984375
aF-11.92252254486084
aF-0.0689220204949379
aF0.3894144892692566
aF0.14418061077594757
aa(lp35
F0.1481466293334961
aF19.829315185546875
aF0.6146955490112305
aF0.11981362849473953
aF0.03272968530654907
aF0.017395496368408203
aF0.22147655487060547
aF47.117950439453125
aF1.5826740264892578
aF0.305612288415432
aF0.07439261674880981
aF0.02312120795249939
aF0.07481670379638672
aF-7.459320068359375
aF-0.3532829284667969
aF-0.06598503142595291
aF-0.00893324613571167
aF0.011669784784317017
aF-15.450377464294434
aF363.086669921875
aF-11.655708312988281
aF-0.03368628770112991
aF0.3967215418815613
aF0.14926251769065857
aa(lp36
F0.19675922393798828
aF18.07171630859375
aF1.1064605712890625
aF0.10284494515508413
aF0.023329734802246094
aF0.01448678970336914
aF0.2576618194580078
aF45.68231201171875
aF1.556981086730957
aF0.32766450103372335
aF0.07995909452438354
aF0.027660727500915527
aF0.13585662841796875
aF-9.53887939453125
aF0.655940055847168
aF-0.12197461072355509
aF-0.03329962491989136
aF0.001312851905822754
aF-15.417889595031738
aF368.6460876464844
aF-11.278666496276855
aF-0.008182250894606113
aF0.40284642577171326
aF0.15353085100650787
aa(lp37
F0.03518486022949219
aF17.731536865234375
aF0.8265352249145508
aF0.08598815836012363
aF0.023961663246154785
aF0.01173853874206543
aF0.25893211364746094
aF45.757568359375
aF1.6932344436645508
aF0.28351430781185627
aF0.07439929246902466
aF0.03152719885110855
aF-0.18856239318847656
aF-10.29449462890625
aF-0.04016399383544922
aF-0.111537991091609
aF-0.026475965976715088
aF-0.008050121366977692
aF-15.476988792419434
aF375.2582702636719
aF-11.095987319946289
aF0.017066137865185738
aF0.4133761525154114
aF0.155919149518013
aa(lp38
F-0.02733325958251953
aF18.442840576171875
aF0.8389434814453125
aF0.0688631609082222
aF0.030704885721206665
aF0.015790864825248718
aF0.24040699005126953
aF45.338134765625
aF1.9017677307128906
aF0.24053671956062317
aF0.07625037431716919
aF0.035383909940719604
aF-0.2950735092163086
aF-8.45245361328125
aF-0.22388076782226562
aF-0.10281039774417877
aF-0.01484060287475586
aF-0.003802180290222168
aF-15.477710723876953
aF381.5295104980469
aF-10.816764831542969
aF0.035176873207092285
aF0.42742642760276794
aF0.1650533825159073
aa(lp39
F-0.22185707092285156
aF18.459747314453125
aF0.3755207061767578
aF0.06262159813195467
aF0.030615508556365967
aF0.010952293872833252
aF-0.041222572326660156
aF43.848480224609375
aF1.367258071899414
aF0.207939263433218
aF0.06947007775306702
aF0.03261612355709076
aF-0.40249156951904297
aF-6.928985595703125
aF-0.6162166595458984
aF-0.08269606716930866
aF-0.008239060640335083
aF-0.010711535811424255
aF-15.63974666595459
aF387.1058349609375
aF-10.903145790100098
aF0.054439347237348557
aF0.4334619343280792
aF0.16448314487934113
aa(lp40
F-0.07778453826904297
aF17.23236083984375
aF1.1775598526000977
aF0.05495958589017391
aF0.025427430868148804
aF0.00771602988243103
aF0.05987548828125
aF41.916259765625
aF2.4666996002197266
aF0.1830529198050499
aF0.05928689241409302
aF0.024591118097305298
aF-0.21544456481933594
aF-7.4515380859375
aF-0.11157989501953125
aF-0.07313374802470207
aF-0.00843203067779541
aF-0.009159058332443237
aF-15.554773330688477
aF392.4906311035156
aF-9.918427467346191
aF0.07202572375535965
aF0.4388035833835602
aF0.16363517940044403
aa(lp41
F-0.24055862426757812
aF16.910186767578125
aF0.7705078125
aF0.05117863416671753
aF0.005437999963760376
aF0.0020006000995635986
aF-0.20609569549560547
aF40.9129638671875
aF1.876265525817871
aF0.1552775278687477
aF0.04344993829727173
aF0.022873371839523315
aF-0.2750215530395508
aF-7.09259033203125
aF-0.3352499008178711
aF-0.05292025953531265
aF-0.03257393836975098
aF-0.018872171640396118
aF-15.718269348144531
aF398.439697265625
aF-10.046257019042969
aF0.08635550737380981
aF0.4328644275665283
aF0.1670539826154709
aa(lp42
F0.01132965087890625
aF16.46856689453125
aF1.6899223327636719
aF0.04625818505883217
aF0.0033568739891052246
aF0.0002122819423675537
aF-0.17803955078125
aF40.48773193359375
aF2.4424848556518555
aF0.13438381999731064
aF0.04009726643562317
aF0.01543290913105011
aF0.2006988525390625
aF-7.55059814453125
aF0.9373598098754883
aF-0.0418674498796463
aF-0.03338351845741272
aF-0.015008345246315002
aF-15.628417015075684
aF403.57440185546875
aF-9.213223457336426
aF0.10069753229618073
aF0.43681880831718445
aF0.16469542682170868
aa(lp43
F-0.1733999252319336
aF17.09320068359375
aF1.3755931854248047
aF0.045860446989536285
aF-0.0066359639167785645
aF-0.015880107879638672
aF-0.3102836608886719
aF40.937744140625
aF2.7358322143554688
aF0.12606842163950205
aF0.02932119369506836
aF-0.005775779485702515
aF-0.03651618957519531
aF-6.7513427734375
aF0.015354156494140625
aF-0.03434752766042948
aF-0.04259312152862549
aF-0.02598443627357483
aF-15.72817325592041
aF409.5838317871094
aF-8.542834281921387
aF0.11788617074489594
aF0.4321676194667816
aF0.14775507152080536
aa(lp44
F0.023344039916992188
aF16.832061767578125
aF2.4680333137512207
aF0.04376949369907379
aF0.017164945602416992
aF-0.025655120611190796
aF-0.21793651580810547
aF40.01348876953125
aF3.517763614654541
aF0.11305886320769787
aF0.036653220653533936
aF-0.01452028751373291
aF0.26462459564208984
aF-6.349365234375
aF1.4183030128479004
aF-0.025519875809550285
aF-0.002323329448699951
aF-0.03678995370864868
aF-15.694925308227539
aF415.2717590332031
aF-7.578223705291748
aF0.1301250010728836
aF0.4500293731689453
aF0.1413988620042801
aa(lp45
F-0.18759727478027344
aF15.9818115234375
aF1.5242013931274414
aF0.039977505803108215
aF0.01739680767059326
aF-0.0230625718832016
aF-0.3383035659790039
aF38.026702880859375
aF3.1277427673339844
aF0.10549816489219666
aF0.026789188385009766
aF-0.023420527577400208
aF-0.03689098358154297
aF-6.063079833984375
aF-0.07933998107910156
aF-0.025543153285980225
aF0.008004426956176758
aF-0.02270461618900299
aF-15.816014289855957
aF419.55621337890625
aF-7.689022064208984
aF0.14067503809928894
aF0.4542156159877777
aF0.14163285493850708
aa(lp46
F-0.15494728088378906
aF13.25152587890625
aF1.104250431060791
aF0.0337037593126297
aF0.0249289870262146
aF-0.008228018879890442
aF-0.24337387084960938
aF35.729522705078125
aF3.464561939239502
aF0.09715058282017708
aF0.023634672164916992
aF-0.02495609223842621
aF-0.06652069091796875
aF-9.226470947265625
aF-1.25606107711792
aF-0.02974306419491768
aF0.026223301887512207
aF0.008500054478645325
aF-15.8831205368042
aF422.8353576660156
aF-7.438583850860596
aF0.15158993005752563
aF0.4570966064929962
aF0.13952705264091492
aa(lp47
F-0.3694744110107422
aF13.300048828125
aF-0.08612775802612305
aF0.03083471953868866
aF0.013870000839233398
aF-0.0011108070611953735
aF-0.5096263885498047
aF36.0811767578125
aF2.2540760040283203
aF0.08893399685621262
aF0.02509579062461853
aF-0.023347124457359314
aF-0.2293224334716797
aF-9.4810791015625
aF-2.4263315200805664
aF-0.027264557778835297
aF0.0026442110538482666
aF0.021125510334968567
aF-16.06439971923828
aF428.5718078613281
aF-7.664351463317871
aF0.16095972061157227
aF0.4638993740081787
aF0.14028805494308472
aa(lp48
F-0.12302589416503906
aF15.40435791015625
aF1.097447395324707
aF0.030202478170394897
aF0.0075692832469940186
aF0.0027632862329483032
aF-0.22077083587646484
aF36.5208740234375
aF3.4546823501586914
aF0.08452200889587402
aF0.028920471668243408
aF-0.022657841444015503
aF-0.02528095245361328
aF-5.712158203125
aF-1.2597875595092773
aF-0.02411705255508423
aF-0.013781905174255371
aF0.02818441390991211
aF-15.939040184020996
aF434.9605712890625
aF-6.591574668884277
aF0.17087751626968384
aF0.46178489923477173
aF0.14439614117145538
aa(lp49
F-0.060730934143066406
aF15.649169921875
aF1.2408113479614258
aF0.02268068492412567
aF0.0032280683517456055
aF0.004008561372756958
aF-0.31543445587158203
aF34.910125732421875
aF3.015450954437256
aF0.07357308268547058
aF0.023505866527557373
aF-0.021159812808036804
aF0.19397258758544922
aF-3.611785888671875
aF-0.5338282585144043
aF-0.02821171283721924
aF-0.017049729824066162
aF0.02917693555355072
aF-15.943851470947266
aF438.4845275878906
aF-6.19777250289917
aF0.1742706149816513
aF0.4603246748447418
aF0.14353561401367188
aa(lp50
F-0.08333015441894531
aF15.410369873046875
aF0.7446823120117188
aF0.01895754039287567
aF-0.010304450988769531
aF0.0008531957864761353
aF-0.4195566177368164
aF34.398345947265625
aF1.6231651306152344
aF0.062031090259552
aF0.021427303552627563
aF-0.006613820791244507
aF0.2528963088989258
aF-3.577606201171875
aF-0.13380050659179688
aF-0.02411600947380066
aF-0.042036205530166626
aF0.008320212364196777
aF-16.147729873657227
aF443.982177734375
aF-6.919669151306152
aF0.17991726100444794
aF0.4535949230194092
aF0.14114125072956085
aa(lp51
F-0.3241128921508789
aF14.45587158203125
aF-0.239471435546875
aF0.015572994947433472
aF-0.003053814172744751
aF-0.004927113652229309
aF-0.5682277679443359
aF34.144683837890625
aF0.7471776008605957
aF0.056325510144233704
aF0.008701711893081665
aF-0.0019298344850540161
aF-0.07999801635742188
aF-5.232940673828125
aF-1.2261204719543457
aF-0.02517952024936676
aF-0.014809340238571167
aF-0.007924392819404602
aF-16.263153076171875
aF449.41644287109375
aF-6.831046104431152
aF0.1864505112171173
aF0.458731085062027
aF0.13946902751922607
aa(lp52
F-0.3534431457519531
aF15.831298828125
aF-0.6337103843688965
aF0.01701223850250244
aF-0.0029829740524291992
aF0.0032401978969573975
aF-0.4812803268432617
aF34.759613037109375
aF0.857539176940918
aF0.05060781538486481
aF0.003126084804534912
aF0.005142956972122192
aF-0.22560596466064453
aF-3.097015380859375
aF-2.124959945678711
aF-0.016583338379859924
aF-0.00909203290939331
aF0.0013374388217926025
aF-16.29729461669922
aF454.3158264160156
aF-6.831482887268066
aF0.19128285348415375
aF0.4573417007923126
aF0.14677581191062927
aa(lp53
F-0.2760906219482422
aF16.384033203125
aF0.8254823684692383
aF0.019469797611236572
aF0.006525695323944092
aF-0.00331231951713562
aF-0.5406999588012695
aF37.530853271484375
aF1.3443970680236816
aF0.047797128558158875
aF0.0030240118503570557
aF-0.001698121428489685
aF-0.011481285095214844
aF-4.762786865234375
aF0.3065676689147949
aF-0.00885753333568573
aF0.010027378797531128
aF-0.004926517605781555
aF-16.42382049560547
aF460.3662109375
aF-6.094186782836914
aF0.1993870586156845
aF0.46012061834335327
aF0.13782893121242523
aa(lp54
F0.05950164794921875
aF14.329132080078125
aF2.3325576782226562
aF0.02061183750629425
aF-0.0012739002704620361
aF-0.011346369981765747
aF-0.139251708984375
aF35.17376708984375
aF3.165863037109375
aF0.046102628111839294
aF-0.0064421892166137695
aF-0.01216539740562439
aF0.2582550048828125
aF-6.5155029296875
aF1.4992523193359375
aF-0.0048789530992507935
aF0.0038943886756896973
aF-0.010527342557907104
aF-16.203651428222656
aF463.7455749511719
aF-4.498488426208496
aF0.20706234872341156
aF0.45745718479156494
aF0.12812265753746033
aa(lp55
F-0.1475830078125
aF14.2913818359375
aF1.5365543365478516
aF0.01938273012638092
aF0.002358347177505493
aF-0.017817482352256775
aF-0.5058374404907227
aF33.646636962890625
aF1.2966461181640625
aF0.03978806734085083
aF-0.0020848512649536133
aF-0.015437811613082886
aF0.21067142486572266
aF-5.063873291015625
aF1.7764625549316406
aF-0.0010226070880889893
aF0.0068015456199646
aF-0.020197153091430664
aF-16.44487762451172
aF468.6072082519531
aF-5.294928550720215
aF0.21066558361053467
aF0.4597000479698181
aF0.1289583295583725
aa(lp56
F-0.13344573974609375
aF10.53656005859375
aF0.43632984161376953
aF0.020289301872253418
aF0.002227604389190674
aF-0.0028037428855895996
aF-0.6134147644042969
aF32.418243408203125
aF0.5399155616760254
aF0.04540574550628662
aF0.002023547887802124
aF-0.008510425686836243
aF0.3465232849121094
aF-11.345123291015625
aF0.33274412155151367
aF-0.004827141761779785
aF0.0024316608905792236
aF0.0029029399156570435
aF-16.557266235351562
aF470.90277099609375
aF-5.6578569412231445
aF0.21967636048793793
aF0.46234822273254395
aF0.13502518832683563
aa(lp57
F-0.307464599609375
aF9.652008056640625
aF-0.27605581283569336
aF0.01762847602367401
aF0.009028971195220947
aF0.0054315924644470215
aF-0.3633861541748047
aF29.4154052734375
aF2.145124912261963
aF0.044773563742637634
aF0.012891232967376709
aF-0.007587000727653503
aF-0.2515430450439453
aF-10.11138916015625
aF-2.6972365379333496
aF-0.009516611695289612
aF0.0051667094230651855
aF0.018450185656547546
aF-16.51111602783203
aF473.3975830078125
aF-4.7745442390441895
aF0.22469082474708557
aF0.4664861559867859
aF0.13355425000190735
aa(lp58
F0.08176040649414062
aF8.850494384765625
aF1.6440834999084473
aF0.014990493655204773
aF-0.003463953733444214
aF0.021783769130706787
aF-0.09996414184570312
aF28.041259765625
aF3.1802010536193848
aF0.03920556604862213
aF-0.002494990825653076
aF0.01127307116985321
aF0.2634849548339844
aF-10.34027099609375
aF0.10796594619750977
aF-0.009224578738212585
aF-0.0044329166412353516
aF0.032294467091560364
aF-16.363117218017578
aF477.45770263671875
aF-3.6508450508117676
aF0.22565607726573944
aF0.4562360942363739
aF0.15074209868907928
aa(lp59
F0.37360572814941406
aF8.486297607421875
aF3.0600526332855225
aF-0.08688525855541229
aF-0.018799811601638794
aF0.026829615235328674
aF0.11363410949707031
aF25.0732421875
aF4.233678579330444
aF-0.05849175155162811
aF-0.01379328966140747
aF0.015078991651535034
aF0.6335773468017578
aF-8.10064697265625
aF1.8864266872406006
aF-0.11527876555919647
aF-0.023806333541870117
aF0.038580238819122314
aF-16.18366050720215
aF479.3890686035156
aF-2.597804307937622
aF0.13279110193252563
aF0.44354841113090515
aF0.1618548035621643
aa(lp60
F-0.1254596710205078
aF15.33599853515625
aF2.0347774028778076
aF-0.2344451742246747
aF-0.04660478234291077
aF0.02505582571029663
aF-0.2127552032470703
aF28.36737060546875
aF3.3544199466705322
aF-0.20914140809327364
aF-0.04023924469947815
aF0.020781144499778748
aF-0.03816413879394531
aF2.30462646484375
aF0.715134859085083
aF-0.25974894035607576
aF-0.052970319986343384
aF0.029330506920814514
aF-16.63657569885254
aF488.73358154296875
aF-2.739766836166382
aF-0.00975434947758913
aF0.4198813736438751
aF0.15861007571220398
aa.