(lp0
(lp1
F1.5608901977539062
aF-6.077301025390625
aF0.996734619140625
aF-0.000591665506362915
aF-0.0012561380863189697
aF-0.005801767110824585
aF3.8697586059570312
aF-15.906005859375
aF3.0594520568847656
aF-0.0009368062019348145
aF-0.0009641051292419434
aF-0.014958322048187256
aF-0.7479782104492188
aF3.75140380859375
aF-1.0659828186035156
aF-0.0002465248107910156
aF-0.001548171043395996
aF0.003354787826538086
aF-17.26616096496582
aF140.2138671875
aF51.037933349609375
aF-0.38452646136283875
aF0.26388946175575256
aF0.1325819045305252
aa(lp2
F1.5013198852539062
aF-5.6352691650390625
aF0.8228530883789062
aF0.0002537667751312256
aF-0.0033403337001800537
aF-0.009000033140182495
aF3.754476547241211
aF-14.989456176757812
aF2.742877960205078
aF-0.0011160075664520264
aF0.00015872716903686523
aF-0.019082024693489075
aF-0.7518367767333984
aF3.7189178466796875
aF-1.0971717834472656
aF0.0016235411167144775
aF-0.006839394569396973
aF0.0010819584131240845
aF-16.772546768188477
aF138.47564697265625
aF51.2808837890625
aF-0.3843047618865967
aF0.26205843687057495
aF0.1293891817331314
aa(lp3
F1.4883708953857422
aF-5.062286376953125
aF0.661529541015625
aF0.0009158849716186523
aF-0.0036855340003967285
aF-0.013796865940093994
aF3.636812210083008
aF-13.907241821289062
aF2.3083419799804688
aF-0.00014078617095947266
aF-0.0016297399997711182
aF-0.024748384952545166
aF-0.6600704193115234
aF3.7826690673828125
aF-0.9852828979492188
aF0.0019725561141967773
aF-0.005741328001022339
aF-0.0028453469276428223
aF-16.300024032592773
aF137.08741760253906
aF51.44086837768555
aF-0.3836050033569336
aF0.26157328486442566
aF0.12033255398273468
aa(lp4
F1.5459117889404297
aF-4.39190673828125
aF0.589508056640625
aF0.001989394426345825
aF-0.004483461380004883
aF-0.02101239562034607
aF3.614622116088867
aF-12.657791137695312
aF1.9722862243652344
aF0.0011720657348632812
aF-0.004906773567199707
aF-0.030352279543876648
aF-0.5227985382080078
aF3.8739776611328125
aF-0.7932701110839844
aF0.002806723117828369
aF-0.004060149192810059
aF-0.01167251169681549
aF-15.72024917602539
aF135.82196044921875
aF51.62744140625
aF-0.3825370669364929
aF0.2594060003757477
aF0.11156950891017914
aa(lp5
F1.395869255065918
aF-2.7775115966796875
aF0.3742523193359375
aF0.002473503351211548
aF-0.006765782833099365
aF-0.021712131798267365
aF3.450373649597168
aF-10.593032836914062
aF1.6139373779296875
aF0.0021035373210906982
aF-0.009852945804595947
aF-0.03070662170648575
aF-0.658635139465332
aF5.0380096435546875
aF-0.8654327392578125
aF0.0028434693813323975
aF-0.003678619861602783
aF-0.01271764189004898
aF-15.376677513122559
aF135.69813537597656
aF51.65513610839844
aF-0.38183125853538513
aF0.2552926540374756
aF0.10767704993486404
aa(lp6
F1.9382753372192383
aF-0.066558837890625
aF-0.09370040893554688
aF0.0028519034385681152
aF-0.01257912814617157
aF-0.024841174483299255
aF3.9121179580688477
aF-7.090057373046875
aF0.8891372680664062
aF0.0038054287433624268
aF-0.016404613852500916
aF-0.04289783537387848
aF-0.035567283630371094
aF6.956939697265625
aF-1.0765380859375
aF0.0018983781337738037
aF-0.008753642439842224
aF-0.006784513592720032
aF-14.361748695373535
aF137.02085876464844
aF51.34716796875
aF-0.3807530999183655
aF0.2489941567182541
aF0.09549137949943542
aa(lp7
F1.9167165756225586
aF3.8435516357421875
aF-0.7350997924804688
aF0.0010512471199035645
aF-0.01183590292930603
aF-0.01960364729166031
aF3.9848623275756836
aF-2.48419189453125
aF0.11300277709960938
aF0.0030350685119628906
aF-0.017688721418380737
aF-0.042163558304309845
aF-0.1514291763305664
aF10.171295166015625
aF-1.5832023620605469
aF-0.0009325742721557617
aF-0.005983084440231323
aF0.0029562637209892273
aF-13.803532600402832
aF139.66551208496094
aF50.89234161376953
aF-0.38148581981658936
aF0.24757009744644165
aF0.09196586161851883
aa(lp8
F1.833425521850586
aF7.1461334228515625
aF-1.2040061950683594
aF-0.00040224194526672363
aF-0.008551433682441711
aF-0.022072046995162964
aF3.7229089736938477
aF2.630401611328125
aF-0.5868034362792969
aF0.0022929608821868896
aF-0.01714824140071869
aF-0.04697690159082413
aF-0.05605792999267578
aF11.661865234375
aF-1.8212089538574219
aF-0.003097444772720337
aF4.537403583526611e-05
aF0.0028328076004981995
aF-13.543251991271973
aF142.84426879882812
aF50.45112991333008
aF-0.38223350048065186
aF0.24674122035503387
aF0.08560500293970108
aa(lp9
F1.154916763305664
aF10.31707763671875
aF-1.4188919067382812
aF-0.0033524930477142334
aF-0.0029107630252838135
aF-0.01170242577791214
aF3.5657148361206055
aF8.862289428710938
aF-1.3526077270507812
aF0.00019916892051696777
aF-0.015975043177604675
aF-0.045600228011608124
aF-1.2558813095092773
aF11.771865844726562
aF-1.4851760864257812
aF-0.006904155015945435
aF0.010153517127037048
aF0.022195376455783844
aF-13.206831932067871
aF147.3379364013672
aF49.92827606201172
aF-0.3841055929660797
aF0.24608339369297028
aF0.08378895372152328
aa(lp10
F0.8636770248413086
aF13.016555786132812
aF-1.4812507629394531
aF-0.005200743675231934
aF-0.0004094243049621582
aF-0.009983077645301819
aF3.36016845703125
aF15.594650268554688
aF-2.0297775268554688
aF-0.0030815601348876953
aF-0.014412611722946167
aF-0.03834977000951767
aF-1.6328144073486328
aF10.438461303710938
aF-0.9327239990234375
aF-0.007319927215576172
aF0.01359376311302185
aF0.018383614718914032
aF-12.939855575561523
aF152.68206787109375
aF49.41109085083008
aF-0.3866865634918213
aF0.2471606731414795
aF0.08198278397321701
aa(lp11
F0.7097816467285156
aF16.356277465820312
aF-1.9537811279296875
aF-0.006951421499252319
aF0.0037857145071029663
aF-0.008833535015583038
aF2.8867788314819336
aF23.378585815429688
aF-3.1300926208496094
aF-0.006647855043411255
aF-0.00887906551361084
aF-0.034798040986061096
aF-1.4672155380249023
aF9.333969116210938
aF-0.7774696350097656
aF-0.007254987955093384
aF0.016450494527816772
aF0.01713097095489502
aF-12.833470344543457
aF159.20054626464844
aF48.49734878540039
aF-0.3891849219799042
aF0.25052693486213684
aF0.07677146792411804
aa(lp12
F0.3846311569213867
aF19.441864013671875
aF-2.4653244018554688
aF-0.008916735649108887
aF0.008580282330513
aF-0.007571525871753693
aF2.554476737976074
aF31.0816650390625
aF-4.1921844482421875
aF-0.011191070079803467
aF-0.0006289780139923096
aF-0.03145962208509445
aF-1.7852144241333008
aF7.80206298828125
aF-0.73846435546875
aF-0.006642401218414307
aF0.01778954267501831
aF0.016316570341587067
aF-12.822200775146484
aF166.77980041503906
aF47.46295166015625
aF-0.3930223286151886
aF0.2546636760234833
aF0.07621742784976959
aa(lp13
F0.11812305450439453
aF22.48211669921875
aF-2.9157752990722656
aF-0.008636891841888428
aF0.008505403995513916
aF-0.008605457842350006
aF1.5400161743164062
aF38.14332580566406
aF-4.8518524169921875
aF-0.014570355415344238
aF0.006671920418739319
aF-0.02211405336856842
aF-1.3037700653076172
aF6.8209075927734375
aF-0.9796981811523438
aF-0.002703428268432617
aF0.010338887572288513
aF0.004903137683868408
aF-12.821732521057129
aF175.1641845703125
aF46.49531555175781
aF-0.3953234553337097
aF0.2556660771369934
aF0.073377326130867
aa(lp14
F-0.029462814331054688
aF25.102203369140625
aF-3.1554603576660156
aF-0.0096149742603302
aF0.008065789937973022
aF-0.0031085535883903503
aF0.9405994415283203
aF44.637237548828125
aF-5.550453186035156
aF-0.01731407642364502
aF0.011022627353668213
aF-0.018302947282791138
aF-0.9995250701904297
aF5.567169189453125
aF-0.760467529296875
aF-0.0019158720970153809
aF0.005108952522277832
aF0.012085840106010437
aF-12.862933158874512
aF184.30274963378906
aF45.341888427734375
aF-0.3987998962402344
aF0.25859272480010986
aF0.07366291433572769
aa(lp15
F-0.09393882751464844
aF27.25726318359375
aF-3.3603782653808594
aF-0.008634775876998901
aF0.010728269815444946
aF-0.0072140172123909
aF0.6271123886108398
aF51.19279479980469
aF-6.3485565185546875
aF-0.019423604011535645
aF0.018650725483894348
aF-0.016601592302322388
aF-0.8149900436401367
aF3.3217315673828125
aF-0.37220001220703125
aF0.002154052257537842
aF0.0028058141469955444
aF0.0021735578775405884
aF-12.916139602661133
aF194.0370635986328
aF44.10257339477539
aF-0.4016571044921875
aF0.2653919458389282
aF0.06900341063737869
aa(lp16
F-0.07648181915283203
aF29.128448486328125
aF-3.5127410888671875
aF-0.008034378290176392
aF0.010385662317276001
aF-0.005793899297714233
aF0.30861759185791016
aF56.95469665527344
aF-6.945701599121094
aF-0.019252240657806396
aF0.019968345761299133
aF-0.016205526888370514
aF-0.4615812301635742
aF1.3022003173828125
aF-0.07978057861328125
aF0.0031834840774536133
aF0.0008029788732528687
aF0.004617728292942047
aF-12.898214340209961
aF204.29263305664062
aF42.982574462890625
aF-0.4033578336238861
aF0.2660517394542694
aF0.06758342683315277
aa(lp17
F-0.013245582580566406
aF30.468490600585938
aF-3.5391578674316406
aF-0.006271541118621826
aF0.013844519853591919
aF-0.010325692594051361
aF0.06367683410644531
aF62.08917236328125
aF-7.608360290527344
aF-0.018384873867034912
aF0.02527657151222229
aF-0.01864556223154068
aF-0.09016799926757812
aF-1.152191162109375
aF0.5300445556640625
aF0.00584179162979126
aF0.002412468194961548
aF-0.0020058229565620422
aF-12.876178741455078
aF214.771240234375
aF41.802730560302734
aF-0.4050714373588562
aF0.2724372446537018
aF0.06333722174167633
aa(lp18
F0.04456138610839844
aF31.710739135742188
aF-3.6089706420898438
aF-0.004157364368438721
aF0.010543078184127808
aF-0.008307188749313354
aF-0.038107872009277344
aF66.54725646972656
aF-8.003746032714844
aF-0.016629546880722046
aF0.02540808916091919
aF-0.016075246036052704
aF0.12723064422607422
aF-3.1257781982421875
aF0.7858047485351562
aF0.008314818143844604
aF-0.004321932792663574
aF-0.0005391314625740051
aF-12.871578216552734
aF225.747802734375
aF40.49360275268555
aF-0.4058144688606262
aF0.27593502402305603
aF0.06069622188806534
aa(lp19
F0.08003425598144531
aF32.76130676269531
aF-3.747894287109375
aF-0.0021255016326904297
aF0.014938503503799438
aF-0.011481184512376785
aF0.00402069091796875
aF70.27413940429688
aF-8.228271484375
aF-0.01246100664138794
aF0.02632656693458557
aF-0.020115185528993607
aF0.15604782104492188
aF-4.75152587890625
aF0.73248291015625
aF0.00821000337600708
aF0.0035504400730133057
aF-0.002847183495759964
aF-12.818180084228516
aF237.05393981933594
aF39.23468017578125
aF-0.40548333525657654
aF0.28099024295806885
aF0.056102242320775986
aa(lp20
F0.14530658721923828
aF33.6363525390625
aF-3.676677703857422
aF7.236003875732422e-05
aF0.010672241449356079
aF-0.007891964167356491
aF0.09086036682128906
aF73.243408203125
aF-8.3692626953125
aF-0.00967562198638916
aF0.027443408966064453
aF-0.017932068556547165
aF0.1997528076171875
aF-5.970703125
aF1.0159072875976562
aF0.009820342063903809
aF-0.006098926067352295
aF0.0021481402218341827
aF-12.73087215423584
aF248.4075927734375
aF38.12605285644531
aF-0.4049990773200989
aF0.28310948610305786
aF0.05544525757431984
aa(lp21
F0.13869953155517578
aF34.2901611328125
aF-3.8660049438476562
aF3.072619438171387e-05
aF0.016966521739959717
aF-0.006820011883974075
aF0.13005447387695312
aF75.73521423339844
aF-8.714290618896484
aF-0.006983846426010132
aF0.034308820962905884
aF-0.01978670433163643
aF0.14734458923339844
aF-7.1548919677734375
aF0.9822807312011719
aF0.00704529881477356
aF-0.0003757774829864502
aF0.006146680563688278
aF-12.732878684997559
aF260.0379638671875
aF36.62759780883789
aF-0.4057837426662445
aF0.29290154576301575
aF0.05387621000409126
aa(lp22
F0.1761188507080078
aF35.01152038574219
aF-3.7655105590820312
aF-0.00167885422706604
aF0.02070772647857666
aF-0.00031670182943344116
aF0.274078369140625
aF78.02839660644531
aF-8.633403778076172
aF-0.005505084991455078
aF0.036306023597717285
aF-0.013217870146036148
aF0.07815933227539062
aF-8.005355834960938
aF1.1023826599121094
aF0.002147376537322998
aF0.005109429359436035
aF0.012584466487169266
aF-12.642061233520508
aF272.0654602050781
aF35.46916961669922
aF-0.4071621894836426
aF0.3016979694366455
aF0.055785540491342545
aa(lp23
F0.22705459594726562
aF34.416473388671875
aF-3.5554046630859375
aF-0.0019035935401916504
aF0.025156497955322266
aF0.0010721832513809204
aF0.3943967819213867
aF78.53143310546875
aF-8.41192626953125
aF-0.003544837236404419
aF0.04221424460411072
aF-0.011065986007452011
aF0.05971240997314453
aF-9.698486328125
aF1.301116943359375
aF-0.00026234984397888184
aF0.008098751306533813
aF0.013210352510213852
aF-12.503817558288574
aF282.8240661621094
aF34.570648193359375
aF-0.4069026708602905
aF0.3082659840583801
aF0.05651744082570076
aa(lp24
F0.28714561462402344
aF34.33843994140625
aF-3.1868209838867188
aF-1.33514404296875e-05
aF0.02173370122909546
aF0.005146056413650513
aF0.43044567108154297
aF79.60516357421875
aF-8.361953735351562
aF-0.0007256567478179932
aF0.042198002338409424
aF-0.004314955323934555
aF0.1438455581665039
aF-10.92828369140625
aF1.988311767578125
aF0.0006989538669586182
aF0.0012694001197814941
aF0.01460706815123558
aF-12.445733070373535
aF294.37640380859375
aF33.44077682495117
aF-0.4057970941066742
aF0.3146352469921112
aF0.059022266417741776
aa(lp25
F0.2799968719482422
aF33.9451904296875
aF-3.1011734008789062
aF0.0018585026264190674
aF0.024140238761901855
aF0.00493282824754715
aF0.5095138549804688
aF80.26284790039062
aF-8.125606536865234
aF0.00051078200340271
aF0.04990318417549133
aF2.214685082435608e-05
aF0.050479888916015625
aF-12.372467041015625
aF1.9232597351074219
aF0.003206223249435425
aF-0.001622706651687622
aF0.009843509644269943
aF-12.362064361572266
aF306.0106506347656
aF32.36799621582031
aF-0.4053036868572235
aF0.32583820819854736
aF0.060718368738889694
aa(lp26
F0.30193424224853516
aF34.76007080078125
aF-2.8323612213134766
aF0.0035022497177124023
aF0.02534419298171997
aF0.0076941512525081635
aF0.6162967681884766
aF80.53019714355469
aF-7.496393203735352
aF0.002082914113998413
aF0.05261993408203125
aF0.008109349757432938
aF-0.01242828369140625
aF-11.010055541992188
aF1.8316707611083984
aF0.004921585321426392
aF-0.0019315481185913086
aF0.007278952747583389
aF-12.201883316040039
aF317.5841369628906
aF31.7382869720459
aF-0.4034004211425781
aF0.3336101770401001
aF0.06421159207820892
aa(lp27
F0.3790464401245117
aF33.750274658203125
aF-2.2352943420410156
aF0.005460858345031738
aF0.021585851907730103
aF0.010165054351091385
aF0.6641855239868164
aF79.71908569335938
aF-6.920570373535156
aF0.004662841558456421
aF0.05311161279678345
aF0.013742063194513321
aF0.09390735626220703
aF-12.218536376953125
aF2.449981689453125
aF0.006258875131607056
aF-0.009939908981323242
aF0.006588045507669449
aF-12.066686630249023
aF328.1266784667969
aF31.205482482910156
aF-0.40033623576164246
aF0.3362210988998413
aF0.06918732076883316
aa(lp28
F0.47379398345947266
aF33.14849853515625
aF-1.2970161437988281
aF0.009346336126327515
aF0.01711893081665039
aF0.008466441184282303
aF0.8446083068847656
aF79.12118530273438
aF-5.556617736816406
aF0.00982639193534851
aF0.05005559325218201
aF0.015308599919080734
aF0.10297966003417969
aF-12.824188232421875
aF2.96258544921875
aF0.008866280317306519
aF-0.015817731618881226
aF0.0016242824494838715
aF-11.888270378112793
aF339.1591491699219
aF31.070980072021484
aF-0.395957350730896
aF0.34295713901519775
aF0.069184809923172
aa(lp29
F0.32270050048828125
aF32.07763671875
aF-1.125478744506836
aF0.01309746503829956
aF0.020636945962905884
aF-0.00023606419563293457
aF0.76287841796875
aF77.5963134765625
aF-4.856361389160156
aF0.016859233379364014
aF0.052549153566360474
aF0.008189987391233444
aF-0.1174774169921875
aF-13.4410400390625
aF2.6054039001464844
aF0.009335696697235107
aF-0.011275261640548706
aF-0.008662115782499313
aF-11.879182815551758
aF349.6617736816406
aF30.612808227539062
aF-0.39030295610427856
aF0.354247123003006
aF0.06397552788257599
aa(lp30
F0.187591552734375
aF32.230987548828125
aF-0.6865997314453125
aF0.015102952718734741
aF0.021878182888031006
aF-0.0028252452611923218
aF0.6247224807739258
aF77.53359985351562
aF-4.051765441894531
aF0.021669387817382812
aF0.04983329772949219
aF0.009844634681940079
aF-0.24953937530517578
aF-13.071624755859375
aF2.6785659790039062
aF0.00853651762008667
aF-0.006076931953430176
aF-0.015495125204324722
aF-11.879095077514648
aF360.357666015625
aF30.518882751464844
aF-0.3852332830429077
aF0.3580992817878723
aF0.06636207550764084
aa(lp31
F0.054175376892089844
aF31.453887939453125
aF-0.3997611999511719
aF0.01524418592453003
aF0.018316566944122314
aF0.001081913709640503
aF0.611638069152832
aF76.23663330078125
aF-2.7695579528808594
aF0.025083929300308228
aF0.04663845896720886
aF0.011244457215070724
aF-0.5032873153686523
aF-13.328857421875
aF1.9700355529785156
aF0.005404442548751831
aF-0.010005325078964233
aF-0.009080629795789719
aF-11.834095001220703
aF370.613037109375
aF30.671218872070312
aF-0.38071316480636597
aF0.36127370595932007
aF0.0702667236328125
aa(lp32
F0.05263996124267578
aF30.84393310546875
aF0.36708641052246094
aF0.014094650745391846
aF0.013172358274459839
aF0.009887069463729858
aF0.5355215072631836
aF74.49505615234375
aF-1.388101577758789
aF0.029095381498336792
aF0.04158127307891846
aF0.013144228607416153
aF-0.43024158477783203
aF-12.80718994140625
aF2.122274398803711
aF-0.0009060800075531006
aF-0.01523655652999878
aF0.006629910320043564
aF-11.826542854309082
aF380.5057067871094
aF30.979894638061523
aF-0.3762083053588867
aF0.3674194812774658
aF0.07386259734630585
aa(lp33
F-0.09197425842285156
aF30.194305419921875
aF0.9822196960449219
aF0.01539003849029541
aF0.012965589761734009
aF0.01074770838022232
aF0.23081398010253906
aF72.96783447265625
aF-0.2371845245361328
aF0.03355717658996582
aF0.037454694509506226
aF0.012898191809654236
aF-0.4147624969482422
aF-12.5792236328125
aF2.2016239166259766
aF-0.002777099609375
aF-0.011523514986038208
aF0.008597224950790405
aF-11.9710693359375
aF390.5519714355469
aF31.501102447509766
aF-0.3698432445526123
aF0.3710648715496063
aF0.07710978388786316
aa(lp34
F-0.18881511688232422
aF29.1322021484375
aF1.3224411010742188
aF0.016111761331558228
aF0.02517583966255188
aF0.0052270591259002686
aF0.043776512145996094
aF71.61856079101562
aF0.788177490234375
aF0.03573483228683472
aF0.05022844672203064
aF0.006306461989879608
aF-0.42140674591064453
aF-13.354156494140625
aF1.8567047119140625
aF-0.0035113096237182617
aF0.00012323260307312012
aF0.004147656261920929
aF-12.022910118103027
aF399.7452392578125
aF31.99365997314453
aF-0.36460140347480774
aF0.38644954562187195
aF0.07549378275871277
aa(lp35
F-0.2961130142211914
aF28.318511962890625
aF1.6572513580322266
aF0.018635272979736328
aF0.022513866424560547
aF0.0031237155199050903
aF-0.23438549041748047
aF69.66506958007812
aF1.5661659240722656
aF0.038384318351745605
aF0.04697620868682861
aF0.00780150294303894
aF-0.35784053802490234
aF-13.028045654296875
aF1.7483367919921875
aF-0.0011137723922729492
aF-0.0019484758377075195
aF-0.0015540719032287598
aF-12.122655868530273
aF408.82421875
aF32.63714599609375
aF-0.3575730323791504
aF0.38993334770202637
aF0.07698631286621094
aa(lp36
F-0.3000955581665039
aF26.737060546875
aF1.8633270263671875
aF0.016759037971496582
aF0.03395259380340576
aF0.004415817558765411
aF-0.3919820785522461
aF67.62725830078125
aF2.7516212463378906
aF0.03721874952316284
aF0.050770342350006104
aF0.017550073564052582
aF-0.20820903778076172
aF-14.15313720703125
aF0.9750328063964844
aF-0.0037006735801696777
aF0.01713484525680542
aF-0.008718438446521759
aF-12.271164894104004
aF417.2890319824219
aF33.36442947387695
aF-0.3530842065811157
aF0.4050174653530121
aF0.08152560144662857
aa(lp37
F-0.3461456298828125
aF27.017852783203125
aF2.4932518005371094
aF0.018207699060440063
aF0.03716522455215454
aF0.00551673024892807
aF-0.4899606704711914
aF66.40542602539062
aF3.968029022216797
aF0.03883957862854004
aF0.06551548838615417
aF0.0146484375
aF-0.2023305892944336
aF-12.369720458984375
aF1.0184745788574219
aF-0.002424180507659912
aF0.008814960718154907
aF-0.00361497700214386
aF-12.36905574798584
aF426.7630920410156
aF34.48691177368164
aF-0.3463937044143677
aF0.4236147701740265
aF0.08101051300764084
aa(lp38
F-0.2376232147216797
aF26.454681396484375
aF3.4782485961914062
aF0.014381349086761475
aF0.04035469889640808
aF0.023982718586921692
aF-0.52618408203125
aF64.66586303710938
aF5.444175720214844
aF0.03752148151397705
aF0.06901434063911438
aF0.03070230782032013
aF0.050937652587890625
aF-11.756500244140625
aF1.5123214721679688
aF-0.008758783340454102
aF0.011695057153701782
aF0.017263129353523254
aF-12.360279083251953
aF435.2789001464844
aF36.115394592285156
aF-0.3431916832923889
aF0.43028804659843445
aF0.10096903145313263
aa(lp39
F-0.0708475112915039
aF25.614776611328125
aF3.7811622619628906
aF0.02516162395477295
aF0.030983060598373413
aF0.02489030361175537
aF-0.5154695510864258
aF62.398101806640625
aF6.16569709777832
aF0.048285722732543945
aF0.06858104467391968
aF0.032553307712078094
aF0.37377452850341797
aF-11.168548583984375
aF1.396627426147461
aF0.002037525177001953
aF-0.0066149234771728516
aF0.017227299511432648
aF-12.342012405395508
aF442.90380859375
aF37.145591735839844
aF-0.3279225826263428
aF0.4360005259513855
aF0.10641590505838394
aa(lp40
F-0.06924629211425781
aF23.973388671875
aF4.119571685791016
aF0.017881006002426147
aF0.026625394821166992
aF0.0340072438120842
aF-0.46723270416259766
aF60.18450927734375
aF7.105381011962891
aF0.041330546140670776
aF0.07917529344558716
aF0.03790797293186188
aF0.32874011993408203
aF-12.23773193359375
aF1.1337623596191406
aF-0.0055685341358184814
aF-0.025924503803253174
aF0.03010651469230652
aF-12.438302040100098
aF450.7364807128906
aF38.606483459472656
aF-0.32851269841194153
aF0.4502401649951935
aF0.11501775681972504
aa(lp41
F-0.49802207946777344
aF24.003692626953125
aF3.169464111328125
aF0.021541327238082886
aF0.013047665357589722
aF0.020971745252609253
aF-0.8353910446166992
aF59.537353515625
aF7.29119873046875
aF0.04295104742050171
aF0.05688616633415222
aF0.046446993947029114
aF-0.16065311431884766
aF-11.52996826171875
aF-0.9522705078125
aF0.0001316070556640625
aF-0.03079083561897278
aF-0.004503503441810608
aF-12.858301162719727
aF459.2825927734375
aF39.28485870361328
aF-0.32165035605430603
aF0.44333571195602417
aF0.12194077670574188
aa(lp42
F-0.7234001159667969
aF22.330841064453125
aF3.1519699096679688
aF0.007827550172805786
aF0.007840603590011597
aF0.02770835906267166
aF-0.9427566528320312
aF56.410430908203125
aF7.6604156494140625
aF0.0374779999256134
aF0.05390778183937073
aF0.057137951254844666
aF-0.5040435791015625
aF-11.748748779296875
aF-1.356475830078125
aF-0.02182289958000183
aF-0.038226574659347534
aF-0.0017212331295013428
aF-13.065412521362305
aF465.2346496582031
aF40.29756164550781
aF-0.320095032453537
aF0.4438411295413971
aF0.1341242641210556
aa(lp43
F-0.7102880477905273
aF20.40631103515625
aF3.4043617248535156
aF0.006747335195541382
aF0.007310271263122559
aF0.02440541982650757
aF-0.8774251937866211
aF53.853759765625
aF8.646415710449219
aF0.031318843364715576
aF0.052532970905303955
aF0.057897575199604034
aF-0.5431509017944336
aF-13.0411376953125
aF-1.8376922607421875
aF-0.017824172973632812
aF-0.03791242837905884
aF-0.009086735546588898
aF-13.148590087890625
aF471.1427917480469
aF42.01084518432617
aF-0.32176536321640015
aF0.45755043625831604
aF0.1394231766462326
aa(lp44
F-0.510498046875
aF17.306182861328125
aF3.8266029357910156
aF0.006003230810165405
aF0.030552327632904053
aF0.004052415490150452
aF-0.9997434616088867
aF49.82568359375
aF8.624549865722656
aF0.03074657917022705
aF0.05027326941490173
aF0.044982679188251495
aF-0.02125263214111328
aF-15.21331787109375
aF-0.971343994140625
aF-0.01874011754989624
aF0.010831385850906372
aF-0.03687784820795059
aF-13.368799209594727
aF476.5887756347656
aF43.1114616394043
aF-0.3156471252441406
aF0.4738880395889282
aF0.12599319219589233
aa(lp45
F-0.5564966201782227
aF17.497344970703125
aF4.221912384033203
aF0.015455305576324463
aF0.0421220064163208
aF-0.027612842619419098
aF-1.2616300582885742
aF47.453094482421875
aF8.40407943725586
aF0.03855195641517639
aF0.05567508935928345
aF0.005542390048503876
aF0.1486368179321289
aF-12.458404541015625
aF0.039745330810546875
aF-0.007641345262527466
aF0.028568923473358154
aF-0.06076807528734207
aF-13.621909141540527
aF482.73199462890625
aF44.519474029541016
aF-0.3046397268772125
aF0.4859631359577179
aF0.1065114215016365
aa(lp46
F-0.6845483779907227
aF18.900054931640625
aF5.7005767822265625
aF0.01338467001914978
aF0.038410484790802
aF-0.00958724319934845
aF-1.4911260604858398
aF47.1390380859375
aF10.56583023071289
aF0.019541889429092407
aF0.059960395097732544
aF0.023420028388500214
aF0.12202930450439453
aF-9.33892822265625
aF0.8353233337402344
aF0.007227450609207153
aF0.01686057448387146
aF-0.04259451478719711
aF-13.833138465881348
aF490.0428466796875
aF47.711421966552734
aF-0.30838069319725037
aF0.49596092104911804
aF0.12983593344688416
aa(lp47
F-0.9544363021850586
aF20.538177490234375
aF5.231483459472656
aF0.016409724950790405
aF0.028907716274261475
aF0.004276692867279053
aF-1.8849334716796875
aF46.390472412109375
aF9.736461639404297
aF0.02927529811859131
aF0.052555590867996216
aF0.01525212824344635
aF-0.023939132690429688
aF-5.314117431640625
aF0.7265052795410156
aF0.003544151782989502
aF0.005259841680526733
aF-0.006698742508888245
aF-14.323235511779785
aF497.126953125
aF48.34294509887695
aF-0.2992374002933502
aF0.5027957558631897
aF0.1302698850631714
aa(lp48
F-0.9504566192626953
aF20.99078369140625
aF6.132305145263672
aF0.009658992290496826
aF0.014388173818588257
aF0.026398278772830963
aF-1.714064598083496
aF44.440185546875
aF11.366920471191406
aF0.026669621467590332
aF0.05701559782028198
aF0.010968923568725586
aF-0.18684864044189453
aF-2.4586181640625
aF0.8976898193359375
aF-0.00735163688659668
aF-0.02823925018310547
aF0.04182763397693634
aF-14.572365760803223
aF503.7227783203125
aF50.65177917480469
aF-0.2949807345867157
aF0.5003513097763062
aF0.13290970027446747
aa(lp49
F-1.0706539154052734
aF20.592315673828125
aF4.066829681396484
aF0.0049250125885009766
aF0.03635755181312561
aF0.0008316189050674438
aF-1.8383798599243164
aF45.4005126953125
aF11.480690002441406
aF0.016639351844787598
aF0.08847734332084656
aF-0.003456711769104004
aF-0.30292797088623047
aF-4.21588134765625
aF-3.3470306396484375
aF-0.0067893266677856445
aF-0.015762239694595337
aF0.005119949579238892
aF-14.903792381286621
aF510.6351623535156
aF51.77825164794922
aF-0.3034556806087494
aF0.5323184728622437
aF0.1306675523519516
aa(lp50
F-0.8903656005859375
aF17.386962890625
aF4.535411834716797
aF0.013607949018478394
aF0.012356281280517578
aF-0.0181962251663208
aF-2.0650110244750977
aF43.371124267578125
aF10.867511749267578
aF0.03613591194152832
aF0.057601600885391235
aF-0.02734951674938202
aF0.28427982330322266
aF-8.597198486328125
aF-1.7966880798339844
aF-0.008920013904571533
aF-0.03288903832435608
aF-0.009042933583259583
aF-15.213601112365723
aF514.513916015625
aF52.87835693359375
aF-0.2856294512748718
aF0.5151520371437073
aF0.11207365989685059
aa(lp51
F-1.1838979721069336
aF16.34002685546875
aF3.8295326232910156
aF0.017000526189804077
aF0.0083884596824646
aF-0.025430835783481598
aF-2.3874645233154297
aF43.474029541015625
aF11.369850158691406
aF0.037666916847229004
aF0.03485172986984253
aF-0.018514327704906464
aF0.0196685791015625
aF-10.793975830078125
aF-3.710784912109375
aF-0.0036658644676208496
aF-0.01807481050491333
aF-0.03234734386205673
aF-15.756263732910156
aF520.0628051757812
aF54.4813117980957
aF-0.2779802083969116
aF0.5087397694587708
aF0.10747886449098587
aa(lp52
F-1.3216562271118164
aF13.461944580078125
aF3.4595947265625
aF0.03616189956665039
aF-0.025708258152008057
aF-0.02726038545370102
aF-2.60353946685791
aF41.3651123046875
aF10.718372344970703
aF0.037345945835113525
aF0.0206470787525177
aF-0.0031042546033859253
aF-0.039772987365722656
aF-14.44122314453125
aF-3.799182891845703
aF0.034977853298187256
aF-0.07206359505653381
aF-0.05141651630401611
aF-16.225448608398438
aF524.0971069335938
aF55.23784637451172
aF-0.267293781042099
aF0.5066102147102356
aF0.10340716689825058
aa(lp53
F-1.411900520324707
aF12.7630615234375
aF3.560474395751953
aF0.02599114179611206
aF-0.011103808879852295
aF0.004671603441238403
aF-2.792363166809082
aF37.234130859375
aF8.727409362792969
aF0.0487423837184906
aF0.008087307214736938
aF-0.013090670108795166
aF-0.03143787384033203
aF-11.7080078125
aF-1.6064605712890625
aF0.0032398998737335205
aF-0.03029492497444153
aF0.022433876991271973
aF-16.62550163269043
aF527.2769775390625
aF56.4388313293457
aF-0.25963830947875977
aF0.504048228263855
aF0.11674526333808899
aa(lp54
F-1.6899604797363281
aF13.13787841796875
aF3.8425369262695312
aF0.018108248710632324
aF0.020018577575683594
aF0.017005212604999542
aF-3.122988700866699
aF36.07373046875
aF9.980903625488281
aF0.03936544060707092
aF0.02596259117126465
aF-0.005785807967185974
aF-0.25693225860595703
aF-9.7979736328125
aF-2.2958297729492188
aF-0.0031489431858062744
aF0.014074563980102539
aF0.03979623317718506
aF-17.446224212646484
aF533.20068359375
aF58.323848724365234
aF-0.2598719596862793
aF0.5287583470344543
aF0.12448407709598541
aa(lp55
F-1.5544452667236328
aF11.393798828125
aF3.9635353088378906
aF0.01389920711517334
aF0.000932157039642334
aF0.05643140524625778
aF-3.2075281143188477
aF31.76812744140625
aF8.549602508544922
aF0.04158616065979004
aF0.007191061973571777
aF0.026928871870040894
aF0.09863758087158203
aF-8.98052978515625
aF-0.6225318908691406
aF-0.01378774642944336
aF-0.005326747894287109
aF0.08593393862247467
aF-17.77989387512207
aF535.4909057617188
aF59.20138168334961
aF-0.25339457392692566
aF0.5075423717498779
aF0.15983857214450836
aa(lp56
F-1.8857173919677734
aF14.92034912109375
aF6.378608703613281
aF0.007605612277984619
aF0.00866633653640747
aF0.05561259388923645
aF-3.607426643371582
aF31.562164306640625
aF11.039188385009766
aF0.05142298340797424
aF-0.0196039080619812
aF0.04169030487537384
aF-0.16400814056396484
aF-1.721466064453125
aF1.7180290222167969
aF-0.036211758852005005
aF0.03693658113479614
aF0.06953488290309906
aF-18.511219024658203
aF542.1973266601562
aF62.817440032958984
aF-0.25203269720077515
aF0.5127145648002625
aF0.17235785722732544
aa(lp57
F-1.6506729125976562
aF13.00274658203125
aF6.173702239990234
aF0.011544868350028992
aF-0.014050841331481934
aF0.04173433780670166
aF-3.883296012878418
aF31.68951416015625
aF11.619194030761719
aF0.03730235993862152
aF-0.0004445314407348633
aF0.05414475500583649
aF0.5819501876831055
aF-5.68402099609375
aF0.72821044921875
aF-0.014212623238563538
aF-0.027657151222229004
aF0.029323920607566833
aF-19.09689712524414
aF546.2034301757812
aF64.49755096435547
aF-0.2483270913362503
aF0.5147075057029724
aF0.16621841490268707
aa(lp58
F-1.9722137451171875
aF15.302734375
aF10.355754852294922
aF-0.005975216627120972
aF0.016745567321777344
aF0.03565075993537903
aF-3.9958438873291016
aF30.7308349609375
aF15.075824737548828
aF0.01861041784286499
aF0.015548169612884521
aF0.08801046758890152
aF0.05141639709472656
aF-0.1253662109375
aF5.635684967041016
aF-0.030560851097106934
aF0.017942965030670166
aF-0.016708947718143463
aF-19.752107620239258
aF550.7936401367188
aF69.55713653564453
aF-0.25936979055404663
aF0.5242879390716553
aF0.1954893320798874
aa(lp59
F-1.9509201049804688
aF13.45074462890625
aF9.03146743774414
aF-0.0218125581741333
aF0.013879716396331787
aF0.067919060587883
aF-4.236690521240234
aF31.55096435546875
aF16.611061096191406
aF-0.006551474332809448
aF0.019984066486358643
aF0.13686975091695786
aF0.3348503112792969
aF-4.64947509765625
aF1.451873779296875
aF-0.03707364201545715
aF0.007775366306304932
aF-0.001031629741191864
aF-20.462139129638672
aF555.6480712890625
aF71.84890747070312
aF-0.27384525537490845
aF0.5265942811965942
aF0.24027691781520844
aa(lp60
F-3.199434280395508
aF16.49346923828125
aF7.7700042724609375
aF-0.012076452374458313
aF0.030412912368774414
aF0.029830962419509888
aF-5.670829772949219
aF35.419921875
aF15.828723907470703
aF-0.0007652342319488525
aF0.041072189807891846
aF0.07930411398410797
aF-0.7280387878417969
aF-2.4329833984375
aF-0.2887153625488281
aF-0.023387670516967773
aF0.019753634929656982
aF-0.019642189145088196
aF-22.29633140563965
aF562.6968994140625
aF72.2675552368164
aF-0.2604035437107086
aF0.5451204180717468
aF0.19604937732219696
aa.