(lp0
(lp1
F-27.955772399902344
aF145.1179962158203
aF-6.517064094543457
aF-0.3345278799533844
aF0.1642952263355255
aF0.1519511342048645
aF-0.14241790771484375
aF0.005828857421875
aF-13.498628616333008
aF0.00575903058052063
aF-0.014843359589576721
aF-0.023194611072540283
aF-2.258983612060547
aF-1.5018310546875
aF-32.840800285339355
aF0.0043035149574279785
aF-0.013266295194625854
aF-0.042748332023620605
aF1.9741477966308594
aF1.51348876953125
aF5.84354305267334
aF0.007214546203613281
aF-0.016420423984527588
aF-0.003640890121459961
aa(lp2
F-27.994155883789062
aF147.06552124023438
aF-10.977765083312988
aF-0.33191967010498047
aF0.16068780422210693
aF0.1373491734266281
aF-0.1308917999267578
aF2.5461883544921875
aF-13.454596757888794
aF0.006804406642913818
aF-0.0136699378490448
aF-0.0329490602016449
aF-1.5784263610839844
aF0.6973724365234375
aF-32.19678020477295
aF0.008280903100967407
aF-0.018878698348999023
aF-0.054265812039375305
aF1.3166427612304688
aF4.3950042724609375
aF5.287586688995361
aF0.0053279101848602295
aF-0.008461177349090576
aF-0.01163230836391449
aa(lp3
F-28.177715301513672
aF150.31192016601562
aF-15.076436042785645
aF-0.3277255594730377
aF0.15152980387210846
aF0.12236294150352478
aF-0.22890090942382812
aF5.8614349365234375
aF-12.969413757324219
aF0.008810251951217651
aF-0.017229482531547546
aF-0.03876623511314392
aF-1.1462516784667969
aF4.257232666015625
aF-31.49574565887451
aF0.01339760422706604
aF-0.030808955430984497
aF-0.061503782868385315
aF0.6884498596191406
aF7.46563720703125
aF5.556918144226074
aF0.004222899675369263
aF-0.0036500096321105957
aF-0.016028687357902527
aa(lp4
F-28.470022201538086
aF155.4757537841797
aF-18.801000595092773
aF-0.3238048255443573
aF0.1402920037508011
aF0.11540891975164413
aF-0.5142498016357422
aF10.357757568359375
aF-12.283936500549316
aF0.0107230544090271
aF-0.024003222584724426
aF-0.03654221445322037
aF-0.9433021545410156
aF9.772369384765625
aF-30.440994262695312
aF0.017609387636184692
aF-0.042527541518211365
aF-0.06476593762636185
aF-0.08519744873046875
aF10.943145751953125
aF5.87312126159668
aF0.003836721181869507
aF-0.005478903651237488
aF-0.008318491280078888
aa(lp5
F-29.012537002563477
aF163.4821014404297
aF-22.096080780029297
aF-0.3205627202987671
aF0.13178221881389618
aF0.10723379254341125
aF-1.018381118774414
aF16.416580200195312
aF-11.118315696716309
aF0.011356949806213379
aF-0.028905585408210754
aF-0.030115380883216858
aF-1.1991825103759766
aF18.36993408203125
aF-29.077645301818848
aF0.01972419023513794
aF-0.047356367111206055
aF-0.06791195273399353
aF-0.8375797271728516
aF14.463226318359375
aF6.8410139083862305
aF0.0029897093772888184
aF-0.010454803705215454
aF0.0076811909675598145
aa(lp6
F-29.824907302856445
aF173.55502319335938
aF-25.0966796875
aF-0.31891047954559326
aF0.13042332231998444
aF0.10254546254873276
aF-1.6471920013427734
aF23.24310302734375
aF-10.020243644714355
aF0.008815079927444458
aF-0.021106481552124023
aF-0.019817478954792023
aF-1.9616432189941406
aF29.035690307617188
aF-27.573511362075806
aF0.019813597202301025
aF-0.0439344197511673
aF-0.06775277107954025
aF-1.3327407836914062
aF17.450515747070312
aF7.533024072647095
aF-0.0021834373474121094
aF0.0017214566469192505
aF0.028117813169956207
aa(lp7
F-31.241830825805664
aF185.47422790527344
aF-27.368946075439453
aF-0.31709960103034973
aF0.12932272255420685
aF0.10048887133598328
aF-2.771808624267578
aF29.99847412109375
aF-8.56794548034668
aF0.006705224514007568
aF-0.010969281196594238
aF-0.014920048415660858
aF-3.2930164337158203
aF41.02374267578125
aF-25.261923789978027
aF0.01943621039390564
aF-0.03943656384944916
aF-0.060640305280685425
aF-2.250600814819336
aF18.97320556640625
aF8.126032829284668
aF-0.006025761365890503
aF0.01749800145626068
aF0.03080020844936371
aa(lp8
F-33.28607177734375
aF199.0318603515625
aF-29.265642166137695
aF-0.31378668546676636
aF0.12656153738498688
aF0.09749028831720352
aF-4.273534774780273
aF35.54975891113281
aF-7.169561386108398
aF0.006776034832000732
aF-0.005220681428909302
aF-0.009743504226207733
aF-5.330299377441406
aF53.91386413574219
aF-22.74857807159424
aF0.020741194486618042
aF-0.037733688950538635
aF-0.05446084588766098
aF-3.2167701721191406
aF17.185653686523438
aF8.409455299377441
aF-0.007189124822616577
aF0.027292326092720032
aF0.034973837435245514
aa(lp9
F-35.347984313964844
aF211.44674682617188
aF-30.26260757446289
aF-0.30988946557044983
aF0.1214492991566658
aF0.09904038906097412
aF-5.523077011108398
aF37.8917236328125
aF-5.165927886962891
aF0.009021013975143433
aF-0.008974023163318634
aF-0.0035050734877586365
aF-7.353828430175781
aF64.3812255859375
aF-19.284842491149902
aF0.02203020453453064
aF-0.03923850506544113
aF-0.03830878436565399
aF-3.6923255920410156
aF11.4022216796875
aF8.952986717224121
aF-0.003988176584243774
aF0.021290458738803864
aF0.03129863739013672
aa(lp10
F-38.140716552734375
aF228.32460021972656
aF-31.325902938842773
aF-0.3051096498966217
aF0.12241712957620621
aF0.09531891345977783
aF-6.898885726928711
aF42.850372314453125
aF-3.9569568634033203
aF0.011989951133728027
aF-0.006905592978000641
aF-0.005169957876205444
aF-9.963001251220703
aF78.01268005371094
aF-16.24946689605713
aF0.022615909576416016
aF-0.029112674295902252
aF-0.027044028043746948
aF-3.8347702026367188
aF7.6880645751953125
aF8.335553169250488
aF0.001363992691040039
aF0.01530148833990097
aF0.01670411229133606
aa(lp11
F-41.288421630859375
aF244.95999145507812
aF-32.74781036376953
aF-0.3041895925998688
aF0.1330348253250122
aF0.09753221273422241
aF-8.002349853515625
aF45.928131103515625
aF-3.482168197631836
aF0.009597092866897583
aF0.00647328794002533
aF4.192441701889038e-05
aF-12.818399429321289
aF89.48423767089844
aF-13.946809768676758
aF0.019615232944488525
aF-0.007257178425788879
aF-0.017876707017421722
aF-3.186300277709961
aF2.3720245361328125
aF6.982473373413086
aF-0.0004210472106933594
aF0.02020375430583954
aF0.017960555851459503
aa(lp12
F-44.45104217529297
aF261.42559814453125
aF-33.65751266479492
aF-0.3040020763874054
aF0.13908354938030243
aF0.10379542410373688
aF-9.103057861328125
aF49.978851318359375
aF-3.3949050903320312
aF0.005887389183044434
aF0.017634250223636627
aF0.004755035042762756
aF-15.438505172729492
aF97.94349670410156
aF-11.561431884765625
aF0.016560643911361694
aF0.00730133056640625
aF-0.0034383684396743774
aF-2.767610549926758
aF2.0142059326171875
aF4.7716217041015625
aF-0.004785865545272827
aF0.027967169880867004
aF0.01294843852519989
aa(lp13
F-47.63648986816406
aF277.2343444824219
aF-34.310176849365234
aF-0.3029223680496216
aF0.14093834161758423
aF0.10950729995965958
aF-9.495773315429688
aF48.90974426269531
aF-2.984273910522461
aF0.002187281847000122
aF0.01852121204137802
aF0.014188386499881744
aF-17.811582565307617
aF103.6793212890625
aF-9.213497161865234
aF0.01598811149597168
aF0.010515019297599792
aF0.006961837410926819
aF-1.1799640655517578
aF-5.859832763671875
aF3.2449493408203125
aF-0.011613547801971436
aF0.02652740478515625
aF0.02141493558883667
aa(lp14
F-50.51443099975586
aF292.2262268066406
aF-34.54130554199219
aF-0.302087664604187
aF0.14321251213550568
aF0.11758162081241608
aF-9.226009368896484
aF47.2662353515625
aF-1.7934951782226562
aF0.0021019279956817627
aF0.01017768681049347
aF0.020049408078193665
aF-19.272600173950195
aF106.75199890136719
aF-7.172359466552734
aF0.01501193642616272
aF0.013889789581298828
aF0.0170927494764328
aF0.8205814361572266
aF-12.219528198242188
aF3.585369110107422
aF-0.010808080434799194
aF0.00646558403968811
aF0.02300606667995453
aa(lp15
F-53.18457794189453
aF306.9329528808594
aF-34.35811233520508
aF-0.3033882975578308
aF0.14615300297737122
aF0.12814807891845703
aF-8.733535766601562
aF45.507354736328125
aF-0.7005996704101562
aF0.000613778829574585
aF0.007069453597068787
aF0.024352654814720154
aF-19.89850616455078
aF107.90109252929688
aF-5.092470169067383
aF0.010398387908935547
aF0.01959146559238434
aF0.03065779060125351
aF2.4314346313476562
aF-16.886383056640625
aF3.6912708282470703
aF-0.009170830249786377
aF-0.005452558398246765
aF0.018047519028186798
aa(lp16
F-56.137351989746094
aF321.58929443359375
aF-33.226234436035156
aF-0.31324294209480286
aF0.1551932990550995
aF0.15727964043617249
aF-8.500862121582031
aF44.354949951171875
aF1.0839424133300781
aF-0.010320574045181274
aF0.014254957437515259
aF0.04777234047651291
aF-20.78936767578125
aF110.14254760742188
aF-2.9636268615722656
aF-0.0033534765243530273
aF0.033743999898433685
aF0.058239251375198364
aF3.7876434326171875
aF-21.432647705078125
aF5.131511688232422
aF-0.01728767156600952
aF-0.005234085023403168
aF0.037305429577827454
aa(lp17
F-59.0114631652832
aF335.40142822265625
aF-33.39092254638672
aF-0.31665608286857605
aF0.16247203946113586
aF0.1692480742931366
aF-8.497032165527344
aF43.175201416015625
aF1.1503829956054688
aF-0.014568418264389038
aF0.019259527325630188
aF0.05166645348072052
aF-20.870746612548828
aF107.07682800292969
aF-2.0650196075439453
aF-0.011546432971954346
aF0.04005490988492966
aF0.07392916083335876
aF3.8766822814941406
aF-20.726425170898438
aF4.365785598754883
aF-0.01759040355682373
aF-0.001535855233669281
aF0.029403746128082275
aa(lp18
F-61.782554626464844
aF348.9039611816406
aF-32.99589157104492
aF-0.3209548890590668
aF0.1813027262687683
aF0.17419981956481934
aF-8.597976684570312
aF41.97100830078125
aF1.3622207641601562
aF-0.017566591501235962
aF0.035149723291397095
aF0.046051740646362305
aF-20.49413299560547
aF103.9439697265625
aF-0.24808120727539062
aF-0.016765296459197998
aF0.048267900943756104
aF0.07666760683059692
aF3.2981796264648438
aF-20.001953125
aF2.972522735595703
aF-0.018367886543273926
aF0.022031545639038086
aF0.015435874462127686
aa(lp19
F-64.50968170166016
aF362.321533203125
aF-31.827327728271484
aF-0.32699713110923767
aF0.19391752779483795
aF0.18860219419002533
aF-8.372329711914062
aF40.73223876953125
aF1.3989067077636719
aF-0.013754189014434814
aF0.038724228739738464
aF0.031322553753852844
aF-20.058639526367188
aF100.89593505859375
aF1.8301849365234375
aF-0.022995054721832275
aF0.05483397841453552
aF0.08480677008628845
aF3.3139801025390625
aF-19.43145751953125
aF0.9676284790039062
aF-0.0045133233070373535
aF0.022614479064941406
aF-0.022161662578582764
aa(lp20
F-65.76812744140625
aF373.1341857910156
aF-28.043439865112305
aF-0.33011382818222046
aF0.20483079552650452
aF0.19545724987983704
aF-6.756664276123047
aF37.732757568359375
aF5.347482681274414
aF-0.01345774531364441
aF0.04235875606536865
aF0.02620917558670044
aF-18.131637573242188
aF95.89984130859375
aF6.26673698425293
aF-0.027191460132598877
aF0.06389245390892029
aF0.08594994992017746
aF4.618309020996094
aF-20.434326171875
aF4.428228378295898
aF0.0002759695053100586
aF0.020825058221817017
aF-0.03353159874677658
aa(lp21
F-67.94341278076172
aF386.074951171875
aF-26.485937118530273
aF-0.3357902765274048
aF0.2087184190750122
aF0.2184724062681198
aF-6.160858154296875
aF37.170989990234375
aF6.509954452514648
aF-0.014835387468338013
aF0.027415692806243896
aF0.044272586703300476
aF-17.42898178100586
aF93.84872436523438
aF8.055368423461914
aF-0.03370261192321777
aF0.06550590693950653
aF0.10089078545570374
aF5.107265472412109
aF-19.506744384765625
aF4.964540481567383
aF0.004031836986541748
aF-0.010674521327018738
aF-0.012345612049102783
aa(lp22
F-70.59014892578125
aF398.1622009277344
aF-27.4173641204834
aF-0.3407301902770996
aF0.22892096638679504
aF0.22115901112556458
aF-6.080467224121094
aF35.840667724609375
aF4.409963607788086
aF-0.013733059167861938
aF0.03500343859195709
aF0.032556816935539246
aF-17.40557098388672
aF91.229248046875
aF6.94074821472168
aF-0.0373418927192688
aF0.08276796340942383
aF0.09301093220710754
aF5.244636535644531
aF-19.54791259765625
aF1.8791790008544922
aF0.009875774383544922
aF-0.012761086225509644
aF-0.027897298336029053
aa(lp23
F-73.56423950195312
aF411.2019348144531
aF-29.71643829345703
aF-0.3503464162349701
aF0.23818263411521912
aF0.23686078190803528
aF-7.796112060546875
aF38.0677490234375
aF-1.6729984283447266
aF-0.020232588052749634
aF0.0333518385887146
aF0.04140353202819824
aF-17.42688751220703
aF89.61264038085938
aF3.509796142578125
aF-0.037103474140167236
aF0.08298933506011963
aF0.07958114147186279
aF1.8346633911132812
aF-13.477142333984375
aF-6.855792999267578
aF-0.0033617019653320312
aF-0.01628565788269043
aF0.0032259225845336914
aa(lp24
F-75.9787368774414
aF424.2349548339844
aF-29.09947395324707
aF-0.3645403981208801
aF0.24437981843948364
aF0.267761766910553
aF-8.035324096679688
aF38.160003662109375
aF-2.613536834716797
aF-0.028750121593475342
aF0.035661399364471436
aF0.049289360642433167
aF-16.967273712158203
aF88.83352661132812
aF4.291448593139648
aF-0.04788431525230408
aF0.08190777897834778
aF0.09851369261741638
aF0.8966255187988281
aF-12.513519287109375
aF-9.518522262573242
aF-0.009615927934646606
aF-0.010584980249404907
aF6.502866744995117e-05
aa(lp25
F-77.65274810791016
aF435.3020324707031
aF-27.71963119506836
aF-0.3700571358203888
aF0.2341071367263794
aF0.3009606599807739
aF-7.062599182128906
aF37.13983154296875
aF-0.30226707458496094
aF-0.029326945543289185
aF0.005186170339584351
aF0.07980164885520935
aF-15.870193481445312
aF86.3980712890625
aF5.2762603759765625
aF-0.04910224676132202
aF0.052804410457611084
aF0.1267608404159546
aF1.7449951171875
aF-12.118408203125
aF-5.880794525146484
aF-0.009551644325256348
aF-0.04243206977844238
aF0.03284245729446411
aa(lp26
F-79.53592681884766
aF446.53631591796875
aF-26.290773391723633
aF-0.3589147925376892
aF0.2161581963300705
aF0.3335539400577545
aF-5.971687316894531
aF35.334381103515625
aF3.4256649017333984
aF-0.008568376302719116
aF-0.02202443778514862
aF0.09669315814971924
aF-15.0262451171875
aF84.21478271484375
aF5.536554336547852
aF-0.03191766142845154
aF0.022240668535232544
aF0.1449517458677292
aF3.0828704833984375
aF-13.5460205078125
aF1.3147754669189453
aF0.014780908823013306
aF-0.06628954410552979
aF0.04843457043170929
aa(lp27
F-81.8370590209961
aF458.3307800292969
aF-24.616317749023438
aF-0.3489752411842346
aF0.21618184447288513
aF0.3449142277240753
aF-5.8583221435546875
aF34.0958251953125
aF4.483156204223633
aF0.015565156936645508
aF-0.02819797396659851
aF0.07715246081352234
aF-16.068931579589844
aF85.19659423828125
aF3.427122116088867
aF-0.01886141300201416
aF0.011351048946380615
aF0.14945697784423828
aF4.352287292480469
aF-17.00494384765625
aF5.539190292358398
aF0.049991726875305176
aF-0.06774699687957764
aF0.0048479437828063965
aa(lp28
F-83.42595672607422
aF469.0475158691406
aF-22.30652618408203
aF-0.3529709577560425
aF0.24807317554950714
aF0.34404584765434265
aF-5.7732086181640625
aF33.7454833984375
aF5.413105010986328
aF0.017086178064346313
aF0.013966038823127747
aF0.043085187673568726
aF-15.4825439453125
aF82.97256469726562
aF4.179410934448242
aF-0.017180681228637695
aF0.039354756474494934
aF0.12557344138622284
aF3.936126708984375
aF-15.481597900390625
aF6.646799087524414
aF0.05135303735733032
aF-0.011422678828239441
aF-0.03940306603908539
aa(lp29
F-85.60579681396484
aF480.7638854980469
aF-19.056941986083984
aF-0.3446354866027832
aF0.2492017298936844
aF0.35511237382888794
aF-6.0698699951171875
aF34.227569580078125
aF7.233831405639648
aF0.014279305934906006
aF0.03304353356361389
aF0.021558433771133423
aF-15.015647888183594
aF82.6016845703125
aF8.360422134399414
aF-0.0039052963256835938
aF0.020280763506889343
aF0.13395336270332336
aF2.8759078979492188
aF-14.14654541015625
aF6.107240676879883
aF0.032463908195495605
aF0.04580630362033844
aF-0.09083649516105652
aa(lp30
F-86.87320709228516
aF487.8787841796875
aF-16.42348289489746
aF-0.36606040596961975
aF0.23852010071277618
aF0.3698605000972748
aF-5.0361480712890625
aF29.548004150390625
aF8.192834854125977
aF-0.017085164785385132
aF0.022338256239891052
aF0.024946272373199463
aF-13.308967590332031
aF76.67684936523438
aF13.29295539855957
aF-0.015713989734649658
aF0.00033746659755706787
aF0.1329997181892395
aF3.2366714477539062
aF-17.580841064453125
aF3.092714309692383
aF-0.018456339836120605
aF0.04433904588222504
aF-0.08310717344284058
aa.