(lp0
(lp1
F0.7720222473144531
aF-3.1286087036132812
aF-1.0719108581542969
aF-0.005064785480499268
aF-0.010190457105636597
aF-0.00962287187576294
aF1.6979522705078125
aF-11.793357849121094
aF-1.3727169036865234
aF-0.011373043060302734
aF-0.012633323669433594
aF-0.025474652647972107
aF-0.15390777587890625
aF5.536140441894531
aF-0.7711048126220703
aF0.0012434720993041992
aF-0.0077475905418396
aF0.006228908896446228
aF-16.251806259155273
aF124.16913604736328
aF20.601747512817383
aF-0.34356603026390076
aF0.2738748788833618
aF0.17867767810821533
aa(lp2
F1.0423974990844727
aF-2.32763671875
aF-1.193105697631836
aF0.0010914802551269531
aF-0.011960119009017944
aF-0.009149432182312012
aF1.7080049514770508
aF-8.570564270019531
aF-1.994668960571289
aF-0.007858842611312866
aF-0.01788821816444397
aF-0.021440088748931885
aF0.37679004669189453
aF3.9152908325195312
aF-0.3915424346923828
aF0.010041803121566772
aF-0.006032019853591919
aF0.0031412243843078613
aF-15.804621696472168
aF123.76416778564453
aF20.2069034576416
aF-0.33951786160469055
aF0.2707176208496094
aF0.1751907467842102
aa(lp3
F1.2502079010009766
aF-1.1814422607421875
aF-1.3033561706542969
aF0.005980879068374634
aF-0.011165708303451538
aF-0.008758187294006348
aF2.021158218383789
aF-6.759819030761719
aF-2.539857864379883
aF-0.0017634034156799316
aF-0.019807368516921997
aF-0.02276487648487091
aF0.47925758361816406
aF4.396934509277344
aF-0.06685447692871094
aF0.0137251615524292
aF-0.002524048089981079
aF0.005248501896858215
aF-15.295888900756836
aF123.75672149658203
aF19.7288761138916
aF-0.3361079692840576
aF0.2679705023765564
aF0.17172452807426453
aa(lp4
F1.493973731994629
aF0.10916900634765625
aF-1.5517196655273438
aF0.01057407259941101
aF-0.010211795568466187
aF-0.009192928671836853
aF2.438431739807129
aF-4.6659088134765625
aF-2.9592533111572266
aF0.003684520721435547
aF-0.022410482168197632
aF-0.022774219512939453
aF0.5495157241821289
aF4.884246826171875
aF-0.14418601989746094
aF0.017463624477386475
aF0.001986891031265259
aF0.004388362169265747
aF-14.757832527160645
aF124.27830505371094
aF19.05002784729004
aF-0.33299195766448975
aF0.26366308331489563
aF0.16948474943637848
aa(lp5
F2.248427391052246
aF3.4338302612304688
aF-2.633136749267578
aF0.012433379888534546
aF-0.014704734086990356
aF-0.014974817633628845
aF3.4676342010498047
aF-0.0997467041015625
aF-4.099891662597656
aF0.011416763067245483
aF-0.028052449226379395
aF-0.02808462083339691
aF1.0292205810546875
aF6.9674072265625
aF-1.1663818359375
aF0.013449996709823608
aF-0.0013570189476013184
aF-0.0018650144338607788
aF-13.556194305419922
aF127.197998046875
aF17.573766708374023
aF-0.327084481716156
aF0.256012886762619
aF0.16021592915058136
aa(lp6
F2.4206695556640625
aF5.922874450683594
aF-2.897329330444336
aF0.011502832174301147
aF-0.016844719648361206
aF-0.015065953135490417
aF3.971799850463867
aF3.5877914428710938
aF-4.568462371826172
aF0.016004204750061035
aF-0.03155195713043213
aF-0.027681604027748108
aF0.8695392608642578
aF8.257957458496094
aF-1.2261962890625
aF0.00700145959854126
aF-0.002137482166290283
aF-0.002450302243232727
aF-12.875219345092773
aF129.67959594726562
aF16.831546783447266
aF-0.32460513710975647
aF0.2511257827281952
aF0.1566585749387741
aa(lp7
F2.582429885864258
aF8.40582275390625
aF-2.824535369873047
aF0.01007312536239624
aF-0.01683226227760315
aF-0.015858665108680725
aF4.370694160461426
aF7.745964050292969
aF-4.806739807128906
aF0.019170016050338745
aF-0.032305389642715454
aF-0.02685663104057312
aF0.7941656112670898
aF9.065681457519531
aF-0.8423309326171875
aF0.0009762346744537354
aF-0.0013591349124908447
aF-0.00486069917678833
aF-12.175402641296387
aF132.6841278076172
aF16.225492477416992
aF-0.3229188323020935
aF0.24683082103729248
aF0.15362608432769775
aa(lp8
F2.1711578369140625
aF9.455963134765625
aF-2.029606819152832
aF0.0054617226123809814
aF-0.013458892703056335
aF-0.008936434984207153
aF4.866769790649414
aF12.484825134277344
aF-5.057587623596191
aF0.021943271160125732
aF-0.03132088482379913
aF-0.027398183941841125
aF-0.5244541168212891
aF6.427101135253906
aF0.9983739852905273
aF-0.01101982593536377
aF0.004403099417686462
aF0.009525313973426819
aF-11.38503646850586
aF136.65396118164062
aF15.544159889221191
aF-0.321622759103775
aF0.24255399405956268
aF0.1512794941663742
aa(lp9
F3.0452165603637695
aF15.844253540039062
aF-2.373016357421875
aF0.004373013973236084
aF-0.019861280918121338
aF-0.008993759751319885
aF5.974618911743164
aF21.759681701660156
aF-5.748373031616211
aF0.019285738468170166
aF-0.03945311903953552
aF-0.02752593159675598
aF0.115814208984375
aF9.928825378417969
aF1.002340316772461
aF-0.010539710521697998
aF-0.0002694427967071533
aF0.009538412094116211
aF-9.830002784729004
aF145.5238494873047
aF14.45853042602539
aF-0.3202321231365204
aF0.23126450181007385
aF0.14766481518745422
aa(lp10
F3.0515356063842773
aF17.882644653320312
aF-2.3343257904052734
aF0.004189938306808472
aF-0.02494180202484131
aF-0.007984146475791931
aF6.172021865844727
aF26.81005096435547
aF-5.837709426879883
aF0.017379075288772583
aF-0.046081483364105225
aF-0.026082590222358704
aF-0.06895065307617188
aF8.955238342285156
aF1.169057846069336
aF-0.00899919867515564
aF-0.0038021206855773926
aF0.010114297270774841
aF-9.12386703491211
aF150.5667724609375
aF13.891166687011719
aF-0.31872889399528503
aF0.22188901901245117
aF0.14564193785190582
aa(lp11
F2.838855743408203
aF18.404373168945312
aF-2.123570442199707
aF0.0034629106521606445
aF-0.02905745804309845
aF-0.006292760372161865
aF6.211651802062988
aF30.780029296875
aF-5.629438400268555
aF0.014832109212875366
aF-0.050166547298431396
aF-0.024498015642166138
aF-0.533940315246582
aF6.028717041015625
aF1.3822975158691406
aF-0.007906287908554077
aF-0.007948368787765503
aF0.011912494897842407
aF-8.546180725097656
aF155.05833435058594
aF13.420589447021484
aF-0.3181598484516144
aF0.21349653601646423
aF0.14498673379421234
aa(lp12
F1.9509921073913574
aF14.925949096679688
aF-1.499410629272461
aF0.0028927624225616455
aF-0.026537299156188965
aF-0.0037568509578704834
aF5.677183628082275
aF33.251800537109375
aF-4.614646911621094
aF0.009745121002197266
aF-0.05128568410873413
aF-0.01630796492099762
aF-1.7751994132995605
aF-3.39990234375
aF1.6158256530761719
aF-0.003959596157073975
aF-0.0017889142036437988
aF0.008794263005256653
aF-7.8790106773376465
aF160.44979858398438
aF12.95911979675293
aF-0.31733936071395874
aF0.2047272026538849
aF0.14390796422958374
aa(lp13
F1.9299721717834473
aF15.725738525390625
aF-1.3338146209716797
aF0.002894461154937744
aF-0.0267888605594635
aF-0.003819793462753296
aF5.681324481964111
aF36.6129150390625
aF-4.274194717407227
aF0.00877070426940918
aF-0.05602562427520752
aF-0.014836430549621582
aF-1.8213801383972168
aF-5.16143798828125
aF1.6065654754638672
aF-0.0029817819595336914
aF0.0024479031562805176
aF0.00719684362411499
aF-7.193894863128662
aF166.29251098632812
aF12.557352066040039
aF-0.3158344328403473
aF0.19510015845298767
aF0.14182214438915253
aa(lp14
F1.9865460395812988
aF16.998260498046875
aF-1.2153615951538086
aF0.0037501752376556396
aF-0.027427449822425842
aF-0.006206974387168884
aF5.615767955780029
aF39.372467041015625
aF-4.020264625549316
aF0.008509159088134766
aF-0.06076173484325409
aF-0.014846324920654297
aF-1.6426758766174316
aF-5.375946044921875
aF1.5895414352416992
aF-0.0010088086128234863
aF0.005906835198402405
aF0.0024323761463165283
aF-6.559634685516357
aF172.0565948486328
aF12.205227851867676
aF-0.31440967321395874
aF0.1860690861940384
aF0.13877975940704346
aa(lp15
F1.9155163764953613
aF17.921890258789062
aF-1.3153486251831055
aF0.003504633903503418
aF-0.024532437324523926
aF-0.0070433467626571655
aF5.421542167663574
aF41.71772766113281
aF-3.900388717651367
aF0.007788032293319702
aF-0.06235922873020172
aF-0.014414876699447632
aF-1.5905094146728516
aF-5.8739471435546875
aF1.2696914672851562
aF-0.0007787644863128662
aF0.01329435408115387
aF0.0003281831741333008
aF-5.963494300842285
aF178.37168884277344
aF11.643771171569824
aF-0.3138347268104553
aF0.18019476532936096
aF0.13686461746692657
aa(lp16
F1.7431726455688477
aF18.210479736328125
aF-1.494318962097168
aF0.0019491016864776611
aF-0.018323257565498352
aF-0.0066611021757125854
aF4.3792805671691895
aF38.97914123535156
aF-3.3954973220825195
aF0.006346791982650757
aF-0.054487600922584534
aF-0.012503772974014282
aF-0.8929352760314941
aF-2.5581817626953125
aF0.4068593978881836
aF-0.0024485886096954346
aF0.01784108579158783
aF-0.0008184313774108887
aF-5.4507222175598145
aF184.50299072265625
aF11.063033103942871
aF-0.31388533115386963
aF0.17677690088748932
aF0.13516104221343994
aa(lp17
F1.6842455863952637
aF19.222091674804688
aF-1.624119758605957
aF0.0006606578826904297
aF-0.010778486728668213
aF-0.006298050284385681
aF4.248477935791016
aF40.7119140625
aF-3.31005859375
aF0.004979878664016724
aF-0.046598419547080994
aF-0.013160228729248047
aF-0.8799867630004883
aF-2.267730712890625
aF0.06181907653808594
aF-0.0036585628986358643
aF0.025041446089744568
aF0.0005641281604766846
aF-4.875389099121094
aF191.2786865234375
aF10.581108093261719
aF-0.3137490153312683
aF0.17529059946537018
aF0.13248170912265778
aa(lp18
F1.636899471282959
aF19.907379150390625
aF-1.6772947311401367
aF0.0004322528839111328
aF-0.005020201206207275
aF-0.006643041968345642
aF4.21958589553833
aF43.220733642578125
aF-3.454113006591797
aF0.00475737452507019
aF-0.03832197189331055
aF-0.014765158295631409
aF-0.9457869529724121
aF-3.405975341796875
aF0.09952354431152344
aF-0.003892868757247925
aF0.028281569480895996
aF0.0014790743589401245
aF-4.326594829559326
aF198.27906799316406
aF9.966476440429688
aF-0.3134024739265442
aF0.1751745641231537
aF0.13022157549858093
aa(lp19
F1.6014869213104248
aF20.659759521484375
aF-1.8861494064331055
aF0.0008722245693206787
aF-0.0017030388116836548
aF-0.007138639688491821
aF4.029775381088257
aF44.71295166015625
aF-3.782236099243164
aF0.00432625412940979
aF-0.029653340578079224
aF-0.01588556170463562
aF-0.8268015384674072
aF-3.3934326171875
aF0.009937286376953125
aF-0.0025818049907684326
aF0.026247262954711914
aF0.0016082823276519775
aF-3.8492352962493896
aF205.16275024414062
aF9.176883697509766
aF-0.31301310658454895
aF0.17507386207580566
aF0.12802240252494812
aa(lp20
F1.5072338581085205
aF21.020523071289062
aF-2.182896614074707
aF0.0002544224262237549
aF0.0005998909473419189
aF-0.0047626495361328125
aF3.825739622116089
aF46.00669860839844
aF-4.159140586853027
aF0.0023398399353027344
aF-0.019209668040275574
aF-0.014103084802627563
aF-0.8112719058990479
aF-3.9656524658203125
aF-0.20665264129638672
aF-0.0018309950828552246
aF0.02040944993495941
aF0.0045777857303619385
aF-3.3681552410125732
aF212.29920959472656
aF8.398211479187012
aF-0.31349459290504456
aF0.1758904904127121
aF0.12771905958652496
aa(lp21
F1.4785284996032715
aF20.995925903320312
aF-2.124607563018799
aF-0.00035858154296875
aF0.001810505986213684
aF-0.0033855587244033813
aF3.7115683555603027
aF47.21839904785156
aF-4.363358974456787
aF0.0006486177444458008
aF-0.00908401608467102
aF-0.011943742632865906
aF-0.7545113563537598
aF-5.2265472412109375
aF0.11414384841918945
aF-0.0013657808303833008
aF0.012705028057098389
aF0.005172625184059143
aF-2.8480663299560547
aF219.27499389648438
aF7.841868877410889
aF-0.31376105546951294
aF0.17698507010936737
aF0.12683601677417755
aa(lp22
F1.5079426765441895
aF20.823959350585938
aF-1.9217562675476074
aF-0.001924753189086914
aF0.0056462883949279785
aF0.000271037220954895
aF3.622201681137085
aF47.615020751953125
aF-4.388643741607666
aF-0.001103132963180542
aF0.0005253851413726807
aF-0.00857117772102356
aF-0.606316328048706
aF-5.96710205078125
aF0.5451312065124512
aF-0.002746373414993286
aF0.010767191648483276
aF0.00911325216293335
aF-2.3412926197052
aF225.98670959472656
aF7.255127429962158
aF-0.31493785977363586
aF0.18072015047073364
aF0.12829343974590302
aa(lp23
F1.5753767490386963
aF21.111419677734375
aF-1.6594038009643555
aF-0.0013301372528076172
aF0.007930174469947815
aF-7.386505603790283e-05
aF3.6579437255859375
aF48.90763854980469
aF-4.324225425720215
aF-0.0009393990039825439
aF0.007043763995170593
aF-0.007515847682952881
aF-0.5071902275085449
aF-6.6847991943359375
aF1.005417823791504
aF-0.0017208755016326904
aF0.008816584944725037
aF0.007368117570877075
aF-1.792778491973877
aF233.41062927246094
aF6.738807678222656
aF-0.3148247301578522
aF0.1838206648826599
aF0.12764519453048706
aa(lp24
F1.5550752878189087
aF21.107467651367188
aF-1.509108543395996
aF-0.001794278621673584
aF0.011548608541488647
aF0.0016388893127441406
aF3.5823980569839478
aF49.10377502441406
aF-4.248347759246826
aF-0.0018063187599182129
aF0.01324307918548584
aF-0.004006803035736084
aF-0.47224748134613037
aF-6.8888397216796875
aF1.230130672454834
aF-0.001782238483428955
aF0.009854137897491455
aF0.007284581661224365
aF-1.292991042137146
aF240.38246154785156
aF6.332760334014893
aF-0.3155553340911865
aF0.18853367865085602
aF0.1284749060869217
aa(lp25
F1.5470975637435913
aF21.744369506835938
aF-1.3841495513916016
aF0.0007437467575073242
aF0.010039299726486206
aF0.0003033578395843506
aF3.5323997735977173
aF49.45201110839844
aF-4.095498561859131
aF-0.0007916390895843506
aF0.015584886074066162
aF-0.001624777913093567
aF-0.43820464611053467
aF-5.9632720947265625
aF1.3271994590759277
aF0.002279132604598999
aF0.00449371337890625
aF0.002231493592262268
aF-0.7941950559616089
aF247.7310791015625
aF5.870977878570557
aF-0.31419411301612854
aF0.19075945019721985
aF0.12859679758548737
aa(lp26
F1.3981219828128815
aF21.407852172851562
aF-1.391075611114502
aF0.002532094717025757
aF0.009689956903457642
aF-0.0004805028438568115
aF3.454578787088394
aF49.655731201171875
aF-3.8291516304016113
aF0.0007204711437225342
aF0.01843675971031189
aF-0.0008577108383178711
aF-0.6583348214626312
aF-6.84002685546875
aF1.0470004081726074
aF0.0043437182903289795
aF0.0009431540966033936
aF-0.00010329484939575195
aF-0.3946565091609955
aF254.8184814453125
aF5.347732067108154
aF-0.3122926354408264
aF0.19351062178611755
aF0.12716469168663025
aa(lp27
F1.282773895189166
aF21.858840942382812
aF-1.6286768913269043
aF0.0040940940380096436
aF0.00919388234615326
aF-0.0006509572267532349
aF3.3579380940645933
aF49.94209289550781
aF-3.6941280364990234
aF0.0020333528518676758
aF0.02183707058429718
aF0.00010488927364349365
aF-0.7923903036862612
aF-6.2244110107421875
aF0.43677425384521484
aF0.006154835224151611
aF-0.0034493058919906616
aF-0.0014068037271499634
aF-0.010217146947979927
aF262.2413024902344
aF4.704083442687988
aF-0.3114612400531769
aF0.19772756099700928
aF0.12782394886016846
aa(lp28
F1.2311956882476807
aF21.80474853515625
aF-1.4437212944030762
aF0.0043693482875823975
aF0.008552208542823792
aF-0.00023336708545684814
aF3.2850669622421265
aF50.260833740234375
aF-3.414612293243408
aF0.003936290740966797
aF0.02232658863067627
aF0.0015274137258529663
aF-0.8226755857467651
aF-6.651336669921875
aF0.5271697044372559
aF0.004802405834197998
aF-0.0052221715450286865
aF-0.0019941478967666626
aF0.4370006322860718
aF269.53582763671875
aF4.4272565841674805
aF-0.30982476472854614
aF0.19931165874004364
aF0.12836343050003052
aa(lp29
F1.2874245345592499
aF22.18939208984375
aF-0.9226846694946289
aF0.0034579038619995117
aF0.01190502941608429
aF0.001965150237083435
aF3.2340606451034546
aF51.02116394042969
aF-2.830080032348633
aF0.00610312819480896
aF0.0246955007314682
aF0.0008364021778106689
aF-0.6592115759849548
aF-6.6423797607421875
aF0.984710693359375
aF0.0008126795291900635
aF-0.0008854418992996216
aF0.003093898296356201
aF0.8927680253982544
aF277.00787353515625
aF4.425047397613525
aF-0.3088347315788269
aF0.20541565120220184
aF0.12912984192371368
aa(lp30
F1.270308332517743
aF21.9052734375
aF-0.5672674179077148
aF-0.001245737075805664
aF0.007380321621894836
aF0.002187669277191162
aF3.05286967754364
aF50.73594665527344
aF-2.601991653442383
aF0.002117753028869629
aF0.0212872177362442
aF0.0023664236068725586
aF-0.5122530125081539
aF-6.9253997802734375
aF1.4674568176269531
aF-0.004609227180480957
aF-0.006526574492454529
aF0.0020089149475097656
aF1.2600911855697632
aF284.1465759277344
aF4.136816024780273
aF-0.31270697712898254
aF0.2051078826189041
aF0.13001161813735962
aa(lp31
F1.1092063188552856
aF22.035980224609375
aF-0.6277904510498047
aF-0.006729692220687866
aF0.005943819880485535
aF0.0032885372638702393
aF2.8391979932785034
aF51.18934631347656
aF-2.533294200897217
aF-0.0009991228580474854
aF0.016721799969673157
aF0.003177061676979065
aF-0.6207853555679321
aF-7.1173858642578125
aF1.2777132987976074
aF-0.012460261583328247
aF-0.004834160208702087
aF0.0034000128507614136
aF1.5462069511413574
aF291.5718078613281
aF3.799466133117676
aF-0.316554456949234
aF0.20525547862052917
aF0.13165196776390076
aa(lp32
F0.8980379104614258
aF21.456787109375
aF-0.8251614570617676
aF-0.011929243803024292
aF0.0025633424520492554
aF0.0047287046909332275
aF2.585000991821289
aF50.73358154296875
aF-2.271091938018799
aF-0.006569862365722656
aF0.01721954345703125
aF0.005261749029159546
aF-0.7889251708984375
aF-7.82000732421875
aF0.6207690238952637
aF-0.017288625240325928
aF-0.01209285855293274
aF0.004195660352706909
aF1.7908059358596802
aF298.46466064453125
aF3.599885940551758
aF-0.3207639753818512
aF0.2079789936542511
aF0.1338585466146469
aa(lp33
F0.6892677545547485
aF21.0792236328125
aF-0.7673220634460449
aF-0.012084811925888062
aF0.004189476370811462
aF0.007317766547203064
aF2.344015449285507
aF50.407318115234375
aF-1.9782381057739258
aF-0.01249915361404419
aF0.015786737203598022
aF0.010164692997932434
aF-0.9654799401760101
aF-8.248870849609375
aF0.44359397888183594
aF-0.011670470237731934
aF-0.007407784461975098
aF0.004470840096473694
aF1.9493589401245117
aF305.2257995605469
aF3.3694939613342285
aF-0.3247917890548706
aF0.20929735898971558
aF0.13732938468456268
aa(lp34
F0.5324554443359375
aF20.34564208984375
aF-0.3791677951812744
aF-0.011874407529830933
aF0.00892871618270874
aF0.006758823990821838
aF2.088879542425275
aF49.6761474609375
aF-1.283785104751587
aF-0.01696762442588806
aF0.016456633806228638
aF0.010586842894554138
aF-1.0239686537533998
aF-8.98486328125
aF0.5254495143890381
aF-0.006781190633773804
aF0.0014007985591888428
aF0.0029308050870895386
aF2.078662395477295
aF311.9174499511719
aF3.4202983379364014
aF-0.32842886447906494
aF0.21418419480323792
aF0.1384107917547226
aa(lp35
F0.34001266956329346
aF20.52899169921875
aF-0.062248945236206055
aF-0.010573893785476685
aF0.01003478467464447
aF0.005767509341239929
aF1.6938179731369019
aF49.45782470703125
aF-0.8896195888519287
aF-0.02151310443878174
aF0.01870211958885193
aF0.011262625455856323
aF-1.013792634010315
aF-8.39984130859375
aF0.7651216983795166
aF0.00036531686782836914
aF0.0013674497604370117
aF0.00027239322662353516
aF2.1308186054229736
aF318.99365234375
aF3.5376369953155518
aF-0.3313378691673279
aF0.21801377832889557
aF0.13962605595588684
aa(lp36
F0.16356754302978516
aF20.072052001953125
aF0.4710566997528076
aF-0.00815725326538086
aF0.011195480823516846
aF0.0021419674158096313
aF1.2201584577560425
aF48.28997802734375
aF-0.5844967365264893
aF-0.02411431074142456
aF0.015077188611030579
aF0.01034151017665863
aF-0.8930233716964722
aF-8.1458740234375
aF1.5266101360321045
aF0.007799804210662842
aF0.007313773036003113
aF-0.006057575345039368
aF2.112926483154297
aF325.2978515625
aF3.840550661087036
aF-0.33294904232025146
aF0.22049283981323242
aF0.13947135210037231
aa(lp37
F-0.07547163963317871
aF19.221435546875
aF0.6838772296905518
aF-0.006970196962356567
aF0.011906847357749939
aF0.0018178224563598633
aF0.743099570274353
aF46.9923095703125
aF-0.03264045715332031
aF-0.022692084312438965
aF0.02098315954208374
aF0.01021699607372284
aF-0.8940428495407104
aF-8.5494384765625
aF1.4003949165344238
aF0.00875169038772583
aF0.0028305351734161377
aF-0.006581351161003113
aF2.003190755844116
aF331.1388854980469
aF4.104175567626953
aF-0.3353990614414215
aF0.22609104216098785
aF0.14022861421108246
aa(lp38
F-0.3500012159347534
aF18.09710693359375
aF0.7053844928741455
aF-0.0065156519412994385
aF0.01530793309211731
aF0.00172482430934906
aF0.2346104383468628
aF45.518951416015625
aF0.4435553550720215
aF-0.02129906415939331
aF0.028066232800483704
aF0.009698912501335144
aF-0.9346128702163696
aF-9.324737548828125
aF0.9672136306762695
aF0.008267760276794434
aF0.0025496333837509155
aF-0.006249263882637024
aF1.7808173894882202
aF337.09075927734375
aF4.243021488189697
aF-0.3378535211086273
aF0.23332171142101288
aF0.1413508802652359
aa(lp39
F-0.6659625768661499
aF18.3543701171875
aF0.6695764064788818
aF-0.00712740421295166
aF0.01686812937259674
aF0.006598219275474548
aF-0.3438420295715332
aF45.18756103515625
aF0.9102411270141602
aF-0.01931247115135193
aF0.029381975531578064
aF0.012211024761199951
aF-0.9880831241607666
aF-8.47882080078125
aF0.4289116859436035
aF0.005057662725448608
aF0.0043542832136154175
aF0.0009854137897491455
aF1.446963906288147
aF343.6522216796875
aF4.510127067565918
aF-0.3400764465332031
aF0.23736096918582916
aF0.14606957137584686
aa(lp40
F-0.9535752534866333
aF19.078704833984375
aF0.8906540870666504
aF-0.003025829792022705
aF0.008852764964103699
aF0.006599247455596924
aF-0.8997434377670288
aF44.991790771484375
aF1.625335693359375
aF-0.013633102178573608
aF0.025646448135375977
aF0.0094984769821167
aF-1.0074070692062378
aF-6.834381103515625
aF0.15597248077392578
aF0.007581442594528198
aF-0.007940918207168579
aF0.0037000179290771484
aF1.049615502357483
aF350.21759033203125
aF4.9948296546936035
aF-0.3384248912334442
aF0.23494380712509155
aF0.14682786166667938
aa(lp41
F-1.081657350063324
aF19.622344970703125
aF1.2661590576171875
aF-0.0033221840858459473
aF0.014269024133682251
aF0.00556376576423645
aF-1.3795023560523987
aF44.795654296875
aF2.0888822078704834
aF-0.012746840715408325
aF0.033406540751457214
aF0.008503854274749756
aF-0.7838123440742493
aF-5.55096435546875
aF0.4434359073638916
aF0.006102472543716431
aF-0.004868492484092712
aF0.0026236772537231445
aF0.6991600394248962
aF356.7131042480469
aF5.509180545806885
aF-0.34117570519447327
aF0.24759073555469513
aF0.14691464602947235
aa(lp42
F-1.2251011431217194
aF19.11822509765625
aF1.0267863273620605
aF-0.004202365875244141
aF0.01986195147037506
aF0.002306714653968811
aF-1.908955842256546
aF43.77679443359375
aF1.9992763996124268
aF-0.012940943241119385
aF0.039209142327308655
aF0.008750230073928833
aF-0.5412464439868927
aF-5.54034423828125
aF0.054296255111694336
aF0.0045362114906311035
aF0.0005147606134414673
aF-0.004136800765991211
aF0.2218627631664276
aF362.77044677734375
aF5.5369133949279785
aF-0.34427881240844727
aF0.2572229206562042
aF0.14837628602981567
aa(lp43
F-1.3110444247722626
aF17.9617919921875
aF0.8699216842651367
aF-0.006906777620315552
aF0.025299370288848877
aF0.0046346187591552734
aF-2.3743554055690765
aF42.88153076171875
aF2.024200677871704
aF-0.0123826265335083
aF0.03975033760070801
aF0.011991128325462341
aF-0.2477334439754486
aF-6.95794677734375
aF-0.28435730934143066
aF-0.0014309287071228027
aF0.010848402976989746
aF-0.0027218908071517944
aF-0.26142892241477966
aF368.17938232421875
aF5.86475133895874
aF-0.34533166885375977
aF0.26024317741394043
aF0.15146248042583466
aa(lp44
F-1.5083606839179993
aF17.322662353515625
aF1.0563831329345703
aF-0.003176778554916382
aF0.016021445393562317
aF0.0025391876697540283
aF-2.8123914003372192
aF42.896881103515625
aF2.461388111114502
aF-0.00895342230796814
aF0.03752113878726959
aF0.009225219488143921
aF-0.2043299674987793
aF-8.251556396484375
aF-0.34862184524536133
aF0.002599865198135376
aF-0.0054782480001449585
aF-0.004146844148635864
aF-0.809200644493103
aF374.0357666015625
aF6.565563678741455
aF-0.34435248374938965
aF0.26361218094825745
aF0.14945383369922638
aa(lp45
F-1.7025736272335052
aF16.938079833984375
aF1.2535667419433594
aF0.001086592674255371
aF0.009090423583984375
aF0.00044721364974975586
aF-3.261528253555298
aF42.617767333984375
aF2.5474586486816406
aF-0.005338698625564575
aF0.03299163281917572
aF0.007472619414329529
aF-0.14361900091171265
aF-8.741607666015625
aF-0.040325164794921875
aF0.007511883974075317
aF-0.01481078565120697
aF-0.006578192114830017
aF-1.4807108640670776
aF379.7085266113281
aF6.790480136871338
aF-0.3431922197341919
aF0.2663133442401886
aF0.14882349967956543
aa(lp46
F-2.235967308282852
aF21.6611328125
aF2.3949971199035645
aF0.0036903321743011475
aF-0.00041171908378601074
aF0.009848624467849731
aF-3.944360136985779
aF46.18829345703125
aF3.7496213912963867
aF-0.0015648901462554932
aF0.022470489144325256
aF0.015241533517837524
aF-0.5275744795799255
aF-2.86602783203125
aF1.0403728485107422
aF0.008945554494857788
aF-0.023293927311897278
aF0.0044557154178619385
aF-2.497396230697632
aF389.84051513671875
aF8.259748458862305
aF-0.3416413366794586
aF0.2598314583301544
aF0.1613111048936844
aa(lp47
F-2.368428587913513
aF21.405609130859375
aF2.0878663063049316
aF0.01326104998588562
aF-0.0025836527347564697
aF0.01241031289100647
aF-4.227244734764099
aF45.223785400390625
aF3.658600330352783
aF0.0073334574699401855
aF0.026084721088409424
aF0.015036284923553467
aF-0.5096124410629272
aF-2.412567138671875
aF0.5171322822570801
aF0.019188642501831055
aF-0.03125202655792236
aF0.009784340858459473
aF-3.177629232406616
aF395.4413757324219
aF8.653429985046387
aF-0.33109143376350403
aF0.261028528213501
aF0.16186414659023285
aa(lp48
F-2.339772343635559
aF20.758392333984375
aF2.0821986198425293
aF0.022071927785873413
aF-0.00021570920944213867
aF0.011490300297737122
aF-4.519643247127533
aF43.753814697265625
aF3.3634982109069824
aF0.020055413246154785
aF0.01850689947605133
aF0.0133991539478302
aF-0.1599014401435852
aF-2.237030029296875
aF0.8008990287780762
aF0.02408844232559204
aF-0.018938317894935608
aF0.009581446647644043
aF-3.8204832077026367
aF400.4669189453125
aF8.872678756713867
aF-0.3211202919483185
aF0.26609763503074646
aF0.16031379997730255
aa(lp49
F-1.8700273036956787
aF15.971710205078125
aF1.3494863510131836
aF0.028767675161361694
aF-4.0918588638305664e-05
aF0.00767575204372406
aF-4.589286297559738
aF43.041778564453125
aF4.07232141494751
aF0.03140515089035034
aF0.0025676190853118896
aF0.020610570907592773
aF0.8492316901683807
aF-11.098358154296875
aF-1.3733487129211426
aF0.026130199432373047
aF-0.002649456262588501
aF-0.005259066820144653
aF-4.3674235343933105
aF405.8122253417969
aF9.609234809875488
aF-0.3128736615180969
aF0.2597905397415161
aF0.16898685693740845
aa(lp50
F-1.844463586807251
aF15.212158203125
aF1.7592811584472656
aF0.036705851554870605
aF-0.0013047456741333008
aF0.0027385950088500977
aF-4.7606638967990875
aF42.474151611328125
aF4.547959804534912
aF0.05094608664512634
aF-0.0005193948745727539
aF0.013140261173248291
aF1.0717367231845856
aF-12.049835205078125
aF-1.0293974876403809
aF0.022465616464614868
aF-0.0020900964736938477
aF-0.007663071155548096
aF-5.022092819213867
aF410.6535339355469
aF10.412711143493652
aF-0.2943855822086334
aF0.2597237825393677
aF0.16460274159908295
aa(lp51
F-2.025979518890381
aF15.779541015625
aF1.6214008331298828
aF0.039767712354660034
aF-0.006120651960372925
aF0.006555378437042236
aF-5.0372620820999146
aF42.210693359375
aF3.928515911102295
aF0.0629999041557312
aF-0.003635197877883911
aF0.017415344715118408
aF0.9853030443191528
aF-10.651611328125
aF-0.6857142448425293
aF0.016535520553588867
aF-0.008606106042861938
aF-0.0043045878410339355
aF-5.846462726593018
aF416.2464599609375
aF10.49407958984375
aF-0.28135257959365845
aF0.25997698307037354
aF0.1668691784143448
aa(lp52
F-2.1192288398742676
aF15.867462158203125
aF1.462301254272461
aF0.04416194558143616
aF-0.009113490581512451
aF0.0033964067697525024
aF-5.0059415102005005
aF41.971160888671875
aF4.281055927276611
aF0.07448050379753113
aF-0.015636295080184937
aF0.02355976402759552
aF0.7674838304519653
aF-10.236236572265625
aF-1.3564534187316895
aF0.013843387365341187
aF-0.002590686082839966
aF-0.016766950488090515
aF-6.486652374267578
aF421.6796875
aF11.07153606414795
aF-0.26871171593666077
aF0.25067704916000366
aF0.17238326370716095
aa(lp53
F-1.8844571113586426
aF14.514404296875
aF1.1226568222045898
aF0.03182348608970642
aF0.003274768590927124
aF0.01184806227684021
aF-4.409153699874878
aF35.327423095703125
aF3.2756195068359375
aF0.07907924056053162
aF0.003167092800140381
aF0.01513969898223877
aF0.6402394771575928
aF-6.298614501953125
aF-1.0303058624267578
aF-0.015432268381118774
aF0.003382444381713867
aF0.00855642557144165
aF-6.90654993057251
aF425.1679382324219
aF11.535367965698242
aF-0.262562096118927
aF0.2629985511302948
aF0.17645080387592316
aa(lp54
F-1.8189396858215332
aF14.59967041015625
aF1.5675668716430664
aF0.03302372992038727
aF0.004429429769515991
aF-0.00027458369731903076
aF-4.487773180007935
aF35.404754638671875
aF3.4082164764404297
aF0.08276258409023285
aF0.00337788462638855
aF0.004730448126792908
aF0.8498938083648682
aF-6.205413818359375
aF-0.2730827331542969
aF-0.016715124249458313
aF0.005480974912643433
aF-0.005279615521430969
aF-7.665402412414551
aF430.84613037109375
aF12.061646461486816
aF-0.24832884967327118
aF0.2644064128398895
aF0.16659459471702576
aa(lp55
F-1.923844337463379
aF14.751983642578125
aF1.3584575653076172
aF0.02553415298461914
aF0.019130975008010864
aF0.001773148775100708
aF-4.59001350402832
aF35.964752197265625
aF3.557314872741699
aF0.07794272899627686
aF0.0037103891372680664
aF0.013842612504959106
aF0.7423248291015625
aF-6.460784912109375
aF-0.8403997421264648
aF-0.026874423027038574
aF0.03455156087875366
aF-0.01029631495475769
aF-8.410496711730957
aF436.4316711425781
aF12.429993629455566
aF-0.24317756295204163
aF0.2698080241680145
aF0.17415641248226166
aa(lp56
F-2.1307225227355957
aF17.41497802734375
aF1.6519575119018555
aF0.028391003608703613
aF0.015557855367660522
aF-0.012593001127243042
aF-4.669848918914795
aF36.77069091796875
aF3.5780906677246094
aF0.07870256900787354
aF0.01876586675643921
aF-0.0051290541887283325
aF0.4084038734436035
aF-1.94073486328125
aF-0.27417564392089844
aF-0.02192056179046631
aF0.012349843978881836
aF-0.02005694806575775
aF-9.037272453308105
aF442.5829162597656
aF13.187325477600098
aF-0.2341710925102234
aF0.2785564064979553
aF0.16385780274868011
aa(lp57
F-1.9704103469848633
aF17.2373046875
aF1.8469057083129883
aF-0.0003328472375869751
aF0.012757450342178345
aF0.015470489859580994
aF-4.613719940185547
aF37.429901123046875
aF3.4958410263061523
aF0.04572388529777527
aF0.017440080642700195
aF0.017462342977523804
aF0.6728992462158203
aF-2.955291748046875
aF0.19797039031982422
aF-0.04638957977294922
aF0.008074820041656494
aF0.013478636741638184
aF-9.635812759399414
aF448.08343505859375
aF13.908552169799805
aF-0.24866169691085815
aF0.27716386318206787
aF0.18206508457660675
aa(lp58
F-1.9969635009765625
aF16.37750244140625
aF1.6454524993896484
aF-0.008692532777786255
aF0.012412697076797485
aF0.003160610795021057
aF-4.560997486114502
aF36.562713623046875
aF3.581366539001465
aF0.029482483863830566
aF0.022243738174438477
aF0.010447844862937927
aF0.567070484161377
aF-3.807708740234375
aF-0.29046154022216797
aF-0.046867549419403076
aF0.002581655979156494
aF-0.004126623272895813
aF-10.40746021270752
aF452.8091735839844
aF14.075446128845215
aF-0.2518700957298279
aF0.282220721244812
aF0.17731702327728271
aa(lp59
F-2.050784111022949
aF14.990234375
aF1.320216178894043
aF-0.023177921772003174
aF-0.002877652645111084
aF0.025235697627067566
aF-4.601404190063477
aF35.893463134765625
aF3.4360055923461914
aF0.011362701654434204
aF0.025001704692840576
aF0.01671023666858673
aF0.4998359680175781
aF-5.912994384765625
aF-0.7955732345581055
aF-0.05771854519844055
aF-0.030757009983062744
aF0.0337611585855484
aF-11.088056564331055
aF457.5731506347656
aF14.50754165649414
aF-0.25734901428222656
aF0.27567875385284424
aF0.18909350037574768
aa(lp60
F-2.137237548828125
aF14.841156005859375
aF1.760274887084961
aF-0.008341610431671143
aF-0.0019221901893615723
aF0.0013081878423690796
aF-4.866500377655029
aF37.75665283203125
aF4.133459091186523
aF0.005558788776397705
aF0.012243121862411499
aF0.006922468543052673
aF0.5920252799987793
aF-8.0743408203125
aF-0.6129093170166016
aF-0.02224200963973999
aF-0.016087502241134644
aF-0.004306092858314514
aF-11.773050308227539
aF462.9245910644531
aF15.668827056884766
aF-0.2570033073425293
aF0.2752416729927063
aF0.18337327241897583
aa.