(lp0
(lp1
F9.206304550170898
aF89.12670135498047
aF29.831493377685547
aF-0.3179900050163269
aF0.1420057862997055
aF0.023340780287981033
aF1.9410319328308105
aF-3.5419692993164062
aF-36.34591293334961
aF-0.012089401483535767
aF0.04726196080446243
aF-0.011438596993684769
aF-4990.793695449829
aF-4910.8732986450195
aF-4970.168506622314
aF-5000.317990005016
aF-4999.8579942137
aF-4999.976659219712
aF4994.675759315491
aF4903.789360046387
aF4897.476680755615
aF5000.293811202049
aF4999.952518135309
aF4999.953782025725
aa(lp2
F9.410991668701172
aF90.03693389892578
aF21.7790470123291
aF-0.3174496293067932
aF0.15074843168258667
aF0.01916552148759365
aF0.9307022094726562
aF-1.4264068603515625
aF-34.64259147644043
aF-0.003429323434829712
aF0.038113705813884735
aF-0.01913258619606495
aF9.131075531244278
aF-9.274864196777344
aF-81.71051597595215
aF-0.04007464647293091
aF0.10240021720528603
aF-0.0055870600044727325
aF-7.2696711122989655
aF6.422050476074219
aF12.425333023071289
aF0.033215999603271484
aF-0.026172805577516556
aF-0.032678112387657166
aa(lp3
F9.400800704956055
aF92.93536376953125
aF14.909165382385254
aF-0.3172277510166168
aF0.15792548656463623
aF0.013100923970341682
aF0.2667045593261719
aF3.4708709716796875
aF-23.82557964324951
aF-0.0009131729602813721
aF0.027960732579231262
aF-0.016663124784827232
aF7.233160018920898
aF-4.426536560058594
aF-78.2045431137085
aF-0.026636898517608643
aF0.09754115715622902
aF-0.01673070155084133
aF-6.699750900268555
aF11.368278503417969
aF30.553383827209473
aF0.0248105525970459
aF-0.041619691997766495
aF-0.016595548018813133
aa(lp4
F8.853845596313477
aF98.50727844238281
aF9.613229751586914
aF-0.3165694773197174
aF0.1595354527235031
aF0.010361390188336372
aF-0.3524589538574219
aF9.380577087402344
aF-20.218263626098633
aF0.001420527696609497
aF0.017529666423797607
aF-0.012979390099644661
aF4.707425594329834
aF3.0155105590820312
aF-73.66122245788574
aF-0.01713883876800537
aF0.08513324707746506
aF-0.023012449964880943
aF-5.412343502044678
aF15.745643615722656
aF33.22469520568848
aF0.019979894161224365
aF-0.05007391422986984
aF-0.0029463302344083786
aa(lp5
F7.687646389007568
aF106.92123413085938
aF5.859797477722168
aF-0.3145751953125
aF0.15602439641952515
aF0.008704549632966518
aF-1.7233452796936035
aF16.884300231933594
aF-15.919249534606934
aF0.002874433994293213
aF0.0052759647369384766
aF-0.010460971854627132
aF0.42237377166748047
aF14.2525634765625
aF-60.31760883331299
aF-0.008674591779708862
aF0.061280570924282074
aF-0.026074827648699284
aF-3.8690643310546875
aF19.516036987304688
aF28.47910976409912
aF0.014423459768295288
aF-0.05072864145040512
aF0.005152883939445019
aa(lp6
F5.966313362121582
aF117.9227294921875
aF3.4592702388763428
aF-0.31118643283843994
aF0.14806653559207916
aF0.006940912455320358
aF-3.4344873428344727
aF24.98736572265625
aF-11.449895143508911
aF0.00604131817817688
aF-0.009858950972557068
aF-0.006160011515021324
aF-2.5139760971069336
aF26.459388732910156
aF-52.96236824989319
aF0.0028338730335235596
aF0.03543180972337723
aF-0.03135719522833824
aF-4.354998588562012
aF23.515342712402344
aF30.062577962875366
aF0.0092487633228302
aF-0.055149711668491364
aF0.019037172198295593
aa(lp7
F3.7281172275543213
aF131.75933837890625
aF1.7703938484191895
aF-0.3070373833179474
aF0.134373277425766
aF0.008390186354517937
aF-5.125728368759155
aF33.25205993652344
aF-7.842835903167725
aF0.00953209400177002
aF-0.02516217529773712
aF-0.0019712038338184357
aF-5.4059789180755615
aF42.29484558105469
aF-36.964351177215576
aF0.009277194738388062
aF0.004408523440361023
aF-0.021373862400650978
aF-4.845477819442749
aF24.209274291992188
aF21.278679370880127
aF0.009786993265151978
aF-0.054732874035835266
aF0.017431454733014107
aa(lp8
F1.3491274118423462
aF147.52122497558594
aF0.7298448085784912
aF-0.3033333718776703
aF0.1252216100692749
aF0.007077003363519907
aF-6.338518977165222
aF40.59999084472656
aF-5.129952669143677
aF0.011241823434829712
aF-0.030802786350250244
aF-0.0016275462694466114
aF-7.857177138328552
aF58.39452362060547
aF-29.101648569107056
aF0.014656633138656616
aF-0.016784176230430603
aF-0.016263776924461126
aF-4.819860816001892
aF22.805458068847656
aF18.841743230819702
aF0.007827013731002808
aF-0.044821396470069885
aF0.013008684385567904
aa(lp9
F-3.003478527069092
aF180.81512451171875
aF-1.22533118724823
aF-0.30100253224372864
aF0.11854026466608047
aF0.011348043568432331
aF-8.969791889190674
aF62.89239501953125
aF-4.684601426124573
aF0.010183900594711304
aF-0.029526270925998688
aF0.004407131113111973
aF-12.414470195770264
aF90.77819061279297
aF-23.00437819957733
aF0.016447097063064575
aF-0.032208167016506195
aF-0.00781747791916132
aF-5.525113582611084
aF35.00659942626953
aF13.635175347328186
aF0.003920704126358032
aF-0.02684437483549118
aF0.016631740145385265
aa(lp10
F-5.315528869628906
aF200.5637969970703
aF-1.4642904996871948
aF-0.29879283905029297
aF0.11209490895271301
aF0.01494958158582449
aF-9.043646097183228
aF68.80445861816406
aF-3.2346843481063843
aF0.008244544267654419
aF-0.02227836847305298
aF0.006559395231306553
aF-14.716329574584961
aF107.62843322753906
aF-16.37345588207245
aF0.018434911966323853
aF-0.04583057761192322
aF0.0018486576154828072
aF-3.370962619781494
aF29.980484008789062
aF9.90408718585968
aF-0.0019458234310150146
aF0.0012738406658172607
aF0.011270132847130299
aa(lp11
F-9.498786926269531
aF235.44281005859375
aF-2.0931875705718994
aF-0.299428254365921
aF0.10524364560842514
aF0.023048650473356247
aF-10.847914338111877
aF87.92158508300781
aF-2.8230323791503906
aF0.0039051175117492676
aF-0.019977964460849762
aF0.01597164710983634
aF-18.352632522583008
aF136.93553161621094
aF-11.706417322158813
aF0.017141222953796387
aF-0.05429180711507797
aF0.012687260285019875
aF-3.343196153640747
aF38.90763854980469
aF6.060352563858032
aF-0.009330987930297852
aF0.014335878193378448
aF0.019256033934652805
aa(lp12
F-11.50216007232666
aF254.39048767089844
aF-1.7931016683578491
aF-0.299219012260437
aF0.09959772974252701
aF0.029327161610126495
aF-8.498681545257568
aF73.57536315917969
aF-0.5677704811096191
aF0.001783519983291626
aF-0.018942534923553467
aF0.017979118041694164
aF-19.18980646133423
aF147.46925354003906
aF-7.652899146080017
aF0.015356183052062988
aF-0.05642666667699814
aF0.020622611977159977
aF2.192443370819092
aF-0.3185272216796875
aF6.517358183860779
aF-0.011789143085479736
aF0.018541596829891205
aF0.015335624106228352
aa(lp13
F-13.262506484985352
aF272.57720947265625
aF-1.4007707834243774
aF-0.30567821860313416
aF0.10226999968290329
aF0.04497428983449936
aF-7.946977615356445
aF72.01341247558594
aF0.06351971626281738
aF-0.0068853795528411865
aF-0.009824909269809723
aF0.03002470824867487
aF-19.228819847106934
aF154.65447998046875
aF-4.86004102230072
aF0.005508214235305786
aF-0.04579653590917587
aF0.038033377379179
aF3.334864616394043
aF-10.627655029296875
aF4.987080454826355
aF-0.01927897334098816
aF0.026146717369556427
aF0.022016039118170738
aa(lp14
F-14.137121200561523
aF289.8727722167969
aF0.8751155734062195
aF-0.32800525426864624
aF0.1091342568397522
aF0.06356058269739151
aF-4.638334274291992
aF54.429962158203125
aF2.968303143978119
aF-0.02857699990272522
aF0.003890611231327057
aF0.04051193222403526
aF-17.865238428115845
aF158.11343383789062
aF-0.89527827501297
aF-0.020967870950698853
aF-0.025239020586013794
aF0.05517039634287357
aF8.58856987953186
aF-49.253509521484375
aF6.831884562969208
aF-0.03618612885475159
aF0.03302024304866791
aF0.025853468105196953
aa(lp15
F-15.489975929260254
aF306.9571838378906
aF1.6147774457931519
aF-0.3467828333377838
aF0.10510957986116409
aF0.08597730845212936
aF-3.9878158569335938
aF52.56669616699219
aF3.407879114151001
aF-0.0475638210773468
aF0.005511850118637085
aF0.05665014684200287
aF-16.8391033411026
aF159.4359588623047
aF0.8849326372146606
aF-0.043449461460113525
aF-0.02011203020811081
aF0.07890030508860946
aF8.863471627235413
aF-54.30256652832031
aF5.930825591087341
aF-0.05167818069458008
aF0.03113573044538498
aF0.03439998859539628
aa(lp16
F-17.256624221801758
aF323.4724426269531
aF1.464654564857483
aF-0.3603435158729553
aF0.10525169968605042
aF0.09799675643444061
aF-3.9941177368164062
aF50.895233154296875
aF2.8654253482818604
aF-0.05466529726982117
aF0.0029817000031471252
aF0.053022466599941254
aF-14.253145694732666
aF142.65731811523438
aF2.689985752105713
aF-0.059340983629226685
aF-0.01328856498003006
aF0.08664871286600828
aF6.2649102210998535
aF-40.866851806640625
aF3.040864944458008
aF-0.04998961091041565
aF0.01925196498632431
aF0.019396220333874226
aa(lp17
F-19.0185604095459
aF339.63092041015625
aF2.241417169570923
aF-0.3625429570674896
aF0.11585117876529694
aF0.11353376507759094
aF-4.881439208984375
aF49.758148193359375
aF1.3663015961647034
aF-0.034537702798843384
aF0.006716921925544739
aF0.04997318238019943
aF-13.703031539916992
aF139.06712341308594
aF3.7057076692581177
aF-0.06375011801719666
aF0.0037562698125839233
aF0.09858418349176645
aF3.940153121948242
aF-39.55082702636719
aF-0.9731044769287109
aF-0.005325287580490112
aF0.009677574038505554
aF0.001362181268632412
aa(lp18
F-21.033424377441406
aF355.3494873046875
aF1.2561864852905273
aF-0.36743199825286865
aF0.1297055333852768
aF0.13399700820446014
aF-5.543448448181152
aF48.392303466796875
aF-0.3585909605026245
aF-0.02064916491508484
aF0.0245959535241127
aF0.04801969975233078
aF-11.534637451171875
aF119.90667724609375
aF3.3493740558624268
aF-0.06800374388694763
aF0.024461887776851654
aF0.1109483577311039
aF0.4477405548095703
aF-23.1220703125
aF-4.066555976867676
aF0.026705414056777954
aF0.02473001927137375
aF-0.014908958226442337
aa(lp19
F-22.807058334350586
aF370.7840881347656
aF1.7322936058044434
aF-0.36467790603637695
aF0.12821559607982635
aF0.14410123229026794
aF-5.550434112548828
aF47.3116455078125
aF0.26763904094696045
aF-0.004334390163421631
aF0.02296389639377594
aF0.04610447585582733
aF-11.304898262023926
aF116.39360046386719
aF3.5253952741622925
aF-0.06545889377593994
aF0.028617866337299347
aF0.11477407068014145
aF0.20403003692626953
aF-21.770309448242188
aF-2.9901171922683716
aF0.05679011344909668
aF0.017309926450252533
aF-0.022565118968486786
aa(lp20
F-24.77385139465332
aF386.1399230957031
aF2.707594633102417
aF-0.36166268587112427
aF0.12678559124469757
aF0.1547154039144516
aF-5.755290985107422
aF46.509002685546875
aF0.46617746353149414
aF0.0008802711963653564
aF0.010934412479400635
aF0.04118163883686066
aF-11.511344909667969
aF113.56271362304688
aF4.108365416526794
aF-0.05598446726799011
aF0.02451559156179428
aF0.10974111407995224
aF0.000762939453125
aF-20.544708251953125
aF-3.176010489463806
aF0.057745009660720825
aF-0.0026467666029930115
aF-0.027377836406230927
aa(lp21
F-26.457754135131836
aF400.898193359375
aF3.713174819946289
aF-0.35867297649383545
aF0.1214454174041748
aF0.17531773447990417
aF-5.42432975769043
aF45.5487060546875
aF2.4569883346557617
aF0.008759021759033203
aF-0.00826011598110199
aF0.04132072627544403
aF-12.320632934570312
aF111.02542114257812
aF2.8380592465400696
aF-0.03066772222518921
aF0.012311160564422607
aF0.11175715178251266
aF1.4719734191894531
aF-19.928009033203125
aF2.075917422771454
aF0.048185765743255615
aF-0.028831392526626587
aF-0.029115699231624603
aa(lp22
F-28.212987899780273
aF414.3274230957031
aF5.161624431610107
aF-0.3505890667438507
aF0.12873360514640808
aF0.17663784325122833
aF-5.4059295654296875
aF43.5433349609375
aF3.429330825805664
aF0.014088839292526245
aF0.0005180090665817261
aF0.03253661096096039
aF-12.72301197052002
aF107.3702392578125
aF3.5468469858169556
aF-0.0038062334060668945
aF0.023624025285243988
aF0.09066053479909897
aF1.9111528396606445
aF-20.2835693359375
aF3.3118146657943726
aF0.031983911991119385
aF-0.022588007152080536
aF-0.025587312877178192
aa(lp23
F-29.920330047607422
aF428.17962646484375
aF6.77976655960083
aF-0.33564144372940063
aF0.12010733783245087
aF0.18355168402194977
aF-5.146478652954102
aF42.039703369140625
aF4.072171926498413
aF0.026021242141723633
aF-0.006678253412246704
aF0.02883628010749817
aF-12.663705825805664
aF104.70718383789062
aF5.315111994743347
aF0.024702072143554688
aF0.014855638146400452
aF0.08555492758750916
aF2.370748519897461
aF-20.627777099609375
aF2.829231858253479
aF0.027340412139892578
aF-0.02821214497089386
aF-0.027882367372512817
aa(lp24
F-31.421878814697266
aF440.70294189453125
aF8.620967864990234
aF-0.33377790451049805
aF0.1332862675189972
aF0.20480746030807495
aF-4.96412467956543
aF39.80474853515625
aF4.907793045043945
aF0.024895071983337402
aF0.011840850114822388
aF0.029489725828170776
aF-12.403318405151367
aF101.072021484375
aF6.3795506954193115
aF0.028765052556991577
aF0.017435088753700256
aF0.09127369523048401
aF2.475069046020508
aF-21.4625244140625
aF3.436035394668579
aF0.021025091409683228
aF0.006246611475944519
aF-0.032294243574142456
aa(lp25
F-32.82878494262695
aF452.9853515625
aF10.29377555847168
aF-0.3163142204284668
aF0.1156306192278862
aF0.21290576457977295
aF-4.61579704284668
aF38.657928466796875
aF5.132151126861572
aF0.03427484631538391
aF-0.013102985918521881
aF0.03626792132854462
aF-11.795360565185547
aF97.6358642578125
aF9.037589073181152
aF0.051117777824401855
aF-0.014074914157390594
aF0.0789087563753128
aF2.5637664794921875
aF-20.32000732421875
aF1.2267131805419922
aF0.017431914806365967
aF-0.012131057679653168
aF-0.006372913718223572
aa(lp26
F-34.31223678588867
aF466.7512512207031
aF12.191139221191406
aF-0.3079545497894287
aF0.11953046917915344
aF0.2331671267747879
aF-4.39190673828125
aF38.571624755859375
aF5.411372661590576
aF0.027686893939971924
aF-0.0005768686532974243
aF0.049615442752838135
aF-11.505178451538086
aF95.9671630859375
aF10.458845615386963
aF0.05672335624694824
aF-0.008685126900672913
aF0.08906589448451996
aF2.721364974975586
aF-18.82391357421875
aF0.36389970779418945
aF-0.0013495683670043945
aF0.007531389594078064
aF0.010164991021156311
aa(lp27
F-35.67829513549805
aF478.4582824707031
aF13.27475643157959
aF-0.3082147538661957
aF0.13935533165931702
aF0.2552506923675537
aF-4.256416320800781
aF37.755340576171875
aF4.6537885665893555
aF0.025563150644302368
aF0.006069064140319824
aF0.05044323205947876
aF-10.904443740844727
aF92.318359375
aF10.567161798477173
aF0.05344793200492859
aF0.012569740414619446
aF0.10053528845310211
aF2.391611099243164
aF-16.80767822265625
aF-1.259584665298462
aF-0.0023216307163238525
aF-0.00043161213397979736
aF0.0003511756658554077
aa(lp28
F-36.5410270690918
aF489.378173828125
aF15.014838218688965
aF-0.30468231439590454
aF0.11629599332809448
aF0.3293572962284088
aF-3.7122421264648438
aF36.392822265625
aF4.721062660217285
aF0.011631906032562256
aF0.0006653741002082825
aF0.11645153164863586
aF-10.083272933959961
aF88.47998046875
aF11.301663398742676
aF0.05399066209793091
aF-0.005149424076080322
aF0.15403956174850464
aF2.6587886810302734
aF-15.6943359375
aF-1.8595380783081055
aF-0.030726850032806396
aF0.006480172276496887
aF0.07886350154876709
aa(lp29
F-37.2564811706543
aF500.71807861328125
aF18.481231689453125
aF-0.34431445598602295
aF0.11686073988676071
aF0.4049859941005707
aF-2.944244384765625
aF33.966827392578125
aF6.290092468261719
aF-0.03635990619659424
aF-0.0026697292923927307
aF0.17181886732578278
aF-9.043493270874023
aF86.39065551757812
aF13.319607257843018
aF0.006274610757827759
aF-0.01187286525964737
aF0.22834815084934235
aF3.1550045013427734
aF-18.457000732421875
aF-0.7394223213195801
aF-0.07899442315101624
aF0.006533406674861908
aF0.1152895838022232
aa(lp30
F-38.289066314697266
aF511.54534912109375
aF20.107563018798828
aF-0.39187929034233093
aF0.178120419383049
aF0.40149396657943726
aF-2.6107711791992188
aF33.087066650390625
aF6.832806587219238
aF-0.08366453647613525
aF0.038765087723731995
aF0.14624327421188354
aF-8.368736267089844
aF83.36572265625
aF13.327796459197998
aF-0.0562378466129303
aF0.058013081550598145
aF0.2179422825574875
aF3.1471939086914062
aF-17.19158935546875
aF0.3378167152404785
aF-0.11109122633934021
aF0.019517093896865845
aF0.0745442658662796
aa.