(lp0
(lp1
F39.800132751464844
aF83.84657287597656
aF27.832555770874023
aF-0.37183448672294617
aF0.18050004541873932
aF-0.02427605167031288
aF1.4186439514160156
aF4.433311462402344
aF-20.027013778686523
aF0.03658941388130188
aF0.050019681453704834
aF-0.012387446127831936
aF5.103351593017578
aF-5.7614898681640625
aF-59.1415958404541
aF0.11978566646575928
aF0.08078885823488235
aF-0.02334851276827976
aF-2.266063690185547
aF14.62811279296875
aF19.087568283081055
aF-0.04660683870315552
aF0.019250504672527313
aF-0.0014263794873841107
aa(lp2
F39.84986877441406
aF87.2521743774414
aF23.80341911315918
aF-0.36351147294044495
aF0.1945582926273346
aF-0.03360150754451752
aF0.5669097900390625
aF7.1151275634765625
aF-13.891691207885742
aF0.030328035354614258
aF0.046757012605667114
aF-0.01921927835792303
aF3.929462432861328
aF2.7752227783203125
aF-49.36743354797363
aF0.10188224911689758
aF0.08987316489219666
aF-0.029314521700143814
aF-2.795642852783203
aF11.455032348632812
aF21.58405113220215
aF-0.04122617840766907
aF0.0036408603191375732
aF-0.009124035015702248
aa(lp3
F39.75063705444336
aF92.40483856201172
aF20.810537338256836
aF-0.354732483625412
aF0.20535501837730408
aF-0.03968208283185959
aF0.12852859497070312
aF10.760231018066406
aF-11.759531021118164
aF0.026969492435455322
aF0.04065033793449402
aF-0.022650334984064102
aF3.172657012939453
aF10.124961853027344
aF-45.3028507232666
aF0.0886862576007843
aF0.09746268391609192
aF-0.03264240175485611
aF-2.915599822998047
aF11.395500183105469
aF21.783788681030273
aF-0.03474727272987366
aF-0.016162008047103882
aF-0.012658268213272095
aa(lp4
F39.3452033996582
aF99.40950775146484
aF18.477405548095703
aF-0.34606659412384033
aF0.20976968109607697
aF-0.04108760505914688
aF-0.4549293518066406
aF15.562934875488281
aF-9.35515022277832
aF0.025767892599105835
aF0.029269635677337646
aF-0.016811553388834
aF1.5384483337402344
aF19.688934326171875
aF-35.44532775878906
aF0.07836747169494629
aF0.09070415794849396
aF-0.03173089865595102
aF-2.4483070373535156
aF11.436935424804688
aF16.735027313232422
aF-0.02683168649673462
aF-0.032164886593818665
aF-0.0018922081217169762
aa(lp5
F38.41302490234375
aF108.31108093261719
aF16.587467193603516
aF-0.3372703492641449
aF0.21190257370471954
aF-0.04353112354874611
aF-1.4368438720703125
aF21.05890655517578
aF-7.215951919555664
aF0.02624112367630005
aF0.01734428107738495
aF-0.009929616004228592
aF0.031536102294921875
aF28.89781951904297
aF-31.27210235595703
aF0.07115355134010315
aF0.08142220973968506
aF-0.03164251800626516
aF-2.905223846435547
aF13.219993591308594
aF16.840198516845703
aF-0.018671303987503052
aF-0.04673364758491516
aF0.01178328599780798
aa(lp6
F37.031005859375
aF119.56591796875
aF15.163390159606934
aF-0.32742443680763245
aF0.207604318857193
aF-0.04578109458088875
aF-2.7196311950683594
aF27.16107940673828
aF-5.647147178649902
aF0.02730804681777954
aF0.002249300479888916
aF-0.0060990117490291595
aF-2.251953125
aF39.428871154785156
aF-22.53172016143799
aF0.06641507148742676
aF0.05980303883552551
aF-0.03139886539429426
aF-3.1873092651367188
aF14.893287658691406
aF11.237425804138184
aF-0.011798977851867676
aF-0.05530443787574768
aF0.019200841896235943
aa(lp7
F35.232147216796875
aF132.8714141845703
aF14.266587257385254
aF-0.31666290760040283
aF0.1974196881055832
aF-0.047862183302640915
aF-4.113056182861328
aF33.46190643310547
aF-4.210818290710449
aF0.0294036865234375
aF-0.012349992990493774
aF-0.006774578243494034
aF-4.389961242675781
aF51.226806640625
aF-18.303481101989746
aF0.06503906846046448
aF0.03271500766277313
aF-0.03083043545484543
aF-3.836151123046875
aF15.697006225585938
aF9.881844520568848
aF-0.0062316954135894775
aF-0.05741499364376068
aF0.01728127896785736
aa(lp8
F31.908763885498047
aF162.439697265625
aF12.90510082244873
aF-0.3079875707626343
aF0.18062512576580048
aF-0.03707752004265785
aF-6.504261016845703
aF54.12861633300781
aF-3.682366371154785
aF0.02928277850151062
aF-0.03127744793891907
aF0.006453603506088257
aF-7.891368865966797
aF78.59312438964844
aF-14.927454948425293
aF0.06384691596031189
aF0.00012508034706115723
aF-0.01280146837234497
aF-5.117153167724609
aF29.664108276367188
aF7.562722206115723
aF-0.005281358957290649
aF-0.06267997622489929
aF0.025708675384521484
aa(lp9
F29.948328018188477
aF180.77659606933594
aF12.628278732299805
aF-0.3012508153915405
aF0.16927912831306458
aF-0.022291909903287888
aF-7.082677841186523
aF61.21067810058594
aF-2.535111427307129
aF0.02617362141609192
aF-0.03832519054412842
aF0.02348918467760086
aF-9.901540756225586
aF93.52442169189453
aF-11.175140380859375
aF0.06226065754890442
aF-0.02527916431427002
aF0.01130959764122963
aF-4.263814926147461
aF28.896934509277344
aF6.104917526245117
aF-0.009913414716720581
aF-0.051371216773986816
aF0.03566877171397209
aa(lp10
F26.65876579284668
aF214.3592071533203
aF11.647835731506348
aF-0.29576587677001953
aF0.143093541264534
aF-0.0018465194152668118
aF-8.573381423950195
aF81.48779296875
aF-2.6187515258789062
aF0.0208970308303833
aF-0.054326146841049194
aF0.0460156638873741
aF-13.09187126159668
aF121.9543685913086
aF-9.162701606750488
aF0.058966606855392456
aF-0.06226147711277008
aF0.03783556341659278
aF-4.054891586303711
aF41.021217346191406
aF3.925198554992676
aF-0.017172545194625854
aF-0.04639081656932831
aF0.05419576435815543
aa(lp11
F25.09266471862793
aF232.57493591308594
aF12.339380264282227
aF-0.28869718313217163
aF0.12084860354661942
aF0.006640218198299408
aF-6.816099166870117
aF70.13523864746094
aF-0.5657205581665039
aF0.019290387630462646
aF-0.05977652221918106
aF0.04371773824095726
aF-14.252538681030273
aF133.1654281616211
aF-6.138025283813477
aF0.0573694109916687
aF-0.08892107754945755
aF0.04772782325744629
aF0.6203403472900391
aF7.105049133300781
aF5.006584167480469
aF-0.018788635730743408
aF-0.03063196688890457
aF0.03970765322446823
aa(lp12
F23.421003341674805
aF249.46710205078125
aF12.540042877197266
aF-0.2832241952419281
aF0.10100225359201431
aF0.013091732747852802
aF-6.527324676513672
aF68.69050598144531
aF-0.08823585510253906
aF0.018026620149612427
aF-0.06827687472105026
aF0.03538364265114069
aF-14.992021560668945
aF141.15602111816406
aF-4.04742431640625
aF0.0540461540222168
aF-0.11090032011270523
aF0.05662285629659891
aF1.9373722076416016
aF-3.7750091552734375
aF3.870952606201172
aF-0.017992913722991943
aF-0.025653429329395294
aF0.014144429005682468
aa(lp13
F22.690582275390625
aF265.5943603515625
aF15.071072578430176
aF-0.27964767813682556
aF0.0813392922282219
aF0.02471870183944702
aF-3.9681835174560547
aF51.23515319824219
aF3.423236846923828
aF0.01611819863319397
aF-0.0617542490363121
aF0.026565221254713833
aF-14.340423583984375
aF146.0284423828125
aF-0.09231758117675781
aF0.047776758670806885
aF-0.1262650266289711
aF0.07049979642033577
aF6.404056549072266
aF-43.558135986328125
aF6.938791275024414
aF-0.015540361404418945
aF0.0027565285563468933
aF-0.017369353910908103
aa(lp14
F21.182748794555664
aF281.2624206542969
aF13.542061805725098
aF-0.27928364276885986
aF0.06298498064279556
aF0.04199512302875519
aF-3.9099159240722656
aF48.68748474121094
aF1.202681541442871
aF0.009413540363311768
aF-0.05786362290382385
aF0.03535490483045578
aF-14.049398422241211
aF148.39100646972656
aF-0.7245254516601562
aF0.03737926483154297
aF-0.13443470746278763
aF0.0898573063313961
aF6.22956657409668
aF-51.01603698730469
aF3.1298885345458984
aF-0.018552184104919434
aF0.018707461655139923
aF-0.019147496670484543
aa(lp15
F19.788124084472656
aF296.19097900390625
aF12.72118091583252
aF-0.2848603129386902
aF0.06458333879709244
aF0.06636685878038406
aF-3.6328792572021484
aF46.723876953125
aF0.1811380386352539
aF-0.001636117696762085
aF-0.036418914794921875
aF0.05327512603253126
aF-12.12063980102539
aF133.75128173828125
aF-0.18391990661621094
aF0.023127257823944092
aF-0.11604178696870804
aF0.10344437882304192
aF4.854881286621094
aF-40.30352783203125
aF0.5461959838867188
aF-0.02639949321746826
aF0.04320395737886429
aF0.003105873242020607
aa(lp16
F19.0327091217041
aF311.49749755859375
aF12.44477367401123
aF-0.28556889295578003
aF0.05599524453282356
aF0.08392592519521713
aF-3.6578731536865234
aF45.90313720703125
aF-2.6262989044189453
aF-0.005921214818954468
aF-0.02534404769539833
aF0.05920722335577011
aF-10.915618896484375
aF130.7209014892578
aF-0.18350505828857422
aF0.015681922435760498
aF-0.11328388378024101
aF0.10621783509850502
aF3.599872589111328
aF-38.91462707519531
aF-5.069092750549316
aF-0.027524352073669434
aF0.06259578838944435
aF0.012196611613035202
aa(lp17
F18.26193618774414
aF326.5422058105469
aF12.024713516235352
aF-0.28573736548423767
aF0.048827070742845535
aF0.10095001012086868
aF-2.9208126068115234
aF45.27978515625
aF-1.517348289489746
aF-0.006453722715377808
aF-0.014157909899950027
aF0.058954887092113495
aF-8.396829605102539
aF112.18299865722656
aF0.3768777847290039
aF0.01002851128578186
aF-0.09426647052168846
aF0.1027965295361355
aF2.555204391479492
aF-21.623428344726562
aF-3.411574363708496
aF-0.022935956716537476
aF0.0659506507217884
aF0.015113244648091495
aa(lp18
F17.71343421936035
aF340.75433349609375
aF11.952731132507324
aF-0.2855222225189209
aF0.048243310302495956
aF0.11578399688005447
aF-2.0746898651123047
aF44.5633544921875
aF-0.7684497833251953
aF-0.0006619095802307129
aF-0.01634002849459648
aF0.04941713809967041
aF-7.379230499267578
aF108.17939758300781
aF-0.38664913177490234
aF0.0031749606132507324
aF-0.07260529324412346
aF0.10914377868175507
aF3.2298507690429688
aF-19.052688598632812
aF-1.1502504348754883
aF-0.004498779773712158
aF0.039925236254930496
aF-0.010309502482414246
aa(lp19
F17.027421951293945
aF354.8205261230469
aF11.844388008117676
aF-0.2827964127063751
aF0.04666406661272049
aF0.12205769121646881
aF-2.0052871704101562
aF43.323028564453125
aF-0.6003856658935547
aF0.0027724802494049072
aF-0.009331177920103073
aF0.03813176602125168
aF-6.393581390380859
aF105.35342407226562
aF-0.6956548690795898
aF0.0004277825355529785
aF-0.05433818697929382
aF0.10896595846861601
aF2.383007049560547
aF-18.707366943359375
aF-0.5051164627075195
aF0.005117177963256836
aF0.03567583113908768
aF-0.03270242642611265
aa(lp20
F16.55801773071289
aF368.2262878417969
aF11.969965934753418
aF-0.28316643834114075
aF0.04897689074277878
aF0.13692334294319153
aF-1.70391845703125
aF41.68408203125
aF-0.054747581481933594
aF0.002570927143096924
aF0.0001498199999332428
aF0.035973332822322845
aF-6.132564544677734
aF102.63192749023438
aF-3.101106643676758
aF-0.0035187602043151855
aF-0.032362401485443115
aF0.1122046411037445
aF2.7247276306152344
aF-19.263763427734375
aF2.9916114807128906
aF0.008660614490509033
aF0.0326620414853096
aF-0.040257975459098816
aa(lp21
F16.035703659057617
aF381.1020202636719
aF12.147624015808105
aF-0.2982330322265625
aF0.053480833768844604
aF0.15039914846420288
aF-1.6777305603027344
aF40.347686767578125
aF0.19489288330078125
aF-0.012710809707641602
aF0.005237523466348648
aF0.03461515158414841
aF-5.147045135498047
aF99.839599609375
aF-1.3944377899169922
aF-0.018949389457702637
aF-0.009504146873950958
aF0.10840402543544769
aF1.7915840148925781
aF-19.14422607421875
aF1.7842235565185547
aF-0.006472229957580566
aF0.019979193806648254
aF-0.03917372226715088
aa(lp22
F15.259113311767578
aF392.87890625
aF12.076860427856445
aF-0.3037637770175934
aF0.05280478298664093
aF0.14893820881843567
aF-1.7683086395263672
aF38.058380126953125
aF0.23247241973876953
aF-0.02096736431121826
aF0.006140716373920441
aF0.026880517601966858
aF-4.529010772705078
aF96.68792724609375
aF-0.6443204879760742
aF-0.018903464078903198
aF-0.011778555810451508
aF0.0825713500380516
aF0.9923934936523438
aF-20.5711669921875
aF1.1092653274536133
aF-0.023031264543533325
aF0.02405998855829239
aF-0.02881031483411789
aa(lp23
F14.571236610412598
aF405.5518798828125
aF11.753700256347656
aF-0.30637213587760925
aF0.06861019134521484
aF0.13834862411022186
aF-1.986781120300293
aF37.325592041015625
aF-0.21626567840576172
aF-0.023205697536468506
aF0.019633300602436066
aF0.0014252811670303345
aF-4.461472511291504
aF94.05438232421875
aF-0.6910734176635742
aF-0.020803242921829224
aF0.012614946812391281
aF0.05442269891500473
aF0.48791027069091797
aF-19.4031982421875
aF0.2585420608520508
aF-0.025608152151107788
aF0.02665165439248085
aF-0.05157213658094406
aa(lp24
F13.794384956359863
aF417.8097839355469
aF11.2188081741333
aF-0.3072168231010437
aF0.05914682894945145
aF0.14915324747562408
aF-2.241318702697754
aF36.707763671875
aF-0.9288158416748047
aF-0.008983790874481201
aF0.005665995180606842
aF-0.0012459009885787964
aF-4.467551231384277
aF91.267578125
aF-0.8059053421020508
aF-0.02147945761680603
aF0.010319758206605911
aF0.0482032373547554
aF-0.015086174011230469
aF-17.85205078125
aF-1.0517263412475586
aF0.003511875867843628
aF0.0010122321546077728
aF-0.050695039331912994
aa(lp25
F12.984063148498535
aF429.3819274902344
aF11.119284629821777
aF-0.31648945808410645
aF0.07089919596910477
aF0.1781105250120163
aF-2.275050163269043
aF36.503021240234375
aF-0.957575798034668
aF-0.012725681066513062
aF0.018094412982463837
aF0.029172316193580627
aF-4.729371070861816
aF88.62759399414062
aF-0.8334465026855469
aF-0.030967235565185547
aF0.02265588566660881
aF0.06232652813196182
aF0.17927074432373047
aF-15.621551513671875
aF-1.081705093383789
aF0.005515873432159424
aF0.013532940298318863
aF-0.003981895744800568
aa(lp26
F12.061877250671387
aF440.3721923828125
aF11.269041061401367
aF-0.3104622960090637
aF0.07804848253726959
aF0.16331547498703003
aF-2.509359359741211
aF34.8203125
aF-0.48465919494628906
aF-0.004090160131454468
aF0.009438291192054749
aF0.024966850876808167
aF-4.965544700622559
aF85.55166625976562
aF-0.5753469467163086
aF-0.0276658833026886
aF0.0313844159245491
aF0.04125778377056122
aF-0.05317401885986328
aF-15.911041259765625
aF-0.39397144317626953
aF0.019485563039779663
aF-0.012507833540439606
aF0.008675917983055115
aa(lp27
F11.756182670593262
aF451.9834899902344
aF11.56690788269043
aF-0.30861896276474
aF0.07929585129022598
aF0.1735261231660843
aF-2.0382022857666016
aF34.1737060546875
aF0.3480997085571289
aF-0.001402139663696289
aF0.020149022340774536
aF0.024372875690460205
aF-4.801835060119629
aF83.7572021484375
aF-0.4030580520629883
aF-0.025452524423599243
aF0.030318960547447205
aF0.03660278022289276
aF0.7254304885864258
aF-15.4097900390625
aF1.099257469177246
aF0.022648245096206665
aF0.009979084134101868
aF0.012142971158027649
aa(lp28
F11.467317581176758
aF463.1334533691406
aF13.178813934326172
aF-0.2970503270626068
aF0.09410090744495392
aF0.13443683087825775
aF-1.5167455673217773
aF33.75152587890625
aF2.0595293045043945
aF0.019439131021499634
aF0.02320171147584915
aF-0.043673694133758545
aF-4.568386077880859
aF82.03143310546875
aF1.0311899185180664
aF0.0011827051639556885
aF0.040620073676109314
aF-0.01596231758594513
aF1.5348949432373047
aF-14.52838134765625
aF3.0878686904907227
aF0.03769555687904358
aF0.005783349275588989
aF-0.07138507068157196
aa(lp29
F11.23261547088623
aF473.6541748046875
aF13.956648826599121
aF-0.290253221988678
aF0.058354854583740234
aF0.1485232412815094
aF-0.8292617797851562
aF33.281982421875
aF2.687607765197754
aF0.020209074020385742
aF-0.019693627953529358
aF-0.01479223370552063
aF-4.026497840881348
aF80.7752685546875
aF1.8797883987426758
aF0.013510555028915405
aF0.005550071597099304
aF-0.00041496753692626953
aF2.367974281311035
aF-14.2113037109375
aF3.495427131652832
aF0.02690759301185608
aF-0.04493732750415802
aF-0.02916949987411499
aa(lp30
F10.888599395751953
aF484.1155700683594
aF14.037160873413086
aF-0.2816770672798157
aF0.040918972343206406
aF0.14406010508537292
aF-0.8675832748413086
aF32.132080078125
aF2.4702529907226562
aF0.026941895484924316
aF-0.03837687894701958
aF-0.029466018080711365
aF-3.6826372146606445
aF78.56369018554688
aF2.2834606170654297
aF0.02469506859779358
aF-0.027691219002008438
aF0.005711480975151062
aF1.9474706649780273
aF-14.299530029296875
aF2.657045364379883
aF0.029188722372055054
aF-0.049062538892030716
aF-0.06464351713657379
aa.