(lp0
(lp1
F10.485989570617676
aF100.46488952636719
aF25.75896644592285
aF-0.33395183086395264
aF0.2279472053050995
aF0.08907435834407806
aF1.6505861282348633
aF-9.712882995605469
aF-19.543100357055664
aF0.018801331520080566
aF-0.011194571852684021
aF-0.010025061666965485
aF5.6376800537109375
aF-21.27814483642578
aF-40.445302963256836
aF0.0456579327583313
aF0.009632259607315063
aF-0.02511133998632431
aF-2.336507797241211
aF1.8523788452148438
aF1.3591022491455078
aF-0.008055269718170166
aF-0.032021403312683105
aF0.005061216652393341
aa(lp2
F9.549161911010742
aF106.71928405761719
aF20.247028350830078
aF-0.32505959272384644
aF0.21489165723323822
aF0.08180259168148041
aF-0.06799030303955078
aF-0.0607757568359375
aF-19.541584014892578
aF0.022636443376541138
aF-0.02779679000377655
aF-0.014007903635501862
aF3.826706886291504
aF-12.320556640625
aF-40.50742721557617
aF0.04631847143173218
aF-0.008347421884536743
aF-0.02880452573299408
aF-3.9626874923706055
aF12.199005126953125
aF1.4242591857910156
aF-0.0010455846786499023
aF-0.04724615812301636
aF0.0007887184619903564
aa(lp3
F8.813740730285645
aF114.5271224975586
aF18.741422653198242
aF-0.3180416226387024
aF0.20131003856658936
aF0.07308745384216309
aF-1.6840314865112305
aF13.097747802734375
aF-11.416923522949219
aF0.023135393857955933
aF-0.035674527287483215
aF-0.02124711126089096
aF2.1191658973693848
aF-1.8365325927734375
aF-36.971200942993164
aF0.04654186964035034
aF-0.02783985435962677
aF-0.031005240976810455
aF-5.487228870391846
aF28.032028198242188
aF14.137353897094727
aF-0.00027108192443847656
aF-0.04350920021533966
aF-0.011488981544971466
aa(lp4
F8.152117729187012
aF124.17533111572266
aF17.379606246948242
aF-0.31204622983932495
aF0.18526192009449005
aF0.063273586332798
aF-2.333871841430664
aF23.71044158935547
aF-8.37936019897461
aF0.021905601024627686
aF-0.042685285210609436
aF-0.02580077201128006
aF0.2650012969970703
aF10.81243896484375
aF-33.28970146179199
aF0.04641076922416687
aF-0.049970775842666626
aF-0.03631601482629776
aF-4.932744979858398
aF36.60844421386719
aF16.530981063842773
aF-0.002599567174911499
aF-0.035399794578552246
aF-0.01528552919626236
aa(lp5
F7.499225616455078
aF135.70330810546875
aF16.05901527404785
aF-0.3072507977485657
aF0.16917674243450165
aF0.05231291800737381
aF-2.049936294555664
aF28.984024047851562
aF-4.188013076782227
aF0.01780879497528076
aF-0.04571491479873657
aF-0.029489673674106598
aF-1.3361778259277344
aF25.525535583496094
aF-29.243051528930664
aF0.04550236463546753
aF-0.06996503472328186
aF-0.04678650200366974
aF-2.7636947631835938
aF32.44251251220703
aF20.86702537536621
aF-0.009884774684906006
aF-0.021464794874191284
aF-0.012192845344543457
aa(lp6
F7.008004188537598
aF148.48440551757812
aF14.643074035644531
aF-0.3038460314273834
aF0.15433929860591888
aF0.04483998566865921
aF-1.8057365417480469
aF33.95728302001953
aF-4.098348617553711
aF0.01419559121131897
aF-0.04697073996067047
aF-0.028247468173503876
aF-2.6091480255126953
aF41.704345703125
aF-25.145538330078125
aF0.04385000467300415
aF-0.08834914863109589
aF-0.05097050964832306
aF-1.0023250579833984
aF26.210220336914062
aF16.948841094970703
aF-0.015458822250366211
aF-0.005592331290245056
aF-0.005524426698684692
aa(lp7
F6.759743690490723
aF161.99710083007812
aF12.949511528015137
aF-0.3016294538974762
aF0.14236432313919067
aF0.039430178701877594
aF-1.392374038696289
aF37.82176971435547
aF-4.4300947189331055
aF0.010416775941848755
aF-0.04289759695529938
aF-0.02384340763092041
aF-3.7380285263061523
aF60.567726135253906
aF-17.208834648132324
aF0.03954756259918213
aF-0.0946202427148819
aF-0.05490438640117645
aF0.9532804489135742
aF15.075813293457031
aF8.348645210266113
aF-0.01871401071548462
aF0.008825048804283142
aF0.007217571139335632
aa(lp8
F7.040854454040527
aF187.7130126953125
aF9.120627403259277
aF-0.29864829778671265
aF0.11719785630702972
aF0.036122363060712814
aF-0.4583711624145508
aF52.00970458984375
aF-6.938387870788574
aF0.008602499961853027
aF-0.051978886127471924
aF-0.016190554946660995
aF-3.4451351165771484
aF87.24812316894531
aF-16.638339042663574
aF0.03530353307723999
aF-0.11074934899806976
aF-0.05295199528336525
aF2.528392791748047
aF16.771286010742188
aF2.761563301086426
aF-0.018098533153533936
aF0.0067915767431259155
aF0.02057088539004326
aa(lp9
F7.474072456359863
aF202.45840454101562
aF7.2259602546691895
aF-0.29929450154304504
aF0.0955091267824173
aF0.03737141564488411
aF0.4660682678222656
aF53.9739990234375
aF-7.417113780975342
aF0.004551529884338379
aF-0.05883017182350159
aF-0.007468570023775101
aF-2.075089454650879
aF95.73912048339844
aF-13.021068096160889
aF0.02576509118080139
aF-0.11938253045082092
aF-0.0444311760365963
aF3.00722599029541
aF12.208877563476562
aF-1.813159465789795
aF-0.016662031412124634
aF0.001722186803817749
aF0.029494035989046097
aa(lp10
F7.698875904083252
aF229.1078643798828
aF3.005496025085449
aF-0.29870182275772095
aF0.08060945570468903
aF0.03676848113536835
aF0.9391322135925293
aF67.11076354980469
aF-9.944015502929688
aF0.002927631139755249
aF-0.06175486743450165
aF-0.002661697566509247
aF-1.1148648262023926
aF114.58074188232422
aF-15.735926628112793
aF0.019339799880981445
aF-0.12070058286190033
aF-0.03631897270679474
aF2.993129253387451
aF19.640785217285156
aF-4.152104377746582
aF-0.013484537601470947
aF-0.0028091520071029663
aF0.030995577573776245
aa(lp11
F7.911770343780518
aF243.9290313720703
aF1.1836460828781128
aF-0.30078503489494324
aF0.06827408075332642
aF0.04115990549325943
aF0.8709158897399902
aF56.21601867675781
aF-7.9369813203811646
aF-0.002136737108230591
aF-0.04892377555370331
aF0.005037542432546616
aF-0.24034738540649414
aF119.75370025634766
aF-16.19596016407013
aF0.011261194944381714
aF-0.11698783934116364
aF-0.022113680839538574
aF1.9821791648864746
aF-7.321662902832031
aF0.3219975233078003
aF-0.015534669160842896
aF0.01914028823375702
aF0.032188765704631805
aa(lp12
F9.024432182312012
aF258.5950622558594
aF4.0892534255981445
aF-0.2999337613582611
aF0.05478188395500183
aF0.04814784228801727
aF1.5503597259521484
aF56.13665771484375
aF-3.136706829071045
aF-0.0006392598152160645
aF-0.040727242827415466
aF0.010776426643133163
aF1.5252065658569336
aF122.89175415039062
aF-11.969761848449707
aF0.007317036390304565
aF-0.11439485847949982
aF-0.004165075719356537
aF1.5755128860473633
aF-10.618438720703125
aF5.696348190307617
aF-0.008595556020736694
aF0.032940372824668884
aF0.025717929005622864
aa(lp13
F8.235701560974121
aF272.36798095703125
aF0.865012526512146
aF-0.29932430386543274
aF0.05818147957324982
aF0.05362648516893387
aF0.5368256568908691
aF43.26011657714844
aF-2.1404834985733032
aF-0.000622481107711792
aF-0.02242797613143921
aF0.01685800403356552
aF1.2276973724365234
aF123.88357543945312
aF-13.778061509132385
aF0.004521727561950684
aF-0.09615781903266907
aF0.008786499500274658
aF-0.15404605865478516
aF-37.36334228515625
aF9.497094511985779
aF-0.005766689777374268
aF0.05130186676979065
aF0.024929508566856384
aa(lp14
F8.71718692779541
aF286.4870300292969
aF5.239187240600586
aF-0.2942763864994049
aF0.05551436170935631
aF0.05089264363050461
aF0.8054165840148926
aF42.55799865722656
aF4.055541157722473
aF0.00650864839553833
aF-0.012759719043970108
aF0.009732738137245178
aF1.9574432373046875
aF124.48992919921875
aF-7.710324287414551
aF0.007353067398071289
aF-0.08684996142983437
aF0.011462464928627014
aF-0.34661006927490234
aF-39.373931884765625
aF15.821406602859497
aF0.005664229393005371
aF0.06133052334189415
aF0.008003011345863342
aa(lp15
F7.322653770446777
aF300.2286376953125
aF3.3398449420928955
aF-0.289551705121994
aF0.04787805676460266
aF0.06193717196583748
aF-1.7017784118652344
aF41.633575439453125
aF-0.749408483505249
aF0.01038205623626709
aF-0.00690382719039917
aF0.013789329677820206
aF0.28179931640625
aF112.515625
aF-5.780782461166382
aF0.009096592664718628
aF-0.06931979954242706
aF0.025814808905124664
aF-3.6853561401367188
aF-29.24847412109375
aF4.281965494155884
aF0.011667519807815552
aF0.05551214516162872
aF0.001763850450515747
aa(lp16
F5.8911213874816895
aF314.84136962890625
aF3.057509183883667
aF-0.2821887731552124
aF0.037529561668634415
aF0.07096713036298752
aF-2.3445801734924316
aF42.473388671875
aF2.192496657371521
aF0.017135530710220337
aF-0.020651917904615402
aF0.01734064519405365
aF-1.5829510688781738
aF112.38296508789062
aF-4.1684510707855225
aF0.01710572838783264
aF-0.05797956511378288
aF0.03359571471810341
aF-3.1062092781066895
aF-27.436187744140625
aF8.553444385528564
aF0.017165333032608032
aF0.016675729304552078
aF0.001085575670003891
aa(lp17
F3.502685308456421
aF328.25213623046875
aF-0.864918053150177
aF-0.27658751606941223
aF0.03826703876256943
aF0.0814872607588768
aF-5.214501619338989
aF41.765106201171875
aF-6.104105293750763
aF0.017688870429992676
aF-0.01724732294678688
aF0.030594617128372192
aF-4.196190595626831
aF99.14427185058594
aF-3.870414078235626
aF0.022114306688308716
aF-0.0423424169421196
aF0.04471877962350845
aF-6.2328126430511475
aF-15.614059448242188
aF-8.3377965092659
aF0.013263434171676636
aF0.007847771048545837
aF0.01647045463323593
aa(lp18
F1.6193795204162598
aF342.17059326171875
aF-1.5584930181503296
aF-0.2711588740348816
aF0.037577901035547256
aF0.10118122398853302
aF-5.703274250030518
aF41.94195556640625
aF-4.898337960243225
aF0.018392831087112427
aF-0.010300155729055405
aF0.03924405202269554
aF-6.292390823364258
aF98.24156188964844
aF-2.7421391010284424
aF0.029626160860061646
aF-0.03069617971777916
aF0.06002131849527359
aF-5.114157676696777
aF-14.357650756835938
aF-7.054536819458008
aF0.007159501314163208
aF0.01009586825966835
aF0.018466785550117493
aa(lp19
F-0.4453495740890503
aF355.7863464355469
aF-1.8940612077713013
aF-0.2657549977302551
aF0.04550332576036453
aF0.11897718161344528
aF-6.33647096157074
aF40.944976806640625
aF-4.951570391654968
aF0.016433775424957275
aF0.007973764091730118
aF0.048010051250457764
aF-9.469781756401062
aF97.1912841796875
aF-5.983314633369446
aF0.03417876362800598
aF-0.009278558194637299
aF0.07082933932542801
aF-3.2031601667404175
aF-15.30133056640625
aF-3.9198261499404907
aF-0.0013112127780914307
aF0.025226086378097534
aF0.02519076317548752
aa(lp20
F-2.5152065753936768
aF368.46136474609375
aF-0.9944900870323181
aF-0.25954797863960266
aF0.04621845856308937
aF0.14323994517326355
aF-6.017891883850098
aF40.209228515625
aF-0.1295720338821411
aF0.01703953742980957
aF0.007951419800519943
aF0.06175268441438675
aF-10.750908136367798
aF96.0933837890625
aF-1.8595026135444641
aF0.03977632522583008
aF-0.011963021010160446
aF0.08961346000432968
aF-1.2848756313323975
aF-15.6749267578125
aF1.6003585457801819
aF-0.0056972503662109375
aF0.027865860611200333
aF0.03389190882444382
aa(lp21
F-4.5188727378845215
aF382.44757080078125
aF0.6583926677703857
aF-0.2505089342594147
aF0.05098015442490578
aF0.1593611240386963
aF-6.138252258300781
aF40.2769775390625
aF2.2168856859207153
aF0.02064993977546692
aF0.01340225338935852
aF0.05817990005016327
aF-13.236059665679932
aF95.96054077148438
aF-4.5807945728302
aF0.043767452239990234
aF-0.004534207284450531
aF0.10846848040819168
aF0.9595551490783691
aF-15.406585693359375
aF9.01456594467163
aF-0.0024675726890563965
aF0.03133871406316757
aF0.007891319692134857
aa(lp22
F-6.480325698852539
aF396.18463134765625
aF2.1860883235931396
aF-0.24370723962783813
aF0.051811255514621735
aF0.18479423224925995
aF-6.034976124763489
aF40.398284912109375
aF4.080149531364441
aF0.022047758102416992
aF0.006307929754257202
aF0.06581705063581467
aF-13.802979469299316
aF95.95599365234375
aF-1.1537566184997559
aF0.045844465494155884
aF0.0039331987500190735
aF0.12285706028342247
aF1.7330272197723389
aF-15.159423828125
aF9.314055681228638
aF-0.0017489492893218994
aF0.00868266075849533
aF0.008777040988206863
aa(lp23
F-8.739945411682129
aF409.0984191894531
aF3.4669063091278076
aF-0.24088039994239807
aF0.05378038436174393
aF0.21602162718772888
aF-6.224738836288452
aF40.637054443359375
aF4.461396396160126
aF0.01866757869720459
aF0.007561925798654556
aF0.07278168201446533
aF-14.631066799163818
aF94.25704956054688
aF0.4093971252441406
aF0.04130837321281433
aF0.016250822693109512
aF0.14505449682474136
aF2.181589126586914
aF-12.982940673828125
aF8.51339566707611
aF-0.003973215818405151
aF-0.0011269710958003998
aF0.0005088672041893005
aa(lp24
F-10.754044532775879
aF422.2397155761719
aF5.013966083526611
aF-0.23555560410022736
aF0.05316750332713127
aF0.23632605373859406
aF-6.235171794891357
aF39.792144775390625
aF4.355573415756226
aF0.014953330159187317
aF0.0021873489022254944
aF0.07696492969989777
aF-14.2567298412323
aF93.98757934570312
aF5.878884136676788
aF0.041031911969184875
aF0.014900464564561844
aF0.15483879297971725
aF1.786386251449585
aF-14.403289794921875
aF2.832262694835663
aF-0.011125251650810242
aF-0.010525766760110855
aF-0.0009089335799217224
aa(lp25
F-12.78156852722168
aF435.6668701171875
aF6.280466079711914
aF-0.23381078243255615
aF0.06928684562444687
aF0.2578812837600708
aF-6.301242828369141
aF39.48223876953125
aF4.094377756118774
aF0.009896457195281982
aF0.017475590109825134
aF0.07308705151081085
aF-14.40094804763794
aF93.49627685546875
aF7.838959097862244
aF0.03734809160232544
aF0.03170894458889961
aF0.15670005977153778
aF1.7984623908996582
aF-14.53179931640625
aF0.3497964143753052
aF-0.017555177211761475
aF0.003242235630750656
aF-0.010525956749916077
aa(lp26
F-14.731048583984375
aF448.865234375
aF8.273030281066895
aF-0.22550152242183685
aF0.06873290985822678
aF0.2665763199329376
aF-5.991103172302246
aF39.766815185546875
aF4.806123971939087
aF0.015378877520561218
aF0.014952525496482849
aF0.05055469274520874
aF-14.285699009895325
aF93.07888793945312
aF10.167091488838196
aF0.040253475308418274
aF0.023229584097862244
aF0.14759913831949234
aF2.3034926652908325
aF-13.545257568359375
aF-0.554843544960022
aF-0.009495720267295837
aF0.006675466895103455
aF-0.04648975282907486
aa(lp27
F-16.422822952270508
aF460.9606628417969
aF10.593815803527832
aF-0.2232767790555954
aF0.0895129144191742
aF0.2720017731189728
aF-5.668778419494629
aF38.720947265625
aF5.579849720001221
aF0.012278825044631958
aF0.03634541109204292
aF0.03567571938037872
aF-13.907616376876831
aF92.49929809570312
aF11.58830589056015
aF0.03627119958400726
aF0.043294455856084824
aF0.12876182794570923
aF2.5700595378875732
aF-15.057403564453125
aF-0.42860645055770874
aF-0.011713549494743347
aF0.029396366328001022
aF-0.05741038918495178
aa(lp28
F-18.153453826904297
aF474.0987548828125
aF12.674407958984375
aF-0.22316841781139374
aF0.10649953037500381
aF0.28621476888656616
aF-5.371885299682617
aF38.431884765625
aF6.393941879272461
aF0.010642364621162415
aF0.037212684750556946
aF0.02833348512649536
aF-13.634581089019775
aF91.65118408203125
aF12.01601529121399
aF0.027340516448020935
aF0.05551937595009804
aF0.12685364484786987
aF2.890810489654541
aF-14.78741455078125
aF0.7718684673309326
aF-0.006055787205696106
aF0.018905993551015854
aF-0.07018667459487915
aa(lp29
F-19.5336971282959
aF484.905029296875
aF14.62905216217041
aF-0.24679891765117645
aF0.09027007967233658
aF0.3121928870677948
aF-4.802648544311523
aF36.039794921875
aF6.356021881103516
aF-0.0212973952293396
aF0.021537169814109802
aF0.04561656713485718
aF-13.05337142944336
aF88.72039794921875
aF12.44296383857727
aF-0.003091678023338318
aF0.038458824157714844
aF0.12739865481853485
aF3.4480743408203125
aF-16.64080810546875
aF0.26907992362976074
aF-0.03950311243534088
aF0.004615515470504761
aF-0.036165520548820496
aa(lp30
F-20.919422149658203
aF496.18243408203125
aF16.007326126098633
aF-0.28809088468551636
aF0.10469239205121994
aF0.3628045618534088
aF-4.496599197387695
aF35.221771240234375
aF5.413510322570801
aF-0.06481410562992096
aF0.015179477632045746
aF0.09080278873443604
aF-12.179476737976074
aF87.08401489257812
aF12.540419816970825
aF-0.047210484743118286
aF0.05091200768947601
aF0.14678293466567993
aF3.1862783432006836
aF-16.640472412109375
aF-1.7133991718292236
aF-0.08241772651672363
aF-0.02055305242538452
aF0.03482264280319214
aa.