(lp0
(lp1
F-15.618083953857422
aF107.98198699951172
aF27.159503936767578
aF-0.31782081723213196
aF0.18899433314800262
aF0.0847148597240448
aF-4.086129188537598
aF-8.971832275390625
aF-13.668041229248047
aF0.02074676752090454
aF-0.014638334512710571
aF-0.024797946214675903
aF-6.87722110748291
aF-18.94287109375
aF-28.419322967529297
aF0.045154422521591187
aF-0.03266488015651703
aF-0.049760520458221436
aF-1.2950372695922852
aF0.99920654296875
aF1.0832405090332031
aF-0.0036608874797821045
aF0.0033882111310958862
aF0.0001646280288696289
aa(lp2
F-16.314800262451172
aF106.99285125732422
aF23.329252243041992
aF-0.31161847710609436
aF0.1845456212759018
aF0.07488628476858139
aF-3.620565414428711
aF-7.588859558105469
aF-14.287626266479492
aF0.020343542098999023
aF-0.014722630381584167
aF-0.032005615532398224
aF-7.333392143249512
aF-17.725425720214844
aF-27.939790725708008
aF0.04639926552772522
aF-0.035755544900894165
aF-0.046897828578948975
aF0.09226131439208984
aF2.5477066040039062
aF-0.6354618072509766
aF-0.005712181329727173
aF0.00631028413772583
aF-0.017113402485847473
aa(lp3
F-17.137834548950195
aF109.90924072265625
aF16.630603790283203
aF-0.30586618185043335
aF0.16977104544639587
aF0.07183288782835007
aF-3.301133155822754
aF-2.17889404296875
aF-17.62423324584961
aF0.01899459958076477
aF-0.02490156888961792
aF-0.02495015412569046
aF-7.588675498962402
aF-12.227371215820312
aF-30.90496826171875
aF0.04568323493003845
aF-0.043634429574012756
aF-0.04714556783437729
aF0.9864091873168945
aF7.8695831298828125
aF-4.343498229980469
aF-0.007694035768508911
aF-0.0061687082052230835
aF-0.0027547404170036316
aa(lp4
F-17.383403778076172
aF114.9972152709961
aF13.414544105529785
aF-0.30242112278938293
aF0.15591323375701904
aF0.06797035038471222
aF-1.76531982421875
aF7.015228271484375
aF-13.744959831237793
aF0.015399694442749023
aF-0.03308109939098358
aF-0.01674450933933258
aF-6.958137512207031
aF-4.558784484863281
aF-30.724173545837402
aF0.04275861382484436
aF-0.052145734429359436
aF-0.04854895919561386
aF3.4274978637695312
aF18.58924102783203
aF3.2342538833618164
aF-0.011959224939346313
aF-0.014016464352607727
aF0.0150599405169487
aa(lp5
F-17.664052963256836
aF122.71501922607422
aF10.480703353881836
aF-0.3002617359161377
aF0.14575597643852234
aF0.06308197975158691
aF-1.349252700805664
aF15.72216796875
aF-12.848548889160156
aF0.011356741189956665
aF-0.038789644837379456
aF-0.011804305016994476
aF-6.132098197937012
aF5.761199951171875
aF-30.34684181213379
aF0.038305848836898804
aF-0.05787669122219086
aF-0.04643082618713379
aF3.4335927963256836
aF25.683135986328125
aF4.649744033813477
aF-0.015592366456985474
aF-0.019702598452568054
aF0.022822216153144836
aa(lp6
F-17.987253189086914
aF132.83407592773438
aF7.848926067352295
aF-0.2984856069087982
aF0.13406746089458466
aF0.05701947584748268
aF-0.8494186401367188
aF22.924835205078125
aF-8.781677722930908
aF0.007380574941635132
aF-0.03570358455181122
aF-0.014813411980867386
aF-5.293018341064453
aF18.252365112304688
aF-29.76795244216919
aF0.033476412296295166
aF-0.0652007907629013
aF-0.04987242445349693
aF3.5941810607910156
aF27.597305297851562
aF12.204596996307373
aF-0.018715262413024902
aF-0.00620637834072113
aF0.02024560049176216
aa(lp7
F-18.424846649169922
aF144.66253662109375
aF5.4548749923706055
aF-0.2973715364933014
aF0.1267164796590805
aF0.04993285611271858
aF-1.04144287109375
aF29.665321350097656
aF-7.95966911315918
aF0.005049586296081543
aF-0.029196754097938538
aF-0.018037494271993637
aF-4.5881452560424805
aF32.57440185546875
aF-28.799962043762207
aF0.02748924493789673
aF-0.06795613467693329
aF-0.046850185841321945
aF2.5052595138549805
aF26.756240844726562
aF12.880623817443848
aF-0.017390072345733643
aF0.009562626481056213
aF0.010775197297334671
aa(lp8
F-18.954647064208984
aF158.05516052246094
aF3.3661913871765137
aF-0.29587236046791077
aF0.11597897857427597
aF0.04310907796025276
aF-1.2905941009521484
aF35.34014129638672
aF-7.114511966705322
aF0.004389375448226929
aF-0.02977699786424637
aF-0.019972901791334152
aF-3.3365631103515625
aF50.07317352294922
aF-23.793312549591064
aF0.02194845676422119
aF-0.07301535457372665
aF-0.04160578176379204
aF0.7553749084472656
aF20.60710906982422
aF9.56428861618042
aF-0.013169705867767334
aF0.013461358845233917
aF0.0016599781811237335
aa(lp9
F-20.261775970458984
aF185.47061157226562
aF-1.1582149267196655
aF-0.29390937089920044
aF0.10432498902082443
aF0.03512582555413246
aF-2.2745227813720703
aF52.63653564453125
aF-9.00714099407196
aF0.004576236009597778
aF-0.029742471873760223
aF-0.02189365029335022
aF-3.9469757080078125
aF78.4777603149414
aF-24.487467169761658
aF0.01770910620689392
aF-0.08022063225507736
aF-0.03976045921444893
aF-0.6020698547363281
aF26.795310974121094
aF6.473185181617737
aF-0.008556634187698364
aF0.020735688507556915
aF-0.004026841372251511
aa(lp10
F-21.02370834350586
aF201.84205627441406
aF-3.3178746700286865
aF-0.2939090132713318
aF0.09548378735780716
aF0.03338686004281044
aF-2.5988616943359375
aF57.17951965332031
aF-8.772749662399292
aF0.0034625232219696045
aF-0.031232692301273346
aF-0.016545996069908142
aF-3.885873794555664
aF91.93281555175781
aF-19.94847846031189
aF0.011957168579101562
aF-0.07428725808858871
aF-0.03844602778553963
aF-1.311849594116211
aF22.426223754882812
aF2.4029791355133057
aF-0.0050321221351623535
aF0.011821873486042023
aF0.005354035645723343
aa(lp11
F-22.253734588623047
aF231.72149658203125
aF-7.376811981201172
aF-0.2965368926525116
aF0.09252093732357025
aF0.042347460985183716
aF-3.2990875244140625
aF73.66633605957031
aF-10.743003368377686
aF-0.0006645321846008301
aF-0.02345804125070572
aF-0.000761616975069046
aF-4.870330810546875
aF116.72428131103516
aF-20.791356086730957
aF0.005884230136871338
aF-0.06339229643344879
aF-0.025622889399528503
aF-1.72784423828125
aF30.60839080810547
aF-0.6946506500244141
aF-0.007213294506072998
aF0.016476213932037354
aF0.02409965544939041
aa(lp12
F-22.94305992126465
aF247.97218322753906
aF-8.864513397216797
aF-0.30076056718826294
aF0.09536578506231308
aF0.04762186482548714
aF-2.681283950805664
aF62.50157165527344
aF-7.706298470497131
aF-0.0068511962890625
aF-0.008959203958511353
aF0.012496039271354675
aF-5.2790069580078125
aF125.25716400146484
aF-19.345216751098633
aF-0.0004988312721252441
aF-0.05039019137620926
aF-0.015460114926099777
aF-0.08356094360351562
aF-0.25402069091796875
aF3.93261981010437
aF-0.013203561305999756
aF0.032471783459186554
aF0.04045219346880913
aa(lp13
F-24.042966842651367
aF263.46136474609375
aF-10.185948371887207
aF-0.30223798751831055
aF0.09726288914680481
aF0.054933179169893265
aF-3.019258499145508
aF61.61930847167969
aF-6.8680737018585205
aF-0.00832897424697876
aF0.0017791017889976501
aF0.021546319127082825
aF-6.055713653564453
aF130.62728881835938
aF-18.034874439239502
aF-0.003752380609512329
aF-0.036804571747779846
aF-0.0020862966775894165
aF0.0171966552734375
aF-7.388671875
aF4.298727035522461
aF-0.01290556788444519
aF0.040362775325775146
aF0.045178934931755066
aa(lp14
F-25.362422943115234
aF277.8526306152344
aF-10.993000030517578
aF-0.3030707538127899
aF0.09467273950576782
aF0.06886626034975052
aF-3.1086883544921875
aF46.131134033203125
aF-3.6161880493164062
aF-0.00653386116027832
aF0.002151802182197571
aF0.026518799364566803
aF-6.9375762939453125
aF133.19009399414062
aF-16.447875022888184
aF-0.005699217319488525
aF-0.03204374015331268
aF0.018933404237031937
aF0.7201995849609375
aF-40.927825927734375
aF9.215498924255371
aF-0.007368505001068115
aF0.036347344517707825
aF0.03410419449210167
aa(lp15
F-26.675615310668945
aF292.68548583984375
aF-11.702910423278809
aF-0.3032379448413849
aF0.09176785498857498
aF0.08694490045309067
aF-3.732555389404297
aF44.71330261230469
aF-2.8383970260620117
aF-0.0024773776531219482
aF-0.003597930073738098
aF0.03932303562760353
aF-7.720968246459961
aF134.6303253173828
aF-15.069101810455322
aF-0.007365584373474121
aF-0.02421112358570099
aF0.043835822492837906
aF0.2558574676513672
aF-45.20372009277344
aF9.392307758331299
aF0.0024108290672302246
aF0.017015263438224792
aF0.034810248762369156
aa(lp16
F-28.101961135864258
aF307.5892639160156
aF-11.685416221618652
aF-0.3041594326496124
aF0.09970118850469589
aF0.10049810260534286
aF-4.058994293212891
aF44.127899169921875
aF-1.4994678497314453
aF-0.0019214451313018799
aF0.0024382993578910828
aF0.0455649234354496
aF-7.840185165405273
aF122.11865234375
aF-10.527201294898987
aF-0.010250061750411987
aF-0.00462380051612854
aF0.0653722770512104
aF-0.2778034210205078
aF-33.86285400390625
aF7.528265595436096
aF0.0064071714878082275
aF0.009500399231910706
aF0.025757569819688797
aa(lp17
F-29.324161529541016
aF321.604736328125
aF-9.719581604003906
aF-0.307468980550766
aF0.11382866650819778
aF0.11759831756353378
aF-3.9617385864257812
aF43.752105712890625
aF1.2734184265136719
aF-0.004398226737976074
aF0.019155927002429962
aF0.048732057213783264
aF-8.300453186035156
aF119.76268005371094
aF-6.40170693397522
aF-0.013559967279434204
aF0.018344879150390625
aF0.08421145752072334
aF0.37697601318359375
aF-32.25846862792969
aF8.948543787002563
aF0.004763513803482056
aF0.0199669748544693
aF0.013252656906843185
aa(lp18
F-30.497692108154297
aF335.74481201171875
aF-7.465666770935059
aF-0.31246888637542725
aF0.11781156808137894
aF0.13483117520809174
aF-3.8220767974853516
aF43.059326171875
aF4.23724365234375
aF-0.009230941534042358
aF0.026043713092803955
aF0.04788627475500107
aF-8.24395751953125
aF104.0233154296875
aF-0.08885478973388672
aF-0.01593199372291565
aF0.025290630757808685
aF0.09248371422290802
aF0.5998039245605469
aF-17.9046630859375
aF8.563342094421387
aF-0.0025298893451690674
aF0.026796795427799225
aF0.003288835287094116
aa(lp19
F-32.507423400878906
aF349.5572204589844
aF-7.9427714347839355
aF-0.31484562158584595
aF0.11710537225008011
aF0.150906503200531
aF-4.405462265014648
aF41.96795654296875
aF3.742644786834717
aF-0.01068618893623352
aF0.017404183745384216
aF0.05040840059518814
aF-9.564363479614258
aF101.58503723144531
aF0.9217419624328613
aF-0.014085054397583008
aF0.02173958718776703
aF0.10328463837504387
aF0.7534389495849609
aF-17.649124145507812
aF6.563547611236572
aF-0.007287323474884033
aF0.013068780303001404
aF-0.0024678371846675873
aa(lp20
F-34.460670471191406
aF363.9896240234375
aF-7.483959197998047
aF-0.31251370906829834
aF0.11660309880971909
aF0.15810926258563995
aF-5.136508941650391
aF42.3848876953125
aF2.2356224060058594
aF-0.005044728517532349
aF0.0027744323015213013
aF0.04051094502210617
aF-10.417703628540039
aF100.52825927734375
aF2.70198917388916
aF-0.010275721549987793
aF0.019340209662914276
aF0.10317608341574669
aF0.1446857452392578
aF-15.75848388671875
aF1.7692556381225586
aF0.0001862645149230957
aF-0.013791345059871674
aF-0.022154193371534348
aa(lp21
F-36.39884948730469
aF379.0992431640625
aF-6.297977447509766
aF-0.3144410252571106
aF0.12168280780315399
aF0.17328722774982452
aF-5.901157379150391
aF43.35443115234375
aF1.167689323425293
aF-0.0019721388816833496
aF0.003871239721775055
aF0.03845605254173279
aF-11.036426544189453
aF101.24661254882812
aF4.6950225830078125
aF-0.011370271444320679
aF0.02701006829738617
aF0.104420967400074
aF-0.7658882141113281
aF-14.537750244140625
aF-2.3596439361572266
aF0.0074259936809539795
aF-0.01926758885383606
aF-0.02750886231660843
aa(lp22
F-38.31235122680664
aF394.4689025878906
aF-4.619295120239258
aF-0.3182362914085388
aF0.15079790353775024
aF0.18522119522094727
aF-5.804927825927734
aF44.91168212890625
aF3.3234763145446777
aF-0.003390669822692871
aF0.033692531287670135
aF0.03431469202041626
aF-11.636735916137695
aF101.78341674804688
aF7.083615303039551
aF-0.01499834656715393
aF0.05903004854917526
aF0.0982762947678566
aF0.026880264282226562
aF-11.960052490234375
aF-0.4366626739501953
aF0.008217006921768188
aF0.008355014026165009
aF-0.02964691072702408
aa(lp23
F-39.920562744140625
aF407.9923400878906
aF-2.7947494983673096
aF-0.32045888900756836
aF0.16919542849063873
aF0.20126493275165558
aF-5.459892272949219
aF44.002716064453125
aF4.689209699630737
aF-0.00794517993927002
aF0.05259232968091965
aF0.043155670166015625
aF-11.818601608276367
aF100.403076171875
aF8.890666723251343
aF-0.016299456357955933
aF0.06949423998594284
aF0.10076683014631271
aF0.8988170623779297
aF-12.39764404296875
aF0.48775267601013184
aF0.00040909647941589355
aF0.035690419375896454
aF-0.014455489814281464
aa(lp24
F-41.585147857666016
aF422.8738098144531
aF-1.0323107242584229
aF-0.32221031188964844
aF0.18374760448932648
aF0.21223828196525574
aF-5.186298370361328
aF43.774566650390625
aF5.265666723251343
aF-0.007769286632537842
aF0.062064796686172485
aF0.03895105421543121
aF-12.260986328125
aF101.26907348632812
aF8.687270879745483
aF-0.014741331338882446
aF0.06991893798112869
aF0.09463996440172195
aF1.8883895874023438
aF-13.719940185546875
aF1.8440625667572021
aF-0.0007972419261932373
aF0.05421065539121628
aF-0.016737855970859528
aa(lp25
F-43.08317184448242
aF437.197021484375
aF1.4263306856155396
aF-0.31821149587631226
aF0.18498453497886658
aF0.21858429908752441
aF-4.770820617675781
aF42.728118896484375
aF6.045625805854797
aF2.47955322265625e-05
aF0.03418663144111633
aF0.03336310386657715
aF-12.585479736328125
aF101.45220947265625
aF8.891997456550598
aF-0.00574260950088501
aF0.06717296689748764
aF0.08375312387943268
aF3.0438385009765625
aF-15.9959716796875
aF3.1992541551589966
aF0.005792200565338135
aF0.0012002959847450256
aF-0.01702691614627838
aa(lp26
F-44.64087677001953
aF451.9468994140625
aF3.317456007003784
aF-0.30787163972854614
aF0.1708512306213379
aF0.22156110405921936
aF-4.720314025878906
aF43.954559326171875
aF6.112205505371094
aF0.012587249279022217
aF0.0016558021306991577
aF0.020296171307563782
aF-12.133453369140625
aF102.38967895507812
aF11.26022744178772
aF0.006973981857299805
aF0.05374585837125778
aF0.07065460085868835
aF2.6928253173828125
aF-14.480560302734375
aF0.9641835689544678
aF0.01820051670074463
aF-0.05043425410985947
aF-0.03006225824356079
aa(lp27
F-46.00434875488281
aF465.50323486328125
aF5.540789604187012
aF-0.31255993247032166
aF0.16483576595783234
aF0.2577033042907715
aF-4.419200897216797
aF42.629425048828125
aF6.573100328445435
aF0.009650379419326782
aF-0.01891183853149414
aF0.04546502232551575
aF-11.543678283691406
aF101.51361083984375
aF13.024748802185059
aF-4.622340202331543e-05
aF0.04823266714811325
aF0.09959404170513153
aF2.7052764892578125
aF-16.2547607421875
aF0.12145185470581055
aF0.01934698224067688
aF-0.08605634421110153
aF-0.008663997054100037
aa(lp28
F-47.22431564331055
aF479.3766174316406
aF8.747495651245117
aF-0.30251821875572205
aF0.17253313958644867
aF0.24989943206310272
aF-4.141143798828125
aF42.179595947265625
aF7.321164965629578
aF0.01569327712059021
aF-0.012451395392417908
aF0.03131513297557831
aF-10.82546615600586
aF100.27737426757812
aF15.045473098754883
aF0.01192280650138855
aF0.05085033178329468
aF0.0766122043132782
aF2.5431785583496094
aF-15.918182373046875
aF-0.40314316749572754
aF0.01946374773979187
aF-0.0757531225681305
aF-0.013981938362121582
aa(lp29
F-48.05391311645508
aF492.5356750488281
aF11.023421287536621
aF-0.3058251142501831
aF0.18344244360923767
aF0.2766340374946594
aF-3.413036346435547
aF40.588775634765625
aF7.705965280532837
aF0.002046525478363037
aF0.01259121298789978
aF0.055072933435440063
aF-9.741561889648438
aF98.0667724609375
aF15.642716407775879
aF0.012411177158355713
aF0.03264454007148743
aF0.09141284227371216
aF2.9154891967773438
aF-16.88922119140625
aF-0.23078584671020508
aF-0.008318126201629639
aF-0.007462114095687866
aF0.01873302459716797
aa(lp30
F-49.171409606933594
aF506.0870056152344
aF12.615283012390137
aF-0.2944992482662201
aF0.17531435191631317
aF0.29259565472602844
aF-3.1670608520507812
aF40.583770751953125
aF7.074493408203125
aF0.018060684204101562
aF0.010478585958480835
aF0.03489235043525696
aF-9.250846862792969
aF98.09466552734375
aF15.410032510757446
aF0.025959640741348267
aF0.0061189234256744385
aF0.09133072197437286
aF2.9167251586914062
aF-16.9271240234375
aF-1.2610456943511963
aF0.010161727666854858
aF0.014838248491287231
aF-0.021546021103858948
aa.