(lp0
(lp1
F0.09292030334472656
aF0.8959808349609375
aF-0.4333972930908203
aF-0.00819694995880127
aF0.0024736346676945686
aF-0.001676417887210846
aF-0.5106449127197266
aF0.8883209228515625
aF-2.0079517364501953
aF-0.021936416625976562
aF0.008729561552172527
aF-0.0051503367722034454
aF0.6964855194091797
aF0.9036407470703125
aF1.1411571502685547
aF0.0055425167083740234
aF-0.0037822922167833894
aF0.0017975009977817535
aa(lp2
F0.28216552734375
aF1.74090576171875
aF-0.11453056335449219
aF-0.0076514482498168945
aF0.0031871958635747433
aF-0.0004764869809150696
aF-0.06819534301757812
aF1.8564453125
aF-1.464040756225586
aF-0.0204622745513916
aF0.007542065344750881
aF-0.0034056920558214188
aF0.6325263977050781
aF1.6253662109375
aF1.2349796295166016
aF0.0051593780517578125
aF-0.0011676736176013947
aF0.0024527180939912796
aa(lp3
F0.6529521942138672
aF2.9178009033203125
aF0.2148113250732422
aF-0.007064938545227051
aF0.0038985060527920723
aF0.0005194582045078278
aF0.12624359130859375
aF3.2815475463867188
aF-1.1625595092773438
aF-0.019054055213928223
aF0.007397314067929983
aF-0.001975318416953087
aF1.1796607971191406
aF2.5540542602539062
aF1.5921821594238281
aF0.004924178123474121
aF0.00039969803765416145
aF0.0030142348259687424
aa(lp4
F1.1307926177978516
aF4.213249206542969
aF0.6377506256103516
aF-0.0065392255783081055
aF0.007150603458285332
aF0.0001768302172422409
aF0.8361759185791016
aF5.1651763916015625
aF-0.4279003143310547
aF-0.01772928237915039
aF0.007466897368431091
aF-0.0010555535554885864
aF1.4254093170166016
aF3.261322021484375
aF1.7034015655517578
aF0.00465083122253418
aF0.006834309548139572
aF0.0014092139899730682
aa(lp5
F1.2260551452636719
aF6.87939453125
aF0.5781517028808594
aF-0.0059316158294677734
aF0.0049294959753751755
aF-0.0007113683968782425
aF1.5655651092529297
aF8.714134216308594
aF0.30938148498535156
aF-0.016525626182556152
aF0.009831219911575317
aF-0.0021519195288419724
aF0.8865451812744141
aF5.044654846191406
aF0.8469219207763672
aF0.0046623945236206055
aF2.777203917503357e-05
aF0.0007291827350854874
aa(lp6
F0.10991287231445312
aF9.77569580078125
aF-0.2622509002685547
aF-0.005364060401916504
aF0.0018938928842544556
aF0.0009393598884344101
aF0.6233272552490234
aF12.921188354492188
aF-0.291473388671875
aF-0.01516103744506836
aF0.006361341569572687
aF0.0006726030260324478
aF-0.4035015106201172
aF6.6302032470703125
aF-0.23302841186523438
aF0.0044329166412353516
aF-0.002573555801063776
aF0.0012061167508363724
aa(lp7
F-2.069608688354492
aF12.421737670898438
aF-1.8736438751220703
aF-0.004814505577087402
aF-0.0036667315289378166
aF0.0027879271656274796
aF-0.763702392578125
aF17.209442138671875
aF-1.271017074584961
aF-0.013876080513000488
aF0.003674035891890526
aF0.003038618713617325
aF-3.3755149841308594
aF7.634033203125
aF-2.4762706756591797
aF0.004247069358825684
aF-0.011007498949766159
aF0.0025372356176376343
aa(lp8
F-8.053911209106445
aF21.485031127929688
aF-7.016357421875
aF-0.005756258964538574
aF-0.012800997821614146
aF0.010695990175008774
aF-6.581266403198242
aF29.303184509277344
aF-6.273578643798828
aF-0.014084935188293457
aF-0.0054434125777333975
aF0.010220488533377647
aF-9.526556015014648
aF13.666877746582031
aF-7.759136199951172
aF0.0025724172592163086
aF-0.020158583065494895
aF0.0111714918166399
aa(lp9
F-11.002311706542969
aF25.560028076171875
aF-9.789223670959473
aF-0.005348324775695801
aF-0.02719266526401043
aF0.01774519495666027
aF-10.661149978637695
aF36.74031066894531
aF-9.966166496276855
aF-0.012857913970947266
aF-0.024018519558012486
aF0.018894284963607788
aF-11.343473434448242
aF14.379745483398438
aF-9.61228084564209
aF0.002161264419555664
aF-0.030366810970008373
aF0.016596104949712753
aa(lp10
F-12.181455612182617
aF30.532943725585938
aF-11.073342323303223
aF-0.005388975143432617
aF-0.03519854601472616
aF0.020790379494428635
aF-13.59811019897461
aF44.8245849609375
aF-12.559170722961426
aF-0.012200117111206055
aF-0.03542301617562771
aF0.02330954000353813
aF-10.764801025390625
aF16.241302490234375
aF-9.58751392364502
aF0.0014221668243408203
aF-0.034974075853824615
aF0.018271218985319138
aa(lp11
F-8.957637786865234
aF28.129730224609375
aF-8.10981559753418
aF-0.004232525825500488
aF-0.034425664925947785
aF0.016380583867430687
aF-16.669696807861328
aF53.21966552734375
aF-15.02114486694336
aF-0.01177823543548584
aF-0.047019680961966515
aF0.026424242183566093
aF-1.2455787658691406
aF3.039794921875
aF-1.198486328125
aF0.0033131837844848633
aF-0.021831648889929056
aF0.0063369255512952805
aa(lp12
F-7.587213516235352
aF31.239151000976562
aF-6.579648971557617
aF-0.005291461944580078
aF-0.012446530163288116
aF0.008721120655536652
aF-19.47441864013672
aF61.100067138671875
aF-17.123967170715332
aF-0.01221776008605957
aF-0.04139454569667578
aF0.028326774016022682
aF4.299991607666016
aF1.37823486328125
aF3.9646692276000977
aF0.001634836196899414
aF0.016501485370099545
aF-0.010884532704949379
aa(lp13
F-6.696771860122681
aF34.283416748046875
aF-5.197289943695068
aF-0.005879521369934082
aF0.009399360045790672
aF0.00039298832416534424
aF-20.404794931411743
aF69.33230590820312
aF-17.49420976638794
aF-0.012715578079223633
aF-0.02791754901409149
aF0.022763168439269066
aF7.011251211166382
aF-0.765472412109375
aF7.099629878997803
aF0.0009565353393554688
aF0.046716269105672836
aF-0.021977191790938377
aa(lp14
F-5.529464960098267
aF37.19749450683594
aF-3.5812087059020996
aF-0.006145834922790527
aF0.03578714095056057
aF-0.008513923734426498
aF-20.129553079605103
aF77.99542236328125
aF-16.72870969772339
aF-0.013109564781188965
aF-0.007565808482468128
aF0.015122391283512115
aF9.07062315940857
aF-3.600433349609375
aF9.56629228591919
aF0.0008178949356079102
aF0.07914009038358927
aF-0.03215023875236511
aa(lp15
F-3.1931018829345703
aF38.9462890625
aF-0.8359842300415039
aF-0.006670713424682617
aF0.06510590761899948
aF-0.01862960308790207
aF-14.613609313964844
aF78.56132507324219
aF-10.943593978881836
aF-0.013132214546203613
aF0.03651235974393785
aF-0.0009988192468881607
aF8.227405548095703
aF-0.6687469482421875
aF9.271625518798828
aF-0.0002092123031616211
aF0.09369945549406111
aF-0.03626038692891598
aa(lp16
F-1.030794620513916
aF39.744659423828125
aF1.4855594635009766
aF-0.006314754486083984
aF0.08987973444163799
aF-0.02624993957579136
aF-10.43327784538269
aF83.51693725585938
aF-6.21942663192749
aF-0.013682007789611816
aF0.08915485069155693
aF-0.021231966093182564
aF8.371688604354858
aF-4.027618408203125
aF9.190545558929443
aF0.0010524988174438477
aF0.09060461819171906
aF-0.031267913058400154
aa(lp17
F0.799292802810669
aF53.467498779296875
aF4.931137561798096
aF0.010626673698425293
aF0.12127623148262501
aF-0.04048379324376583
aF-7.148804664611816
aF100.92997741699219
aF-0.7242298126220703
aF0.0029060840606689453
aF0.14890896901488304
aF-0.04615178145468235
aF8.747390270233154
aF6.0050201416015625
aF10.586504936218262
aF0.01834726333618164
aF0.09364349395036697
aF-0.03481580503284931
aa(lp18
F1.7415122985839844
aF53.617828369140625
aF6.566494941711426
aF0.026848793029785156
aF0.1226377971470356
aF-0.04524343088269234
aF-3.914459228515625
aF104.04942321777344
aF3.7327165603637695
aF0.01794910430908203
aF0.19357582181692123
aF-0.06262283399701118
aF7.397483825683594
aF3.1862335205078125
aF9.400273323059082
aF0.03574848175048828
aF0.05169977247714996
aF-0.02786402776837349
aa(lp19
F2.2009942531585693
aF53.02369689941406
aF7.987860202789307
aF0.046769142150878906
aF0.12514153867959976
aF-0.046334318816661835
aF-0.6450700759887695
aF105.30148315429688
aF8.348082542419434
aF0.03837859630584717
aF0.2267429195344448
aF-0.07628740556538105
aF5.047058582305908
aF0.74591064453125
aF7.62763786315918
aF0.055159687995910645
aF0.023540157824754715
aF-0.01638123206794262
aa(lp20
F2.4608168601989746
aF38.688812255859375
aF7.563553810119629
aF0.027331829071044922
aF0.22645600140094757
aF-0.04698564670979977
aF2.008784055709839
aF105.33537292480469
aF12.036613941192627
aF0.03611743450164795
aF0.36596561037003994
aF-0.09353041648864746
aF2.9128496646881104
aF-27.957748413085938
aF3.090493679046631
aF0.018546223640441895
aF0.0869463924318552
aF-0.00044087693095207214
aa(lp21
F2.1405510902404785
aF38.442138671875
aF7.4059553146362305
aF0.008782744407653809
aF0.3223910629749298
aF-0.058193009346723557
aF3.75555682182312
aF105.2940673828125
aF14.7198805809021
aF0.03287768363952637
aF0.4801797438412905
aF-0.11230191960930824
aF0.5255453586578369
aF-28.4097900390625
aF0.09203004837036133
aF-0.01531219482421875
aF0.16460238210856915
aF-0.00408409908413887
aa(lp22
F1.7837457656860352
aF37.394317626953125
aF6.791896820068359
aF-0.00814521312713623
aF0.28809888660907745
aF-0.05247401259839535
aF4.331777572631836
aF103.74951171875
aF15.975963592529297
aF0.036904096603393555
aF0.4497358985245228
aF-0.11013181507587433
aF-0.7642860412597656
aF-28.96087646484375
aF-2.392169952392578
aF-0.053194522857666016
aF0.12646187469363213
aF0.005183789879083633
aa(lp23
F2.09940767288208
aF35.186126708984375
aF6.913213729858398
aF-0.05152690410614014
aF0.284929096698761
aF-0.056468695402145386
aF5.138986349105835
aF100.77684020996094
aF17.46426820755005
aF-0.009094715118408203
aF0.5610149726271629
aF-0.12374917231500149
aF-0.9401710033416748
aF-30.404586791992188
aF-3.637840747833252
aF-0.09395909309387207
aF0.00884322077035904
aF0.010811781510710716
aa(lp24
F2.0639405250549316
aF33.170013427734375
aF6.8660125732421875
aF-0.1025700569152832
aF0.28279396891593933
aF-0.0418313592672348
aF5.020204544067383
aF84.99658203125
aF16.65475559234619
aF-0.08031904697418213
aF0.6416974812746048
aF-0.11364948563277721
aF-0.8923234939575195
aF-18.65655517578125
aF-2.9227304458618164
aF-0.12482106685638428
aF-0.07610954344272614
aF0.02998676709830761
aa(lp25
F3.677032470703125
aF43.315643310546875
aF10.151712417602539
aF-0.18120932579040527
aF0.46555349230766296
aF-0.0661170706152916
aF6.267297744750977
aF93.44732666015625
aF19.56118106842041
aF-0.17115402221679688
aF0.7926515936851501
aF-0.1310054548084736
aF1.0867671966552734
aF-6.8160400390625
aF0.742243766784668
aF-0.19126462936401367
aF0.13845539093017578
aF-0.0012286864221096039
aa(lp26
F3.321643829345703
aF44.503082275390625
aF9.64727783203125
aF-0.17068278789520264
aF0.40283042192459106
aF-0.05608150362968445
aF6.259635925292969
aF92.2562255859375
aF19.123685836791992
aF-0.22654664516448975
aF0.8387038558721542
aF-0.1334963571280241
aF0.3836517333984375
aF-3.25006103515625
aF0.1708698272705078
aF-0.11481893062591553
aF-0.03304301202297211
aF0.021333349868655205
aa(lp27
F4.559337615966797
aF41.2760009765625
aF9.896886825561523
aF-0.14569830894470215
aF0.35384225845336914
aF-0.06943709403276443
aF7.118725299835205
aF87.58377075195312
aF18.988088607788086
aF-0.2533491849899292
aF0.7690837383270264
aF-0.13610093295574188
aF1.9999499320983887
aF-5.031768798828125
aF0.8056850433349609
aF-0.0380474328994751
aF-0.061399221420288086
aF-0.0027732551097869873
aa(lp28
F4.699646949768066
aF27.310302734375
aF8.74749755859375
aF-0.09565329551696777
aF0.24151736497879028
aF-0.06732642650604248
aF8.826393604278564
aF82.31549072265625
aF20.90272331237793
aF-0.27559006214141846
aF0.7117778956890106
aF-0.1401388719677925
aF0.5729002952575684
aF-27.69488525390625
aF-3.4077281951904297
aF0.08428347110748291
aF-0.22874316573143005
aF0.00548601895570755
aa(lp29
F6.603737831115723
aF24.68731689453125
aF10.303535461425781
aF-0.07507634162902832
aF0.2072819471359253
aF-0.07685580849647522
aF11.079627990722656
aF79.54922485351562
aF22.635324478149414
aF-0.29347777366638184
aF0.7578869163990021
aF-0.15787815302610397
aF2.127847671508789
aF-30.174591064453125
aF-2.0282535552978516
aF0.1433250904083252
aF-0.3433230221271515
aF0.004166536033153534
aa(lp30
F5.632473945617676
aF27.314910888671875
aF10.45571517944336
aF-0.1561366319656372
aF0.3147263526916504
aF0.07627930492162704
aF10.6517915725708
aF79.71255493164062
aF22.530590057373047
aF-0.35795891284942627
aF0.7988809943199158
aF-0.003352932631969452
aF0.6131563186645508
aF-25.082733154296875
aF-1.6191596984863281
aF0.045685648918151855
aF-0.169428288936615
aF0.15591154247522354
aa.