(lp0
(lp1
F-2.2401561737060547
aF0.9002914428710938
aF0.4057273864746094
aF-0.009479880332946777
aF-0.0223664790391922
aF0.011202013120055199
aF-3.503042221069336
aF-0.41278076171875
aF0.5077533721923828
aF-0.023842811584472656
aF-0.04182638227939606
aF0.020814236253499985
aF-0.9772701263427734
aF2.2133636474609375
aF0.30370140075683594
aF0.0048830509185791016
aF-0.0029065757989883423
aF0.0015897899866104126
aa(lp2
F-2.5837783813476562
aF2.3316268920898438
aF0.3773956298828125
aF-0.008972525596618652
aF-0.026865601539611816
aF0.012655489146709442
aF-4.006809234619141
aF1.1475372314453125
aF0.49286842346191406
aF-0.02294015884399414
aF-0.0487452894449234
aF0.022887008264660835
aF-1.1607475280761719
aF3.515716552734375
aF0.26192283630371094
aF0.004995107650756836
aF-0.004985913634300232
aF0.002423970028758049
aa(lp3
F-0.8848896026611328
aF3.882537841796875
aF1.437978744506836
aF-0.006366133689880371
aF-0.02098695933818817
aF0.008926472626626492
aF-3.4681644439697266
aF3.8229293823242188
aF1.3025245666503906
aF-0.01920759677886963
aF-0.048927150666713715
aF0.02211573999375105
aF1.698385238647461
aF3.9421463012695312
aF1.5734329223632812
aF0.006475329399108887
aF0.006953231990337372
aF-0.004262794740498066
aa(lp4
F-0.24095726013183594
aF6.474090576171875
aF2.624652862548828
aF-0.00610804557800293
aF-0.019101932644844055
aF0.007516227662563324
aF-2.616649627685547
aF7.2680816650390625
aF3.06549072265625
aF-0.0183335542678833
aF-0.047262705862522125
aF0.02125372178852558
aF2.134735107421875
aF5.6800994873046875
aF2.1838150024414062
aF0.006117463111877441
aF0.009058840572834015
aF-0.006221266463398933
aa(lp5
F0.7201938629150391
aF9.910301208496094
aF4.209482192993164
aF-0.005826354026794434
aF-0.010034307837486267
aF0.004238755442202091
aF-2.0783348083496094
aF12.090400695800781
aF4.816036224365234
aF-0.017429709434509277
aF-0.04194094240665436
aF0.018968199379742146
aF3.5187225341796875
aF7.730201721191406
aF3.6029281616210938
aF0.00577700138092041
aF0.021872326731681824
aF-0.010490688495337963
aa(lp6
F-0.4834728240966797
aF20.170448303222656
aF5.220613479614258
aF-0.006190061569213867
aF-0.010909359902143478
aF0.003987593110650778
aF-3.013406753540039
aF24.494308471679688
aF6.476940155029297
aF-0.0172041654586792
aF-0.04388999566435814
aF0.019194225315004587
aF2.0464611053466797
aF15.846588134765625
aF3.9642868041992188
aF0.004824042320251465
aF0.022071275860071182
aF-0.011219039093703032
aa(lp7
F-2.996196746826172
aF24.337692260742188
aF3.1563072204589844
aF-0.005107760429382324
aF-0.010098401457071304
aF0.004812428138393443
aF-3.6175155639648438
aF31.422279357910156
aF6.139181137084961
aF-0.013416886329650879
aF-0.034532103687524796
aF0.015176554552454036
aF-2.3748779296875
aF17.25310516357422
aF0.1734333038330078
aF0.0032013654708862305
aF0.014335300773382187
aF-0.00555169827566715
aa(lp8
F-6.434541702270508
aF27.81109619140625
aF0.08256912231445312
aF-0.00396418571472168
aF-0.01642288640141487
aF0.007926895515993237
aF-6.2727203369140625
aF39.00120544433594
aF4.492877960205078
aF-0.01191401481628418
aF-0.03599734976887703
aF0.015693081775680184
aF-6.596363067626953
aF16.620986938476562
aF-4.327739715576172
aF0.00398564338684082
aF0.003151576966047287
aF0.00016070925630629063
aa(lp9
F-12.931096076965332
aF35.384033203125
aF-5.991437911987305
aF-0.002732515335083008
aF-0.029481451958417892
aF0.018768842797726393
aF-13.360724449157715
aF57.546714782714844
aF0.10810661315917969
aF-0.010964155197143555
aF-0.046505846083164215
aF0.025307578966021538
aF-12.50146770477295
aF13.221351623535156
aF-12.090982437133789
aF0.005499124526977539
aF-0.01245705783367157
aF0.012230106629431248
aa(lp10
F-14.213614463806152
aF39.50627136230469
aF-7.091939926147461
aF-0.0028029680252075195
aF-0.035621341317892075
aF0.02011766343639465
aF-16.946240425109863
aF67.04601287841797
aF-2.390737533569336
aF-0.009853720664978027
aF-0.0491664856672287
aF0.026367745362222195
aF-11.480988502502441
aF11.966529846191406
aF-11.793142318725586
aF0.004247784614562988
aF-0.02207619696855545
aF0.013867581510567106
aa(lp11
F-14.137962818145752
aF43.785736083984375
aF-6.867347717285156
aF-0.0034019947052001953
aF-0.02355359122157097
aF0.017074933042749763
aF-20.16972589492798
aF76.31285095214844
aF-4.999122619628906
aF-0.009207963943481445
aF-0.04044900834560394
aF0.025251787155866623
aF-8.106199741363525
aF11.258621215820312
aF-8.735572814941406
aF0.0024039745330810547
aF-0.006658174097537994
aF0.008898078929632902
aa(lp12
F-8.895580768585205
aF36.55860900878906
aF-3.3600120544433594
aF-0.003470778465270996
aF0.002061225473880768
aF0.002002490684390068
aF-22.97649908065796
aF84.19502258300781
aF-7.461387634277344
aF-0.008608579635620117
aF-0.03441031277179718
aF0.023071314208209515
aF5.185337543487549
aF-11.077804565429688
aF0.741363525390625
aF0.001667022705078125
aF0.038532763719558716
aF-0.01906633283942938
aa(lp13
F-7.277277231216431
aF38.059234619140625
aF-1.9731636047363281
aF-0.0035210847854614258
aF0.02130228653550148
aF-0.008229430764913559
aF-23.740044832229614
aF84.93479919433594
aF-9.584514617919922
aF-0.007184743881225586
aF-0.01695483922958374
aF0.014150721486657858
aF9.185490369796753
aF-8.816329956054688
aF5.638187408447266
aF0.00014257431030273438
aF0.0595594123005867
aF-0.030609583016484976
aa(lp14
F-5.542585134506226
aF38.943023681640625
aF-0.9066715240478516
aF-0.004410862922668457
aF0.051509007811546326
aF-0.016625144984573126
aF-22.716114282608032
aF90.91818237304688
aF-9.062101364135742
aF-0.008511066436767578
aF0.021158400923013687
aF0.003814214032900054
aF11.630944013595581
aF-13.032135009765625
aF7.248758316040039
aF-0.00031065940856933594
aF0.08185961470007896
aF-0.037064504002046306
aa(lp15
F-3.672581911087036
aF39.630279541015625
aF0.43067169189453125
aF-0.00515902042388916
aF0.08061765134334564
aF-0.024430938065052032
aF-20.214539289474487
aF96.01420593261719
aF-7.113285064697266
aF-0.009803414344787598
aF0.06263022497296333
aF-0.009286519372835755
aF12.869375467300415
aF-16.753646850585938
aF7.974628448486328
aF-0.0005146265029907227
aF0.09860507771372795
aF-0.03957535675726831
aa(lp16
F-2.3836251497268677
aF39.678680419921875
aF1.1231269836425781
aF-0.008679986000061035
aF0.11435860022902489
aF-0.023085960187017918
aF-13.19257390499115
aF89.22944641113281
aF-2.469949722290039
aF-0.013132214546203613
aF0.12688521295785904
aF-0.027704081498086452
aF8.425323605537415
aF-9.872085571289062
aF4.716203689575195
aF-0.004227757453918457
aF0.10183198750019073
aF-0.018467838875949383
aa(lp17
F-0.041886329650878906
aF38.63362121582031
aF2.6414318084716797
aF-0.013475537300109863
aF0.12604093551635742
aF-0.027568927500396967
aF-8.544386148452759
aF90.0455322265625
aF0.6712703704833984
aF-0.019183635711669922
aF0.18282067775726318
aF-0.04387237690389156
aF8.460613489151001
aF-12.778289794921875
aF4.611593246459961
aF-0.007767438888549805
aF0.06926119327545166
aF-0.01126547809690237
aa(lp18
F1.9034605026245117
aF37.8985595703125
aF3.9548587799072266
aF-0.01608741283416748
aF0.13882802426815033
aF-0.036141952499747276
aF-4.173115968704224
aF90.12702941894531
aF3.708921432495117
aF-0.022488832473754883
aF0.22501184046268463
aF-0.0625034049153328
aF7.980036973953247
aF-14.329910278320312
aF4.200796127319336
aF-0.009685993194580078
aF0.05264420807361603
aF-0.009780500084161758
aa(lp19
F2.9963449239730835
aF36.990631103515625
aF4.308225631713867
aF-0.03197288513183594
aF0.19715774059295654
aF-0.03843107167631388
aF-1.3006482124328613
aF89.66146850585938
aF5.1982879638671875
aF-0.041634321212768555
aF0.3219817280769348
aF-0.0681376438587904
aF7.293338060379028
aF-15.680206298828125
aF3.418163299560547
aF-0.02231144905090332
aF0.07233375310897827
aF-0.008724499493837357
aa(lp20
F3.297384023666382
aF36.10711669921875
aF4.440944671630859
aF-0.06635463237762451
aF0.321575403213501
aF-0.035434968769550323
aF2.0302751064300537
aF88.09341430664062
aF7.085378646850586
aF-0.08201718330383301
aF0.4830937944352627
aF-0.07107791490852833
aF4.56449294090271
aF-15.879180908203125
aF1.7965106964111328
aF-0.050692081451416016
aF0.16005701199173927
aF0.00020797736942768097
aa(lp21
F5.084320783615112
aF46.982513427734375
aF6.377267837524414
aF-0.04567921161651611
aF0.3276296555995941
aF-0.06334057822823524
aF6.453789949417114
aF98.16651916503906
aF10.992860794067383
aF-0.06375718116760254
aF0.5011324882507324
aF-0.10921883815899491
aF3.7148516178131104
aF-4.2014923095703125
aF1.7616748809814453
aF-0.027601242065429688
aF0.1541268229484558
aF-0.017462318297475576
aa(lp22
F6.940084457397461
aF43.950225830078125
aF7.959098815917969
aF-0.08537566661834717
aF0.46988803148269653
aF-0.10296973213553429
aF9.312018156051636
aF93.98141479492188
aF12.726715087890625
aF-0.12185096740722656
aF0.7112521082162857
aF-0.14667643792927265
aF4.568150758743286
aF-6.080963134765625
aF3.1914825439453125
aF-0.04890036582946777
aF0.22852395474910736
aF-0.05926302634179592
aa(lp23
F5.891463756561279
aF42.63226318359375
aF6.464296340942383
aF-0.0498807430267334
aF0.32202839851379395
aF-0.0886094681918621
aF10.3053640127182
aF91.0469970703125
aF12.42654800415039
aF-0.12321794033050537
aF0.6907635927200317
aF-0.13660142291337252
aF1.477563500404358
aF-5.782470703125
aF0.502044677734375
aF0.023456454277038574
aF-0.04670679569244385
aF-0.040617513470351696
aa(lp24
F3.342818260192871
aF28.1475830078125
aF2.989480972290039
aF-0.026489853858947754
aF0.18519526720046997
aF-0.034011729061603546
aF9.838494539260864
aF87.68048095703125
aF11.340909957885742
aF-0.07677149772644043
aF0.560286819934845
aF-0.11566163972020149
aF-3.152858018875122
aF-31.38531494140625
aF-5.361948013305664
aF0.023791790008544922
aF-0.18989628553390503
aF0.0476381815969944
aa(lp25
F2.9087400436401367
aF27.918548583984375
aF2.9714183807373047
aF-0.02581048011779785
aF0.1560516357421875
aF-0.03899276256561279
aF10.31729769706726
aF84.00140380859375
aF11.743274688720703
aF-0.13157403469085693
aF0.7284757196903229
aF-0.14952724799513817
aF-4.499817609786987
aF-28.164306640625
aF-5.800437927246094
aF0.07995307445526123
aF-0.4163724482059479
aF0.07154172286391258
aa(lp26
F3.956549644470215
aF23.587860107421875
aF4.174251556396484
aF-0.032961487770080566
aF0.20533132553100586
aF-0.07641227543354034
aF11.265568733215332
aF77.64422607421875
aF12.292573928833008
aF-0.12420654296875
aF0.698937177658081
aF-0.17458262667059898
aF-3.3524694442749023
aF-30.468505859375
aF-3.944070816040039
aF0.05828356742858887
aF-0.28827452659606934
aF0.021758075803518295
aa(lp27
F2.7529478073120117
aF25.042724609375
aF3.446117401123047
aF-0.09369826316833496
aF0.3712412714958191
aF-0.12200440466403961
aF9.294058322906494
aF76.6160888671875
aF10.34608268737793
aF-0.10411512851715088
aF0.6099526882171631
aF-0.20223107561469078
aF-3.7881627082824707
aF-26.5306396484375
aF-3.453847885131836
aF-0.08328139781951904
aF0.1325298547744751
aF-0.04177773371338844
aa(lp28
F0.6106081008911133
aF28.150421142578125
aF0.07104110717773438
aF0.11543726921081543
aF-0.05395907163619995
aF-0.050835222005844116
aF5.843585014343262
aF65.1693115234375
aF5.437047958374023
aF0.02954244613647461
aF0.3468869924545288
aF-0.13702189177274704
aF-4.622368812561035
aF-8.86846923828125
aF-5.294965744018555
aF0.20133209228515625
aF-0.4548051357269287
aF0.03535144776105881
aa(lp29
F0.5317964553833008
aF28.7685546875
aF0.031352996826171875
aF0.1664278507232666
aF-0.0689544677734375
aF-0.06348708271980286
aF4.857280731201172
aF62.462554931640625
aF4.364828109741211
aF0.12759697437286377
aF0.16009467840194702
aF-0.13509997725486755
aF-3.7936878204345703
aF-4.925445556640625
aF-4.302122116088867
aF0.20525872707366943
aF-0.298003613948822
aF0.00812581181526184
aa(lp30
F1.949030876159668
aF27.5452880859375
aF-0.10013580322265625
aF0.2414301633834839
aF-0.2419658899307251
aF-0.0055539608001708984
aF5.351625442504883
aF61.52911376953125
aF3.7816505432128906
aF0.1871957778930664
aF0.04595839977264404
aF-0.11917556822299957
aF-1.4535636901855469
aF-6.43853759765625
aF-3.981922149658203
aF0.29566454887390137
aF-0.5298901796340942
aF0.10806764662265778
aa.