(lp0
(lp1
F0.5500946044921875
aF-0.3744354248046875
aF-1.2453289031982422
aF0.004214823246002197
aF-0.007147148251533508
aF0.0011148080229759216
aF2.02047061920166
aF-7.5434417724609375
aF-2.5401134490966797
aF0.011750906705856323
aF-0.016008689999580383
aF0.0032188519835472107
aF-0.9202814102172852
aF6.7945709228515625
aF0.04945564270019531
aF-0.0033212602138519287
aF0.0017143934965133667
aF-0.0009892359375953674
aF-15.198763847351074
aF142.8726043701172
aF26.53078269958496
aF-0.427852988243103
aF0.22809435427188873
aF0.06881710141897202
aa(lp2
F0.37108802795410156
aF1.4219207763671875
aF-1.3398494720458984
aF0.004217296838760376
aF-0.00892116129398346
aF0.0016542226076126099
aF1.6341657638549805
aF-4.0712738037109375
aF-2.8025455474853516
aF0.011137336492538452
aF-0.016984954476356506
aF0.0019174888730049133
aF-0.8919897079467773
aF6.9151153564453125
aF0.12284660339355469
aF-0.0027027428150177
aF-0.0008573681116104126
aF0.0013909563422203064
aF-15.129277229309082
aF143.99855041503906
aF26.082326889038086
aF-0.4264545142650604
aF0.22469115257263184
aF0.06897401809692383
aa(lp3
F0.1746845245361328
aF3.9273681640625
aF-1.4589385986328125
aF0.0037810206413269043
aF-0.010316848754882812
aF0.0038586705923080444
aF1.2524175643920898
aF0.2328033447265625
aF-2.902618408203125
aF0.010277092456817627
aF-0.019751906394958496
aF0.004928208887577057
aF-0.9030485153198242
aF7.6219329833984375
aF-0.0152587890625
aF-0.0027150511741638184
aF-0.0008817911148071289
aF0.002789132297039032
aF-15.145648002624512
aF146.35931396484375
aF25.523216247558594
aF-0.4253418743610382
aF0.22084279358386993
aF0.07075922936201096
aa(lp4
F-0.012683868408203125
aF6.8626861572265625
aF-1.5617427825927734
aF0.003572314977645874
aF-0.012369439005851746
aF0.0034756436944007874
aF0.837306022644043
aF5.232208251953125
aF-3.137451171875
aF0.009422481060028076
aF-0.022611171007156372
aF0.006761319935321808
aF-0.8626737594604492
aF8.4931640625
aF0.013965606689453125
aF-0.002277851104736328
aF-0.002127707004547119
aF0.00018996745347976685
aF-15.211447715759277
aF149.73529052734375
aF24.969039916992188
aF-0.42428067326545715
aF0.215724915266037
aF0.0722927451133728
aa(lp5
F-0.18578147888183594
aF9.818313598632812
aF-1.555593490600586
aF0.002904653549194336
aF-0.013124153017997742
aF0.00412297248840332
aF0.43379974365234375
aF10.56982421875
aF-3.249378204345703
aF0.008517950773239136
aF-0.023674502968788147
aF0.005394697189331055
aF-0.8053627014160156
aF9.066802978515625
aF0.13819122314453125
aF-0.002708643674850464
aF-0.0025738030672073364
aF0.002851247787475586
aF-15.315058708190918
aF153.81686401367188
aF24.5267333984375
aF-0.4235498607158661
aF0.2115669995546341
aF0.07309699058532715
aa(lp6
F-0.3494434356689453
aF12.683120727539062
aF-1.661062240600586
aF0.0018349885940551758
aF-0.009615793824195862
aF0.0005298182368278503
aF0.0052738189697265625
aF16.465805053710938
aF-3.5600223541259766
aF0.0071649253368377686
aF-0.022385314106941223
aF0.003969252109527588
aF-0.7041606903076172
aF8.900436401367188
aF0.2378978729248047
aF-0.003494948148727417
aF0.0031537264585494995
aF-0.002909615635871887
aF-15.495091438293457
aF159.0424346923828
aF23.862154006958008
aF-0.42350688576698303
aF0.21122699975967407
aF0.0712890475988388
aa(lp7
F-0.44427013397216797
aF14.323104858398438
aF-1.5455455780029297
aF0.0004623532295227051
aF-0.003872811794281006
aF-0.0031901374459266663
aF-0.3353853225708008
aF21.626449584960938
aF-3.5586605072021484
aF0.005304574966430664
aF-0.019307538866996765
aF0.002202048897743225
aF-0.5531549453735352
aF7.0197601318359375
aF0.46756935119628906
aF-0.004379868507385254
aF0.011561915278434753
aF-0.008582323789596558
aF-15.655717849731445
aF164.0583953857422
aF23.423494338989258
aF-0.42381832003593445
aF0.21185210347175598
aF0.06910260766744614
aa(lp8
F-0.5120553970336914
aF16.673019409179688
aF-1.5972061157226562
aF-0.0007810592651367188
aF0.002018555998802185
aF-0.006593756377696991
aF-0.6283502578735352
aF27.617279052734375
aF-3.601255416870117
aF0.0035220682621002197
aF-0.014508798718452454
aF-0.002313867211341858
aF-0.39576053619384766
aF5.728759765625
aF0.4068431854248047
aF-0.005084186792373657
aF0.018545910716056824
aF-0.010873645544052124
aF-15.82711410522461
aF170.48988342285156
aF22.929527282714844
aF-0.4243309199810028
aF0.21358555555343628
aF0.06650323420763016
aa(lp9
F-0.5643377304077148
aF18.730422973632812
aF-1.5365638732910156
aF-0.0014888644218444824
aF0.00395675003528595
aF-0.006907902657985687
aF-0.9301519393920898
aF33.77430725097656
aF-3.7567367553710938
aF0.0014587640762329102
aF-0.009507402777671814
aF-0.004592873156070709
aF-0.19852352142333984
aF3.6865386962890625
aF0.6836090087890625
aF-0.004436492919921875
aF0.017420902848243713
aF-0.009222932159900665
aF-16.059429168701172
aF177.77285766601562
aF22.325590133666992
aF-0.4249957501888275
aF0.21518374979496002
aF0.06438114494085312
aa(lp10
F-0.6597614288330078
aF21.456710815429688
aF-1.6831817626953125
aF-0.0022578835487365723
aF0.0044375211000442505
aF-0.004053860902786255
aF-1.1698312759399414
aF39.155792236328125
aF-3.7829036712646484
aF-0.0007343292236328125
aF-0.004553169012069702
aF-0.005710482597351074
aF-0.14969158172607422
aF3.75762939453125
aF0.41654014587402344
aF-0.003781437873840332
aF0.013428211212158203
aF-0.0023972392082214355
aF-16.315479278564453
aF185.51510620117188
aF21.740312576293945
aF-0.426076203584671
aF0.21628962457180023
aF0.06504874676465988
aa(lp11
F-0.7733554840087891
aF23.379058837890625
aF-1.7418804168701172
aF-0.003067910671234131
aF0.007150560617446899
aF-0.0031064897775650024
aF-1.389021873474121
aF44.13365173339844
aF-3.781393051147461
aF-0.003118157386779785
aF0.005011200904846191
aF-0.008896000683307648
aF-0.15768909454345703
aF2.6244659423828125
aF0.29763221740722656
aF-0.0030176639556884766
aF0.009289920330047607
aF0.002683021128177643
aF-16.6004695892334
aF193.8689422607422
aF21.187646865844727
aF-0.42739883065223694
aF0.22073611617088318
aF0.06339674443006516
aa(lp12
F-0.8042392730712891
aF24.851913452148438
aF-1.51483154296875
aF-0.003851085901260376
aF0.010711655020713806
aF-0.0021731778979301453
aF-1.548609733581543
aF48.80790710449219
aF-3.715974807739258
aF-0.005296975374221802
aF0.014328405261039734
aF-0.010889023542404175
aF-0.059868812561035156
aF0.8959197998046875
aF0.6863117218017578
aF-0.00240519642829895
aF0.007094904780387878
aF0.006542667746543884
aF-16.86366844177246
aF202.62477111816406
aF20.810758590698242
aF-0.4288468360900879
aF0.22589540481567383
aF0.062207967042922974
aa(lp13
F-0.8621139526367188
aF26.15167236328125
aF-1.2848739624023438
aF-0.004080742597579956
aF0.013486534357070923
aF-0.0028226785361766815
aF-1.6825017929077148
aF52.62434387207031
aF-3.4067153930664062
aF-0.006650060415267944
aF0.018549159169197083
aF-0.009062979370355606
aF-0.041726112365722656
aF-0.3209991455078125
aF0.8369674682617188
aF-0.0015114247798919678
aF0.008423909544944763
aF0.003417622298002243
aF-17.177593231201172
aF211.66677856445312
aF20.4554386138916
aF-0.430156946182251
aF0.22977615892887115
aF0.0622260682284832
aa(lp14
F-0.9114551544189453
aF26.9439697265625
aF-0.9589176177978516
aF-0.003427445888519287
aF0.012779459357261658
aF-0.0023420117795467377
aF-1.8562068939208984
aF56.7545166015625
aF-3.194765090942383
aF-0.007007956504821777
aF0.021663472056388855
aF-0.008047875016927719
aF0.03329658508300781
aF-2.8665771484375
aF1.2769298553466797
aF0.00015306472778320312
aF0.0038954466581344604
aF0.0033638514578342438
aF-17.511924743652344
aF220.8129119873047
aF20.228729248046875
aF-0.4308262765407562
aF0.23351557552814484
aF0.06105473265051842
aa(lp15
F-1.0163459777832031
aF27.486480712890625
aF-0.8234939575195312
aF-0.0025490224361419678
aF0.01276862621307373
aF-0.0028415732085704803
aF-2.0529003143310547
aF59.621368408203125
aF-2.942262649536133
aF-0.007064938545227051
aF0.02507847547531128
aF-0.007136840373277664
aF0.020208358764648438
aF-4.648406982421875
aF1.2952747344970703
aF0.0019668936729431152
aF0.00045877695083618164
aF0.0014536939561367035
aF-17.880014419555664
aF230.1112518310547
aF19.98726463317871
aF-0.43139585852622986
aF0.23866403102874756
aF0.05936639383435249
aa(lp16
F-1.1428909301757812
aF27.74395751953125
aF-0.7833747863769531
aF-0.00101393461227417
aF0.01566237211227417
aF-0.00779307633638382
aF-2.2610549926757812
aF61.63787841796875
aF-2.6535263061523438
aF-0.006175130605697632
aF0.030254781246185303
aF-0.009948153048753738
aF-0.02472686767578125
aF-6.14996337890625
aF1.0867767333984375
aF0.004147261381149292
aF0.0010699629783630371
aF-0.005637999624013901
aF-18.320484161376953
aF239.41073608398438
aF19.67206382751465
aF-0.43117088079452515
aF0.24543853104114532
aF0.05443299189209938
aa(lp17
F-1.3070087432861328
aF27.816757202148438
aF-0.8254547119140625
aF-0.00016936659812927246
aF0.01853211224079132
aF-0.009901661425828934
aF-2.5034542083740234
aF63.11456298828125
aF-2.337038040161133
aF-0.0049194395542144775
aF0.035758063197135925
aF-0.013895675539970398
aF-0.11056327819824219
aF-7.481048583984375
aF0.6861286163330078
aF0.004580706357955933
aF0.0013061612844467163
aF-0.0059076473116874695
aF-18.818933486938477
aF248.62966918945312
aF19.403274536132812
aF-0.4309956431388855
aF0.25204768776893616
aF0.051153071224689484
aa(lp18
F-1.4136276245117188
aF27.754837036132812
aF-0.7067699432373047
aF0.0014525353908538818
aF0.019162476062774658
aF-0.012538313865661621
aF-2.6931724548339844
aF63.99714660644531
aF-1.9071521759033203
aF-0.002544492483139038
aF0.03709039092063904
aF-0.016568664461374283
aF-0.13408279418945312
aF-8.487472534179688
aF0.49361228942871094
aF0.005449563264846802
aF0.0012345612049102783
aF-0.00850796326994896
aF-19.293642044067383
aF257.8660888671875
aF19.280494689941406
aF-0.429943323135376
aF0.2578265070915222
aF0.04682807996869087
aa(lp19
F-1.4474716186523438
aF27.77203369140625
aF-0.2765064239501953
aF0.0031747519969940186
aF0.018142715096473694
aF-0.013191435486078262
aF-2.904287338256836
aF64.55799865722656
aF-1.415201187133789
aF0.0008507072925567627
aF0.03768584132194519
aF-0.020966410636901855
aF0.009344100952148438
aF-9.013931274414062
aF0.8621883392333984
aF0.005498796701431274
aF-0.0014004111289978027
aF-0.005416460335254669
aF-19.767955780029297
aF267.1827697753906
aF19.395557403564453
aF-0.42799612879753113
aF0.263581246137619
aF0.04124155640602112
aa(lp20
F-1.4525394439697266
aF27.9620361328125
aF0.04347991943359375
aF0.005233705043792725
aF0.015792638063430786
aF-0.014622848480939865
aF-3.0938796997070312
aF64.9249267578125
aF-1.0086841583251953
aF0.004395008087158203
aF0.03806416690349579
aF-0.02569584548473358
aF0.18880081176757812
aF-9.0008544921875
aF1.0956439971923828
aF0.006072402000427246
aF-0.006478890776634216
aF-0.0035498514771461487
aF-20.271472930908203
aF276.5917053222656
aF19.446754455566406
aF-0.4257619380950928
aF0.26784032583236694
aF0.03653022274374962
aa(lp21
F-1.5105514526367188
aF27.822906494140625
aF0.08231925964355469
aF0.005801081657409668
aF0.0142689049243927
aF-0.012879863381385803
aF-3.292268753051758
aF64.87608337402344
aF-0.8659152984619141
aF0.006684035062789917
aF0.03857983648777008
aF-0.02710651606321335
aF0.2711658477783203
aF-9.230270385742188
aF1.0305538177490234
aF0.004918128252029419
aF-0.01004202663898468
aF0.001346789300441742
aF-20.8041934967041
aF285.6889953613281
aF19.36281394958496
aF-0.4241422414779663
aF0.2720954120159149
aF0.03394821658730507
aa(lp22
F-1.633697509765625
aF27.362701416015625
aF-0.17550086975097656
aF0.006564915180206299
aF0.016051560640335083
aF-0.014696436002850533
aF-3.521638870239258
aF64.43421936035156
aF-0.7672080993652344
aF0.00996464490890503
aF0.04096877574920654
aF-0.03282127343118191
aF0.2542438507080078
aF-9.708816528320312
aF0.41620635986328125
aF0.0031651854515075684
aF-0.008865654468536377
aF0.0034284014254808426
aF-21.401653289794922
aF294.54547119140625
aF19.220056533813477
aF-0.42143121361732483
aF0.2796328067779541
aF0.026545120403170586
aa(lp23
F-1.7582931518554688
aF27.0361328125
aF-0.1697711944580078
aF0.005557149648666382
aF0.016881555318832397
aF-0.010699737817049026
aF-3.7092819213867188
aF64.21710205078125
aF-0.39508056640625
aF0.010966092348098755
aF0.039283350110054016
aF-0.02860250696539879
aF0.19269561767578125
aF-10.14483642578125
aF0.055538177490234375
aF0.0001482069492340088
aF-0.005520239472389221
aF0.0072030313313007355
aF-22.029766082763672
aF303.6278381347656
aF19.2769832611084
aF-0.4202047884464264
aF0.28472188115119934
aF0.025830484926700592
aa(lp24
F-1.8349475860595703
aF26.882598876953125
aF-0.010904312133789062
aF0.004430323839187622
aF0.021722465753555298
aF-0.009882209822535515
aF-3.8202075958251953
aF63.941925048828125
aF-0.051364898681640625
aF0.011283725500106812
aF0.04177019000053406
aF-0.02708706445991993
aF0.1503124237060547
aF-10.176727294921875
aF0.0295562744140625
aF-0.0024230778217315674
aF0.001674741506576538
aF0.0073226448148489
aF-22.639141082763672
aF312.57159423828125
aF19.351909637451172
aF-0.4197119176387787
aF0.2938178777694702
aF0.024066006764769554
aa(lp25
F-1.8024234771728516
aF26.875457763671875
aF0.5203495025634766
aF-0.00020778179168701172
aF0.02872362732887268
aF-0.0010657962411642075
aF-3.9104347229003906
aF63.554840087890625
aF0.4599113464355469
aF0.008304327726364136
aF0.050529927015304565
aF-0.021348755806684494
aF0.3055877685546875
aF-9.803924560546875
aF0.5807876586914062
aF-0.00871989130973816
aF0.006917327642440796
aF0.01921716332435608
aF-23.204076766967773
aF321.4209289550781
aF19.740406036376953
aF-0.42163899540901184
aF0.3083564341068268
aF0.025479324162006378
aa(lp26
F-1.763753890991211
aF25.706085205078125
aF0.8436737060546875
aF-0.0022784173488616943
aF0.026276439428329468
aF0.006729487329721451
aF-4.025564193725586
aF62.151153564453125
aF0.7250995635986328
aF0.005512923002243042
aF0.04741707444190979
aF-0.008681584149599075
aF0.49805641174316406
aF-10.738983154296875
aF0.9622478485107422
aF-0.01006975769996643
aF0.0051358044147491455
aF0.022140558809041977
aF-23.793519973754883
aF329.33392333984375
aF20.120656967163086
aF-0.4224832057952881
aF0.3109983205795288
aF0.03255997225642204
aa(lp27
F-1.70635986328125
aF24.959808349609375
aF1.1084251403808594
aF-0.0031857192516326904
aF0.02126365900039673
aF0.014913121238350868
aF-4.074028015136719
aF60.939697265625
aF1.013580322265625
aF0.0028643012046813965
aF0.0472412109375
aF0.002448905259370804
aF0.6613082885742188
aF-11.02008056640625
aF1.2032699584960938
aF-0.009235739707946777
aF-0.004713892936706543
aF0.027377337217330933
aF-24.345500946044922
aF337.5314025878906
aF20.46033477783203
aF-0.4228976368904114
aF0.31508153676986694
aF0.03897912800312042
aa(lp28
F-1.7199325561523438
aF24.82568359375
aF1.4479808807373047
aF-0.0014973282814025879
aF0.01234862208366394
aF0.017586782574653625
aF-4.119815826416016
aF60.5576171875
aF1.8255729675292969
aF0.0010059177875518799
aF0.048609644174575806
aF0.009117890149354935
aF0.6799507141113281
aF-10.90625
aF1.0703887939453125
aF-0.004000574350357056
aF-0.023912400007247925
aF0.026055674999952316
aF-24.924009323120117
aF346.2466125488281
aF21.188386917114258
aF-0.42313632369041443
aF0.3207050561904907
aF0.043066106736660004
aa(lp29
F-1.6512832641601562
aF24.20709228515625
aF1.7535591125488281
aF-0.0006371438503265381
aF0.015802323818206787
aF0.014540817588567734
aF-4.043149948120117
aF58.99554443359375
aF2.6541595458984375
aF-0.001689136028289795
aF0.047167837619781494
aF0.02055566944181919
aF0.7405834197998047
aF-10.58135986328125
aF0.8529586791992188
aF0.00041484832763671875
aF-0.01556318998336792
aF0.008525965735316277
aF-25.44480323791504
aF353.541015625
aF21.874216079711914
aF-0.4231203496456146
aF0.3268006443977356
aF0.04710078984498978
aa(lp30
F-1.9253425598144531
aF24.29730224609375
aF2.1702022552490234
aF-0.0022513270378112793
aF0.024466514587402344
aF0.013147559016942978
aF-4.241077423095703
aF58.20086669921875
aF3.3535537719726562
aF-0.004944175481796265
aF0.054826170206069946
aF0.026296202093362808
aF0.3903923034667969
aF-9.60626220703125
aF0.9868507385253906
aF0.00044152140617370605
aF-0.005893141031265259
aF-1.084059476852417e-06
aF-26.270843505859375
aF361.8287048339844
aF22.630537033081055
aF-0.42514896392822266
aF0.3395480513572693
aF0.0521266870200634
aa(lp31
F-2.0186920166015625
aF23.491302490234375
aF2.1383228302001953
aF-0.004159748554229736
aF0.031543195247650146
aF0.014859981834888458
aF-4.303560256958008
aF57.16632080078125
aF3.9748001098632812
aF-0.0075841546058654785
aF0.058430373668670654
aF0.03386008180677891
aF0.2661762237548828
aF-10.1837158203125
aF0.3018455505371094
aF-0.0007353425025939941
aF0.004656016826629639
aF-0.004140118137001991
aF-26.94270133972168
aF369.7379150390625
aF23.326709747314453
aF-0.42729607224464417
aF0.35224825143814087
aF0.05792608857154846
aa(lp32
F-2.0470046997070312
aF23.42022705078125
aF2.1465721130371094
aF-0.0021879374980926514
aF0.025355756282806396
aF0.017364501953125
aF-4.287731170654297
aF55.540313720703125
aF4.28038215637207
aF-0.0036692917346954346
aF0.04379996657371521
aF0.0389859676361084
aF0.19372177124023438
aF-8.699859619140625
aF0.012762069702148438
aF-0.0007065832614898682
aF0.006911545991897583
aF-0.0042569637298583984
aF-27.49180793762207
aF376.96124267578125
aF24.020788192749023
aF-0.4253082871437073
aF0.352156400680542
aF0.06446529179811478
aa(lp33
F-1.960062026977539
aF23.073150634765625
aF2.0348434448242188
aF-0.0006563067436218262
aF0.020630717277526855
aF0.0184793658554554
aF-4.437385559082031
aF55.56793212890625
aF4.5447235107421875
aF-0.0033220648765563965
aF0.049180448055267334
aF0.038046080619096756
aF0.5172615051269531
aF-9.421630859375
aF-0.47503662109375
aF0.002009451389312744
aF-0.007919013500213623
aF-0.0010873489081859589
aF-28.230905532836914
aF384.90185546875
aF24.665380477905273
aF-0.4258052706718445
aF0.36017876863479614
aF0.0706060528755188
aa(lp34
F-1.9250602722167969
aF22.616790771484375
aF2.1637096405029297
aF0.005558669567108154
aF0.0007213354110717773
aF0.02301611751317978
aF-4.522260665893555
aF54.82330322265625
aF5.030084609985352
aF0.0011602342128753662
aF0.0378880500793457
aF0.04196307808160782
aF0.6721401214599609
aF-9.5897216796875
aF-0.7026653289794922
aF0.009957104921340942
aF-0.03644537925720215
aF0.0040691569447517395
aF-28.867761611938477
aF392.3547058105469
aF25.490419387817383
aF-0.421737402677536
aF0.35296958684921265
aF0.08094220608472824
aa(lp35
F-2.0481796264648438
aF23.325531005859375
aF1.9801959991455078
aF0.0001626908779144287
aF0.015029847621917725
aF0.025795169174671173
aF-4.615978240966797
aF54.0401611328125
aF4.812597274780273
aF-0.002009272575378418
aF0.046481192111968994
aF0.047194354236125946
aF0.5196189880371094
aF-7.38909912109375
aF-0.8522052764892578
aF0.0023346543312072754
aF-0.016421496868133545
aF0.0043959841132164
aF-29.539987564086914
aF400.2867736816406
aF26.00098419189453
aF-0.42514559626579285
aF0.3671862483024597
aF0.09026046097278595
aa(lp36
F-1.9758853912353516
aF23.124542236328125
aF2.545614242553711
aF0.004287779331207275
aF0.012685686349868774
aF0.01907426118850708
aF-4.761987686157227
aF54.485382080078125
aF5.33677864074707
aF0.001602858304977417
aF0.04606381058692932
aF0.0425795242190361
aF0.8102169036865234
aF-8.236297607421875
aF-0.24555015563964844
aF0.006972700357437134
aF-0.020692437887191772
aF-0.004431001842021942
aF-30.206790924072266
aF408.0263977050781
aF27.210994720458984
aF-0.4215174913406372
aF0.3728644549846649
aF0.08968031406402588
aa(lp37
F-1.8769798278808594
aF23.782318115234375
aF3.033445358276367
aF0.00870591402053833
aF0.012980759143829346
aF0.008936010301113129
aF-4.473897933959961
aF54.308319091796875
aF5.893327713012695
aF0.012117475271224976
aF0.026402294635772705
aF0.03775152936577797
aF0.7199382781982422
aF-6.743682861328125
aF0.17356300354003906
aF0.005294352769851685
aF-0.00044077634811401367
aF-0.019879508763551712
aF-30.744741439819336
aF416.13702392578125
aF28.52386474609375
aF-0.4130314886569977
aF0.365950345993042
aF0.08987821638584137
aa(lp38
F-1.6882190704345703
aF22.3140869140625
aF3.413593292236328
aF0.009246379137039185
aF0.012649357318878174
aF0.00860690325498581
aF-4.285505294799805
aF52.862945556640625
aF6.087867736816406
aF0.011396855115890503
aF0.02758735418319702
aF0.0409412756562233
aF0.9090671539306641
aF-8.234771728515625
aF0.73931884765625
aF0.007095903158187866
aF-0.002288639545440674
aF-0.02372746914625168
aF-31.228206634521484
aF422.6008605957031
aF29.41457748413086
aF-0.41589921712875366
aF0.3798356056213379
aF0.09886736422777176
aa(lp39
F-1.5842857360839844
aF21.388336181640625
aF3.531606674194336
aF0.01009458303451538
aF0.016067534685134888
aF0.0013737156987190247
aF-4.29926872253418
aF52.4534912109375
aF6.721813201904297
aF0.01388537883758545
aF0.03677558898925781
aF0.026588737964630127
aF1.130697250366211
aF-9.67681884765625
aF0.341400146484375
aF0.0063037872314453125
aF-0.004640519618988037
aF-0.023841306567192078
aF-31.79107666015625
aF429.41473388671875
aF30.74260139465332
aF-0.4114229083061218
aF0.3889319896697998
aF0.0910540297627449
aa(lp40
F-1.5729961395263672
aF20.525665283203125
aF3.822021484375
aF0.005927681922912598
aF0.033723264932632446
aF-0.007219135761260986
aF-4.086832046508789
aF51.760833740234375
aF7.680505752563477
aF0.0187014639377594
aF0.039494842290878296
aF0.012053027749061584
aF0.9408397674560547
aF-10.709503173828125
aF-0.03646278381347656
aF-0.006846100091934204
aF0.027951687574386597
aF-0.026491299271583557
aF-32.3177375793457
aF436.6626892089844
aF32.34588623046875
aF-0.4071038067340851
aF0.39967361092567444
aF0.08265908062458038
aa(lp41
F-1.5290184020996094
aF19.39520263671875
aF3.6916160583496094
aF0.010862946510314941
aF0.011481910943984985
aF0.0034475326538085938
aF-3.889463424682617
aF49.641357421875
aF7.615774154663086
aF0.01670113205909729
aF0.03834792971611023
aF0.021372690796852112
aF0.8314266204833984
aF-10.8509521484375
aF-0.2325420379638672
aF0.005024760961532593
aF-0.015384107828140259
aF-0.014477625489234924
aF-32.757225036621094
aF441.9960632324219
aF33.10619354248047
aF-0.4050362706184387
aF0.3913175165653229
aF0.10231489688158035
aa(lp42
F-1.5220947265625
aF19.228851318359375
aF3.893491744995117
aF0.011696815490722656
aF0.006840795278549194
aF0.007336519658565521
aF-3.773183822631836
aF48.3568115234375
aF8.635108947753906
aF0.025419503450393677
aF0.028586536645889282
aF0.008130088448524475
aF0.7289943695068359
aF-9.89910888671875
aF-0.8481254577636719
aF-0.0020258724689483643
aF-0.014904946088790894
aF0.006542950868606567
aF-33.31317138671875
aF448.6435852050781
aF34.63609313964844
aF-0.39972609281539917
aF0.395772784948349
aF0.09839054942131042
aa(lp43
F-1.4648780822753906
aF18.09869384765625
aF3.6870689392089844
aF0.014527738094329834
aF-0.005543887615203857
aF0.013536669313907623
aF-3.575824737548828
aF46.7349853515625
aF8.82196044921875
aF0.028941422700881958
aF0.021265268325805664
aF0.006515435874462128
aF0.6460685729980469
aF-10.53759765625
aF-1.4478225708007812
aF0.00011405348777770996
aF-0.03235304355621338
aF0.02055790275335312
aF-33.782615661621094
aF454.7613830566406
aF36.032955169677734
aF-0.39257606863975525
aF0.3941297233104706
aF0.096195749938488
aa(lp44
F-1.5073280334472656
aF19.8746337890625
aF4.536563873291016
aF0.014651387929916382
aF0.010031372308731079
aF-0.0022178664803504944
aF-3.5198116302490234
aF45.733673095703125
aF9.118892669677734
aF0.022646605968475342
aF0.03539854288101196
aF0.010218814015388489
aF0.5051555633544922
aF-5.984405517578125
aF-0.045764923095703125
aF0.006656169891357422
aF-0.015335798263549805
aF-0.014654546976089478
aF-34.26455307006836
aF461.8706970214844
aF37.642757415771484
aF-0.39038488268852234
aF0.40134888887405396
aF0.10009703040122986
aa(lp45
F-1.3049888610839844
aF20.07159423828125
aF4.950984954833984
aF0.010763585567474365
aF0.023084551095962524
aF-0.0045245736837387085
aF-3.38995361328125
aF46.11431884765625
aF10.172500610351562
aF0.026936709880828857
aF0.03902173042297363
aF-0.005001388490200043
aF0.7799758911132812
aF-5.97113037109375
aF-0.27053070068359375
aF-0.005409538745880127
aF0.007147371768951416
aF-0.004047758877277374
aF-34.618160247802734
aF468.7151794433594
aF39.58707809448242
aF-0.3889625072479248
aF0.4188573360443115
aF0.09386597573757172
aa(lp46
F-1.4921188354492188
aF20.145904541015625
aF4.529350280761719
aF-0.0006211400032043457
aF0.05209776759147644
aF-0.006715156137943268
aF-3.4836578369140625
aF45.4925537109375
aF9.819704055786133
aF0.01822569966316223
aF0.05729550123214722
aF-0.0015734359622001648
aF0.499420166015625
aF-5.20074462890625
aF-0.7610034942626953
aF-0.019467979669570923
aF0.046900033950805664
aF-0.01185687631368637
aF-35.27473449707031
aF474.90728759765625
aF40.56230545043945
aF-0.3931972086429596
aF0.446227490901947
aF0.08948059380054474
aa(lp47
F-2.348926544189453
aF30.13720703125
aF6.4166717529296875
aF-0.007528752088546753
aF0.07182326912879944
aF-0.009179435670375824
aF-4.295742034912109
aF55.34521484375
aF11.713542938232422
aF0.009190171957015991
aF0.07349854707717896
aF0.008258514106273651
aF-0.4021110534667969
aF4.92919921875
aF1.1198005676269531
aF-0.024247676134109497
aF0.07014799118041992
aF-0.0266173854470253
aF-36.61347961425781
aF492.0079040527344
aF44.05942916870117
aF-0.3979136347770691
aF0.4731721580028534
aF0.09091759473085403
aa(lp48
F-2.2710037231445312
aF29.233795166015625
aF6.437507629394531
aF-0.014277607202529907
aF0.07348567247390747
aF-0.0017493963241577148
aF-4.131938934326172
aF55.952911376953125
aF12.918392181396484
aF0.0017961561679840088
aF0.10102549195289612
aF-0.010198317468166351
aF-0.4100685119628906
aF2.514678955078125
aF-0.043376922607421875
aF-0.030351370573043823
aF0.04594585299491882
aF0.006699524819850922
aF-36.889163970947266
aF497.948974609375
aF46.02458572387695
aF-0.4032401144504547
aF0.492343008518219
aF0.092116579413414
aa(lp49
F-2.247081756591797
aF30.070465087890625
aF7.850028991699219
aF0.015047580003738403
aF0.02111572027206421
aF-0.02145693451166153
aF-4.208644866943359
aF56.33416748046875
aF13.776241302490234
aF0.02157646417617798
aF0.07157042622566223
aF-0.030366890132427216
aF-0.2855186462402344
aF3.8067626953125
aF1.9238166809082031
aF0.008518695831298828
aF-0.029338985681533813
aF-0.012546978890895844
aF-37.52181625366211
aF504.9777526855469
aF48.41233444213867
aF-0.3781496286392212
aF0.46734321117401123
aF0.06802365928888321
aa(lp50
F-1.2607536315917969
aF19.0830078125
aF5.651649475097656
aF0.023625314235687256
aF-0.0047422051429748535
aF-0.019899576902389526
aF-4.091617584228516
aF56.32952880859375
aF13.678123474121094
aF0.018287748098373413
aF0.07430022954940796
aF-0.0251777321100235
aF1.5701103210449219
aF-18.16351318359375
aF-2.3748245239257812
aF0.0289628803730011
aF-0.08378463983535767
aF-0.014621421694755554
aF-37.87423324584961
aF511.0909118652344
aF49.71107864379883
aF-0.37428832054138184
aF0.46842995285987854
aF0.07101801782846451
aa(lp51
F-1.3140068054199219
aF17.55352783203125
aF4.657173156738281
aF0.01873147487640381
aF-0.0019491016864776611
aF0.004962928593158722
aF-3.938617706298828
aF53.631805419921875
aF13.03900146484375
aF0.0058762431144714355
aF0.08904501795768738
aF-0.003017522394657135
aF1.3106040954589844
aF-18.524749755859375
aF-3.7246551513671875
aF0.03158670663833618
aF-0.0929432213306427
aF0.012943379580974579
aF-38.20317077636719
aF515.5025024414062
aF50.681758880615234
aF-0.3845086395740509
aF0.49039390683174133
aF0.09707950800657272
aa(lp52
F-0.8790245056152344
aF14.328948974609375
aF4.507438659667969
aF-0.006429404020309448
aF0.032561808824539185
aF0.030139915645122528
aF-3.7826805114746094
aF50.591522216796875
aF13.332695007324219
aF0.004383474588394165
aF0.08104768395423889
aF0.004297599196434021
aF2.0246315002441406
aF-21.933624267578125
aF-4.317817687988281
aF-0.01724228262901306
aF-0.015924066305160522
aF0.055982232093811035
aF-38.400840759277344
aF519.3067016601562
aF52.91977310180664
aF-0.38457903265953064
aF0.4999050199985504
aF0.09816357493400574
aa(lp53
F-0.7749900817871094
aF13.719696044921875
aF5.588115692138672
aF-0.0013897716999053955
aF0.01744633913040161
aF0.027516111731529236
aF-3.3744888305664062
aF49.9033203125
aF14.736888885498047
aF0.017519116401672363
aF0.03964880108833313
aF0.009053535759449005
aF1.8245086669921875
aF-22.46392822265625
aF-3.560657501220703
aF-0.020298659801483154
aF-0.004756122827529907
aF0.04597868770360947
aF-38.64922332763672
aF524.8106079101562
aF55.2991943359375
aF-0.37567809224128723
aF0.48587629199028015
aF0.09853412955999374
aa(lp54
F-0.7520942687988281
aF13.68743896484375
aF5.885627746582031
aF-0.0014591515064239502
aF0.006253272294998169
aF0.027678772807121277
aF-2.341785430908203
aF37.182037353515625
aF12.507957458496094
aF0.011945843696594238
aF0.02347502112388611
aF0.033840686082839966
aF0.8375968933105469
aF-9.807159423828125
aF-0.7367019653320312
aF-0.014864146709442139
aF-0.01096847653388977
aF0.021516859531402588
aF-38.955265045166016
aF529.18994140625
aF56.567386627197266
aF-0.38596779108047485
aF0.4966471791267395
aF0.124758280813694
aa(lp55
F-1.0776824951171875
aF15.8394775390625
aF5.370540618896484
aF0.002865731716156006
aF0.002182215452194214
aF0.01695193350315094
aF-2.5893592834472656
aF37.19720458984375
aF12.265727996826172
aF0.021526813507080078
aF0.009744226932525635
aF0.022998929023742676
aF0.4339942932128906
aF-5.51824951171875
aF-1.5246467590332031
aF-0.015795350074768066
aF-0.005379796028137207
aF0.010904937982559204
aF-39.47852325439453
aF535.1461791992188
aF58.290313720703125
aF-0.38171330094337463
aF0.5020872354507446
aF0.11511550843715668
aa(lp56
F-1.2111778259277344
aF14.053955078125
aF4.142158508300781
aF0.0011186599731445312
aF0.04941806197166443
aF-0.029207825660705566
aF-2.3385848999023438
aF33.886810302734375
aF11.02901840209961
aF0.003590196371078491
aF0.06795114278793335
aF0.0013026446104049683
aF-0.083770751953125
aF-5.778900146484375
aF-2.744701385498047
aF-0.0013528764247894287
aF0.030884981155395508
aF-0.0597182959318161
aF-39.86040115356445
aF538.8645629882812
aF59.44135284423828
aF-0.3745594322681427
aF0.5352943539619446
aF0.06932630389928818
aa(lp57
F-1.2038383483886719
aF13.7864990234375
aF7.173946380615234
aF0.026370614767074585
aF0.0068015456199646
aF-0.048705585300922394
aF-2.284870147705078
aF31.885528564453125
aF14.030254364013672
aF0.014691144227981567
aF0.03501877188682556
aF0.005034677684307098
aF-0.12280654907226562
aF-4.312530517578125
aF0.3176383972167969
aF0.0380500853061676
aF-0.021415680646896362
aF-0.10244584828615189
aF-40.15910339355469
aF542.9764404296875
aF63.7413330078125
aF-0.35959717631340027
aF0.5034487247467041
aF0.0760526955127716
aa(lp58
F-1.3307952880859375
aF13.4114990234375
aF7.018516540527344
aF0.020608901977539062
aF-0.0062483251094818115
aF-0.002645716071128845
aF-2.6061477661132812
aF33.05517578125
aF14.627071380615234
aF0.023404240608215332
aF0.005445003509521484
aF0.015390284359455109
aF-0.05544281005859375
aF-6.232177734375
aF-0.5900382995605469
aF0.017813563346862793
aF-0.017941653728485107
aF-0.0206817165017128
aF-40.80931854248047
aF548.5576782226562
aF65.30883026123047
aF-0.36110439896583557
aF0.4958389103412628
aF0.11246979236602783
aa(lp59
F-2.073230743408203
aF17.66351318359375
aF7.1661376953125
aF0.005613833665847778
aF-0.012994766235351562
aF0.05409783124923706
aF-3.5327911376953125
aF37.22137451171875
aF13.68771743774414
aF0.015633434057235718
aF0.022394567728042603
aF0.0252605602145195
aF-0.6136703491210938
aF-1.89434814453125
aF0.6445579528808594
aF-0.004405766725540161
aF-0.04838410019874573
aF0.08293510228395462
aF-41.933631896972656
aF556.528076171875
aF66.60749053955078
aF-0.3689455986022949
aF0.522299587726593
aF0.12342413514852524
aa(lp60
F-2.595378875732422
aF20.4232177734375
aF5.87799072265625
aF-0.009323805570602417
aF0.06445115804672241
aF0.014381572604179382
aF-4.105258941650391
aF38.58905029296875
aF14.32012939453125
aF0.006757110357284546
aF0.08202359080314636
aF-0.008099861443042755
aF-1.0854988098144531
aF2.25738525390625
aF-2.56414794921875
aF-0.02540472149848938
aF0.04687872529029846
aF0.03686300665140152
aF-42.75448226928711
aF563.399658203125
aF69.61932373046875
aF-0.3689209818840027
aF0.5678998827934265
aF0.09043426811695099
aa.