(lp0
(lp1
F-19.360984802246094
aF158.7084503173828
aF-0.83621746301651
aF-0.24172551929950714
aF0.045034583657979965
aF0.08309214562177658
aF0.05624198913574219
aF0.8194732666015625
aF-1.3675754070281982
aF-0.01158912479877472
aF-0.00579679012298584
aF-0.003529459238052368
aF-0.05077552795410156
aF0.728668212890625
aF-1.5857356786727905
aF-0.015442445874214172
aF-0.009497471153736115
aF-0.0018309727311134338
aF0.16325950622558594
aF0.9102783203125
aF-1.149415135383606
aF-0.007735803723335266
aF-0.002096109092235565
aF-0.0052279457449913025
aa(lp2
F-19.27859878540039
aF159.7996063232422
aF-1.3287895917892456
aF-0.2392634153366089
aF0.04190485179424286
aF0.08091486990451813
aF0.085601806640625
aF1.8732452392578125
aF-1.645494520664215
aF-0.004952222108840942
aF-0.007235094904899597
aF-0.006364122033119202
aF0.0695343017578125
aF1.8285369873046875
aF-1.8259702622890472
aF-0.01370672881603241
aF-0.01076003909111023
aF-0.005351275205612183
aF0.1016693115234375
aF1.9179534912109375
aF-1.465018779039383
aF0.003802284598350525
aF-0.003710150718688965
aF-0.007376968860626221
aa(lp3
F-19.11667251586914
aF161.6923370361328
aF-1.9339532852172852
aF-0.23722118139266968
aF0.03957309201359749
aF0.07778637111186981
aF0.24996376037597656
aF3.5404815673828125
aF-1.5958798825740814
aF0.0007884800434112549
aF-0.008071523159742355
aF-0.008048534393310547
aF0.26024627685546875
aF3.7021636962890625
aF-2.468252956867218
aF-0.011857852339744568
aF-0.012736521661281586
aF-0.008654661476612091
aF0.23968124389648438
aF3.3787994384765625
aF-0.7235068082809448
aF0.013434812426567078
aF-0.003406524658203125
aF-0.007442407310009003
aa(lp4
F-18.835485458374023
aF164.9401397705078
aF-2.4403958320617676
aF-0.235663041472435
aF0.03749765083193779
aF0.07584132254123688
aF0.5254993438720703
aF6.231689453125
aF-1.6041783690452576
aF0.0060624778270721436
aF-0.007536932826042175
aF-0.007250823080539703
aF0.5701885223388672
aF6.9967041015625
aF-3.0131818652153015
aF-0.010258644819259644
aF-0.01435266062617302
aF-0.011355258524417877
aF0.48081016540527344
aF5.4666748046875
aF-0.19517487287521362
aF0.02238360047340393
aF-0.0007212050259113312
aF-0.0031463876366615295
aa(lp5
F-18.531892776489258
aF169.42637634277344
aF-3.3065574169158936
aF-0.23468433320522308
aF0.03596441075205803
aF0.07522819191217422
aF0.7467060089111328
aF9.62677001953125
aF-1.977767825126648
aF0.004579082131385803
aF-0.00594044104218483
aF-0.005686677992343903
aF0.8853340148925781
aF11.537399291992188
aF-3.837915360927582
aF-0.004547938704490662
aF-0.014866963028907776
aF-0.011393412947654724
aF0.6080780029296875
aF7.7161407470703125
aF-0.11762028932571411
aF0.013706102967262268
aF0.0029860809445381165
aF2.0056962966918945e-05
aa(lp6
F-18.300460815429688
aF174.83651733398438
aF-4.156508922576904
aF-0.2342468649148941
aF0.0350477397441864
aF0.07694433629512787
aF0.8162117004394531
aF13.144180297851562
aF-2.222555637359619
aF0.0029743164777755737
aF-0.004525352269411087
aF-0.0008420348167419434
aF1.0637397766113281
aF16.91015625
aF-4.473213851451874
aF6.432831287384033e-05
aF-0.014092206954956055
aF-0.01033465564250946
aF0.5686836242675781
aF9.378204345703125
aF0.028102576732635498
aF0.005884304642677307
aF0.005041502416133881
aF0.008650586009025574
aa(lp7
F-18.145130157470703
aF181.13140869140625
aF-4.837274551391602
aF-0.23377859592437744
aF0.03415180370211601
aF0.07671220600605011
aF0.6903553009033203
aF16.191268920898438
aF-2.396878719329834
aF0.0018844455480575562
aF-0.0033458471298217773
aF0.0008708834648132324
aF1.221506118774414
aF22.97955322265625
aF-4.499201148748398
aF0.004231065511703491
aF-0.013492811471223831
aF-0.009122699499130249
aF0.15920448303222656
aF9.402984619140625
aF-0.29455628991127014
aF-0.0004621744155883789
aF0.0068011172115802765
aF0.010864466428756714
aa(lp8
F-18.081567764282227
aF188.24673461914062
aF-5.627554893493652
aF-0.23333123326301575
aF0.030236288905143738
aF0.07889527827501297
aF0.45032501220703125
aF18.820358276367188
aF-2.320997476577759
aF0.0013530999422073364
aF-0.005728121846914291
aF0.003667086362838745
aF1.2794170379638672
aF29.538284301757812
aF-4.791337430477142
aF0.008394286036491394
aF-0.014798294752836227
aF-0.004196867346763611
aF-0.3787670135498047
aF8.102432250976562
aF0.14934247732162476
aF-0.005688086152076721
aF0.0033420510590076447
aF0.011531040072441101
aa(lp9
F-18.010095596313477
aF196.269287109375
aF-5.967062473297119
aF-0.23284830152988434
aF0.027559123933315277
aF0.0785103365778923
aF0.29036521911621094
aF21.432769775390625
aF-1.8105535507202148
aF0.0013985633850097656
aF-0.007488615810871124
aF0.0015660002827644348
aF1.268503189086914
aF36.46968078613281
aF-4.6382728815078735
aF0.006415113806724548
aF-0.014345727860927582
aF-0.002404533326625824
aF-0.6877727508544922
aF6.3958587646484375
aF1.0171657800674438
aF-0.003617987036705017
aF-0.0006315037608146667
aF0.005536533892154694
aa(lp10
F-17.993844985961914
aF204.98046875
aF-6.65891695022583
aF-0.2323588728904724
aF0.024126136675477028
aF0.07855261117219925
aF0.15128517150878906
aF23.84906005859375
aF-1.8216423988342285
aF0.0014197230339050293
aF-0.010025667026638985
aF0.0018404051661491394
aF1.1228275299072266
aF43.28813171386719
aF-4.724963665008545
aF0.004862308502197266
aF-0.01544695533812046
aF0.0007662400603294373
aF-0.8202571868896484
aF4.4099884033203125
aF1.081678867340088
aF-0.002022862434387207
aF-0.004604378715157509
aF0.0029145702719688416
aa(lp11
F-18.029468536376953
aF214.45343017578125
aF-6.796367645263672
aF-0.23230451345443726
aF0.022512640804052353
aF0.07998272031545639
aF0.05209922790527344
aF26.206695556640625
aF-1.1688127517700195
aF0.0010267198085784912
aF-0.007723648101091385
aF0.0010874420404434204
aF0.8060169219970703
aF49.51329040527344
aF-4.355971813201904
aF0.0033585280179977417
aF-0.014985010027885437
aF0.004141397774219513
aF-0.7018184661865234
aF2.9001007080078125
aF2.0183463096618652
aF-0.0013050884008407593
aF-0.00046228617429733276
aF-0.001966513693332672
aa(lp12
F-18.140439987182617
aF224.40957641601562
aF-7.264792442321777
aF-0.23272402584552765
aF0.022935181856155396
aF0.08019638806581497
aF-0.13034439086914062
aF28.140289306640625
aF-1.2977299690246582
aF0.00012427568435668945
aF-0.004623942077159882
aF0.0016860514879226685
aF0.3914527893066406
aF54.98320007324219
aF-3.958235025405884
aF0.0019603073596954346
aF-0.013029228895902634
aF0.004968196153640747
aF-0.6521415710449219
aF1.2973785400390625
aF1.3627750873565674
aF-0.0017117559909820557
aF0.0037813447415828705
aF-0.0015960931777954102
aa(lp13
F-18.25066566467285
aF234.52963256835938
aF-7.375276565551758
aF-0.2336466908454895
aF0.022954672574996948
aF0.08550543338060379
aF-0.2568206787109375
aF29.549163818359375
aF-0.7163596153259277
aF-0.0012878179550170898
aF-0.0011714641004800797
aF0.006952822208404541
aF0.04979515075683594
aF59.693115234375
aF-3.2187676429748535
aF0.000600174069404602
aF-0.012093067169189453
aF0.008561097085475922
aF-0.5634365081787109
aF-0.59478759765625
aF1.786048412322998
aF-0.0031758099794387817
aF0.009750138968229294
aF0.00534454733133316
aa(lp14
F-18.5683536529541
aF245.6005859375
aF-7.624777793884277
aF-0.2349836826324463
aF0.025195235386490822
aF0.0899813249707222
aF-0.5388851165771484
aF31.14715576171875
aF-0.8284101486206055
aF-0.002679169178009033
aF0.002682594582438469
aF0.009998604655265808
aF-0.42322349548339844
aF64.46917724609375
aF-2.787503242492676
aF-0.0012050867080688477
aF-0.00895656831562519
aF0.013269118964672089
aF-0.6545467376708984
aF-2.17486572265625
aF1.1306829452514648
aF-0.004153251647949219
aF0.014321757480502129
aF0.006728090345859528
aa(lp15
F-19.062347412109375
aF256.15655517578125
aF-7.553175449371338
aF-0.2350519299507141
aF0.025023840367794037
aF0.09161818772554398
aF-0.9219074249267578
aF31.746978759765625
aF-0.28838300704956055
aF-0.0023279041051864624
aF0.0020886585116386414
aF0.011421799659729004
aF-0.9807796478271484
aF67.90982055664062
aF-1.9256205558776855
aF-0.0017206966876983643
aF-0.005212448537349701
aF0.012722909450531006
aF-0.8630352020263672
aF-4.415863037109375
aF1.3488545417785645
aF-0.0029351115226745605
aF0.009389765560626984
aF0.010120689868927002
aa(lp16
F-19.694561004638672
aF266.5765075683594
aF-7.408520698547363
aF-0.23588742315769196
aF0.027517233043909073
aF0.09740730375051498
aF-1.4438953399658203
aF32.046875
aF-0.03324413299560547
aF-0.0022407323122024536
aF0.004562560468912125
aF0.011901870369911194
aF-1.6844654083251953
aF70.30722045898438
aF-1.4414582252502441
aF-0.003039121627807617
aF-4.1890889406204224e-05
aF0.01889696717262268
aF-1.2033252716064453
aF-6.213470458984375
aF1.3749699592590332
aF-0.00144234299659729
aF0.009167011827230453
aF0.004906773567199707
aa(lp17
F-20.415273666381836
aF277.82391357421875
aF-7.212527275085449
aF-0.23570382595062256
aF0.03083149902522564
aF0.10090333223342896
aF-1.8469200134277344
aF32.22332763671875
aF0.4122505187988281
aF-0.0007201433181762695
aF0.0056362636387348175
aF0.010922007262706757
aF-2.421428680419922
aF72.84344482421875
aF-0.5536103248596191
aF-0.0033449530601501465
aF0.0067053623497486115
aF0.022350721061229706
aF-1.2724113464355469
aF-8.39678955078125
aF1.3781113624572754
aF0.0019046664237976074
aF0.0045671649277210236
aF-0.0005067065358161926
aa(lp18
F-21.055973052978516
aF288.803466796875
aF-6.645600318908691
aF-0.2340424358844757
aF0.035743556916713715
aF0.10384704917669296
aF-1.9936256408691406
aF32.64691162109375
aF0.9075751304626465
aF0.0010094940662384033
aF0.010719716548919678
aF0.012228861451148987
aF-3.0265045166015625
aF74.35003662109375
aF0.15076732635498047
aF-0.0017379224300384521
aF0.013230916112661362
aF0.023864328861236572
aF-0.9607467651367188
aF-9.05621337890625
aF1.6643829345703125
aF0.003756910562515259
aF0.008208516985177994
aF0.0005933940410614014
aa(lp19
F-21.818449020385742
aF299.3169250488281
aF-6.6198296546936035
aF-0.23315444588661194
aF0.04434448108077049
aF0.11168351024389267
aF-2.1238880157470703
aF32.74041748046875
aF0.7886910438537598
aF0.002732977271080017
aF0.01682724803686142
aF0.014276206493377686
aF-3.678009033203125
aF74.9073486328125
aF0.6449627876281738
aF-0.00043042004108428955
aF0.021409299224615097
aF0.0314871221780777
aF-0.5697669982910156
aF-9.426513671875
aF0.9324193000793457
aF0.005896374583244324
aF0.012245196849107742
aF-0.0029347091913223267
aa(lp20
F-22.64447021484375
aF310.0657653808594
aF-6.18378210067749
aF-0.22979971766471863
aF0.042279936373233795
aF0.11685235053300858
aF-2.229196548461914
aF32.241851806640625
aF1.028745174407959
aF0.005904108285903931
aF0.011448437348008156
aF0.01594901829957962
aF-4.393804550170898
aF75.5361328125
aF1.1914944648742676
aF0.003846973180770874
aF0.019325263798236847
aF0.031346917152404785
aF-0.06458854675292969
aF-11.05242919921875
aF0.8659958839416504
aF0.007961243391036987
aF0.0035716108977794647
aF0.0005511194467544556
aa(lp21
F-23.531696319580078
aF321.01959228515625
aF-6.015576362609863
aF-0.22723034024238586
aF0.05212120711803436
aF0.1222836971282959
aF-2.4757232666015625
aF32.21612548828125
aF0.6300239562988281
aF0.006812095642089844
aF0.016377650201320648
aF0.018436647951602936
aF-4.963342666625977
aF75.41900634765625
aF1.609201431274414
aF0.007753342390060425
aF0.02692597173154354
aF0.0323023721575737
aF0.011896133422851562
aF-10.98675537109375
aF-0.3491535186767578
aF0.005870848894119263
aF0.005829328671097755
aF0.004570923745632172
aa(lp22
F-24.419593811035156
aF332.6220397949219
aF-5.952633857727051
aF-0.23724593222141266
aF0.05390290170907974
aF0.12844432890415192
aF-2.601144790649414
aF33.30511474609375
aF0.6671957969665527
aF-0.00409148633480072
aF0.00955842062830925
aF0.016760818660259247
aF-5.357246398925781
aF76.46548461914062
aF1.600541591644287
aF-0.0021940022706985474
aF0.028879061341285706
aF0.03682614117860794
aF0.15495681762695312
aF-9.855255126953125
aF-0.26614999771118164
aF-0.005988970398902893
aF-0.009762220084667206
aF-0.003304503858089447
aa(lp23
F-25.200363159179688
aF343.9689636230469
aF-5.619291305541992
aF-0.24485169351100922
aF0.05793677270412445
aF0.13093023002147675
aF-2.5558929443359375
aF33.9031982421875
aF0.564490795135498
aF-0.015051975846290588
aF0.015656836330890656
aF0.01407787948846817
aF-5.505802154541016
aF77.3924560546875
aF1.789229393005371
aF-0.00896427035331726
aF0.030419539660215378
aF0.03352292627096176
aF0.3940162658691406
aF-9.5860595703125
aF-0.660247802734375
aF-0.021139681339263916
aF0.0008941330015659332
aF-0.005367167294025421
aa(lp24
F-26.08891487121582
aF355.2294006347656
aF-5.236972808837891
aF-0.25297659635543823
aF0.06407091021537781
aF0.13688406348228455
aF-2.557218551635742
aF34.209808349609375
aF0.7786035537719727
aF-0.025746256113052368
aF0.011949703097343445
aF0.014600366353988647
aF-5.673641204833984
aF77.40548706054688
aF1.9755544662475586
aF-0.017272770404815674
aF0.03323941119015217
aF0.03598073124885559
aF0.5592041015625
aF-8.985870361328125
aF-0.4183473587036133
aF-0.03421974182128906
aF-0.009340004995465279
aF-0.006779998540878296
aa(lp25
F-26.9526309967041
aF365.9054260253906
aF-5.227020740509033
aF-0.268193781375885
aF0.08505502343177795
aF0.16019733250141144
aF-2.5330371856689453
aF33.28338623046875
aF0.7256131172180176
aF-0.03094784915447235
aF0.03115212172269821
aF0.03175300359725952
aF-5.896657943725586
aF77.10195922851562
aF1.4185795783996582
aF-0.0341513454914093
aF0.04931146651506424
aF0.056350283324718475
aF0.8305835723876953
aF-10.535186767578125
aF0.03264665603637695
aF-0.0277443528175354
aF0.012992776930332184
aF0.007155723869800568
aa(lp26
F-27.876283645629883
aF377.2955627441406
aF-4.50139045715332
aF-0.2723928987979889
aF0.08642817288637161
aF0.16851064562797546
aF-2.6759204864501953
aF33.32659912109375
aF1.1179008483886719
aF-0.027541205286979675
aF0.028491400182247162
aF0.03758041560649872
aF-6.057834625244141
aF77.9786376953125
aF2.118439197540283
aF-0.03923845291137695
aF0.04208369180560112
aF0.056827135384082794
aF0.70599365234375
aF-11.325439453125
aF0.11736249923706055
aF-0.015843957662582397
aF0.014899108558893204
aF0.018333695828914642
aa(lp27
F-29.000425338745117
aF388.86798095703125
aF-4.261967658996582
aF-0.2725486755371094
aF0.12333425879478455
aF0.1574489176273346
aF-2.911510467529297
aF33.638580322265625
aF0.9750051498413086
aF-0.019572079181671143
aF0.05926334857940674
aF0.02056485414505005
aF-6.355955123901367
aF78.80221557617188
aF1.9218144416809082
aF-0.04274895787239075
aF0.08105432242155075
aF0.04059656709432602
aF0.5329341888427734
aF-11.525054931640625
aF0.028195858001708984
aF0.003604799509048462
aF0.037472374737262726
aF0.0005331411957740784
aa(lp28
F-29.705881118774414
aF399.93255615234375
aF-3.1995413303375244
aF-0.27969256043434143
aF0.14452096819877625
aF0.17176170647144318
aF-2.7532501220703125
aF34.027130126953125
aF2.027479410171509
aF-0.011498779058456421
aF0.05946594476699829
aF0.011564373970031738
aF-6.174184799194336
aF78.9129638671875
aF2.816035032272339
aF-0.052462220191955566
aF0.09239976108074188
aF0.04947800934314728
aF0.6676845550537109
aF-10.85870361328125
aF1.2389237880706787
aF0.029464662075042725
aF0.0265321284532547
aF-0.0263492614030838
aa(lp29
F-30.572317123413086
aF411.62359619140625
aF-2.900905132293701
aF-0.27960944175720215
aF0.1698368936777115
aF0.16128724813461304
aF-2.696033477783203
aF34.328033447265625
aF1.6004853248596191
aF-0.007216542959213257
aF0.08340872079133987
aF-0.007223397493362427
aF-6.15272331237793
aF79.00155639648438
aF3.0517287254333496
aF-0.04236350953578949
aF0.11593399196863174
aF0.03284291923046112
aF0.7606563568115234
aF-10.345489501953125
aF0.14924192428588867
aF0.027930423617362976
aF0.050883449614048004
aF-0.047289714217185974
aa(lp30
F-31.259193420410156
aF423.18597412109375
aF-2.7304389476776123
aF-0.27592334151268005
aF0.175201416015625
aF0.15736623108386993
aF-2.258768081665039
aF34.3179931640625
aF1.5315287113189697
aF-0.0033746659755706787
aF0.051867157220840454
aF-8.268654346466064e-05
aF-6.058830261230469
aF79.21701049804688
aF2.88885235786438
aF-0.031071648001670837
aF0.11726464331150055
aF0.02643600106239319
aF1.5412940979003906
aF-10.581024169921875
aF0.17420506477355957
aF0.02432231605052948
aF-0.013530328869819641
aF-0.02660137414932251
aa.