(lp0
(lp1
F-64.0968017578125
aF480.5096740722656
aF5.838228225708008
aF-0.26921406388282776
aF0.6515023708343506
aF0.17444154620170593
aF0.7844467163085938
aF-16.407562255859375
aF-5.253826141357422
aF0.057512760162353516
aF-0.028760135173797607
aF-0.04761621356010437
aF-4.617000579833984
aF-3.04315185546875
aF-16.932567596435547
aF0.0146465003490448
aF0.08140850067138672
aF-0.01746237277984619
aF6.185894012451172
aF-29.77197265625
aF6.424915313720703
aF0.10037901997566223
aF-0.13892877101898193
aF-0.07777005434036255
aa(lp2
F-64.08245849609375
aF471.7452392578125
aF3.849290132522583
aF-0.13366734981536865
aF0.66062992811203
aF0.162961944937706
aF0.30462646484375
aF-22.5816650390625
aF-8.178355932235718
aF0.20079240202903748
aF-0.031058132648468018
aF-0.03147105872631073
aF-1.7761421203613281
aF-20.9984130859375
aF-12.187613248825073
aF0.16280117630958557
aF0.08537179231643677
aF-0.026441961526870728
aF2.385395050048828
aF-24.1649169921875
aF-4.169098615646362
aF0.23878362774848938
aF-0.1474880576133728
aF-0.03650015592575073
aa(lp3
F-64.02130126953125
aF460.5135192871094
aF0.7131802439689636
aF-0.21989706158638
aF0.6317636370658875
aF0.12514586746692657
aF0.5011138916015625
aF-29.056610107421875
aF-7.683842957019806
aF0.0760108232498169
aF-0.036453425884246826
aF-0.0700322687625885
aF0.443878173828125
aF-37.72003173828125
aF-11.071041405200958
aF0.09868603944778442
aF0.0009990930557250977
aF-0.07212543487548828
aF0.558349609375
aF-20.3931884765625
aF-4.296644508838654
aF0.053335607051849365
aF-0.07390594482421875
aF-0.06793910264968872
aa(lp4
F-63.42799377441406
aF448.5223693847656
aF-0.4256438910961151
aF-0.2775696814060211
aF0.6080201864242554
aF0.13776344060897827
aF0.6688079833984375
aF-31.9873046875
aF-6.263872116804123
aF-0.00835561752319336
aF-0.043482184410095215
aF-0.03667810559272766
aF1.9049301147460938
aF-51.473236083984375
aF-10.78621193766594
aF0.06476151943206787
aF-0.05833381414413452
aF-0.09962041676044464
aF-0.5673141479492188
aF-12.501373291015625
aF-1.7415322959423065
aF-0.08147275447845459
aF-0.028630554676055908
aF0.02626420557498932
aa(lp5
F-62.62429428100586
aF434.7759094238281
aF-2.115837574005127
aF-0.3109471797943115
aF0.5823928713798523
aF0.13196516036987305
aF1.4581642150878906
aF-36.969329833984375
aF-5.96512770652771
aF-0.17727982997894287
aF-0.07823705673217773
aF-0.030996784567832947
aF2.2569541931152344
aF-62.141326904296875
aF-13.207891941070557
aF0.01577964425086975
aF-0.0978696346282959
aF-0.09009259939193726
aF0.6593742370605469
aF-11.797332763671875
aF1.2776365280151367
aF-0.3703393042087555
aF-0.05860447883605957
aF0.028099030256271362
aa(lp6
F-61.5994758605957
aF420.21636962890625
aF-2.089334726333618
aF-0.33156001567840576
aF0.5560290813446045
aF0.12567640841007233
aF2.421825408935547
aF-40.297149658203125
aF-2.802514970302582
aF-0.11166295409202576
aF-0.07573455572128296
aF0.000530540943145752
aF2.787609100341797
aF-74.11053466796875
aF-14.116980791091919
aF0.002899736166000366
aF-0.13565897941589355
aF-0.0687565952539444
aF2.056041717529297
aF-6.4837646484375
aF8.511950850486755
aF-0.22622564435005188
aF-0.015810132026672363
aF0.0698176771402359
aa(lp7
F-59.59450149536133
aF404.2753601074219
aF-1.0907505750656128
aF-0.34644830226898193
aF0.5426203012466431
aF0.13204209506511688
aF3.8334922790527344
aF-44.24700927734375
aF-0.6651066839694977
aF-0.06887862086296082
aF-0.0653998851776123
aF-0.005721345543861389
aF4.927913665771484
aF-85.29476928710938
aF-9.487773776054382
aF-0.050540417432785034
aF-0.1255967617034912
aF-0.0631360411643982
aF2.7390708923339844
aF-3.199249267578125
aF8.157560408115387
aF-0.0872168242931366
aF-0.0052030086517333984
aF0.051693350076675415
aa(lp8
F-58.08830261230469
aF390.9320983886719
aF-1.1851810216903687
aF-0.34951263666152954
aF0.5471596717834473
aF0.1173589825630188
aF4.535991668701172
aF-43.84381103515625
aF0.9306565523147583
aF-0.03856545686721802
aF-0.03523319959640503
aF-0.014606177806854248
aF6.0084991455078125
aF-89.57757568359375
aF-7.0234092473983765
aF-0.08029857277870178
aF-0.10434269905090332
aF-0.057082563638687134
aF3.0634841918945312
aF1.88995361328125
aF8.884722352027893
aF0.003167659044265747
aF0.03387629985809326
aF0.027870208024978638
aa(lp9
F-56.04730224609375
aF374.8941345214844
aF-1.236146330833435
aF-0.34575915336608887
aF0.5292425751686096
aF0.11952363699674606
aF5.552173614501953
aF-45.322235107421875
aF0.8531883955001831
aF-0.014199137687683105
aF-0.026786506175994873
aF-0.006152771413326263
aF8.03515625
aF-96.85110473632812
aF-5.085436463356018
aF-0.21209180355072021
aF-0.1313873529434204
aF-0.04343830794095993
aF3.0691909790039062
aF6.206634521484375
aF6.791813254356384
aF0.183693528175354
aF0.07781434059143066
aF0.031132765114307404
aa(lp10
F-54.296443939208984
aF358.9239501953125
aF-1.7151466608047485
aF-0.35082530975341797
aF0.5172916054725647
aF0.1021326333284378
aF5.298057556152344
aF-45.351409912109375
aF-0.6243960857391357
aF-0.004377007484436035
aF-0.02532869577407837
aF-0.029909461736679077
aF9.724857330322266
aF-101.58956909179688
aF-2.428326904773712
aF-0.13092824816703796
aF-0.11447203159332275
aF-0.02301323413848877
aF0.8712577819824219
aF10.886749267578125
aF1.1795347332954407
aF0.1221742331981659
aF0.06381464004516602
aF-0.036805689334869385
aa(lp11
F-52.478111267089844
aF342.9650573730469
aF-2.087986469268799
aF-0.35673919320106506
aF0.4976445734500885
aF0.09045623987913132
aF5.610191345214844
aF-47.967041015625
aF-0.9028054475784302
aF-0.0072265565395355225
aF-0.049515098333358765
aF-0.02690274268388748
aF10.949882507324219
aF-105.55731201171875
aF-1.6623425781726837
aF-0.07916951179504395
aF-0.11037561297416687
aF-0.047307200729846954
aF0.27050018310546875
aF9.62322998046875
aF-0.14326831698417664
aF0.0647163987159729
aF0.01134541630744934
aF-0.006498284637928009
aa(lp12
F-50.66562271118164
aF328.328369140625
aF-1.6994423866271973
aF-0.36234793066978455
aF0.47979721426963806
aF0.09252171963453293
aF5.381679534912109
aF-46.565765380859375
aF-0.4632960557937622
aF-0.01658877730369568
aF-0.04944536089897156
aF-0.027001917362213135
aF11.958671569824219
aF-106.44754028320312
aF0.4163951873779297
aF-0.05140075087547302
aF-0.10259565711021423
aF-0.03944344073534012
aF-1.1953125
aF13.316009521484375
aF-1.342987298965454
aF0.018223196268081665
aF0.003704935312271118
aF-0.014560393989086151
aa(lp13
F-48.80018997192383
aF313.7862548828125
aF-1.5104261636734009
aF-0.37330523133277893
aF0.47987762093544006
aF0.08240436762571335
aF5.496253967285156
aF-45.1376953125
aF0.20472049713134766
aF-0.022479921579360962
aF-0.037413984537124634
aF-0.019728265702724457
aF12.799285888671875
aF-106.43011474609375
aF0.5789085626602173
aF-0.04174521565437317
aF-0.07615146040916443
aF-0.04327204078435898
aF-1.8067779541015625
aF16.15472412109375
aF-0.16946756839752197
aF-0.003214627504348755
aF0.0013234913349151611
aF0.0038155093789100647
aa(lp14
F-46.87263107299805
aF300.35626220703125
aF-0.989894688129425
aF-0.37786921858787537
aF0.46238863468170166
aF0.0774611309170723
aF5.605480194091797
aF-42.608795166015625
aF1.0980917811393738
aF-0.021130025386810303
aF-0.03525593876838684
aF-0.012995108962059021
aF12.721870422363281
aF-103.91909790039062
aF0.10085588693618774
aF-0.03142091631889343
aF-0.0802316665649414
aF-0.054580964148044586
aF-1.5109100341796875
aF18.701507568359375
aF2.09532767534256
aF-0.010839134454727173
aF0.009719789028167725
aF0.028590746223926544
aa(lp15
F-44.82746505737305
aF286.4533386230469
aF-0.34534144401550293
aF-0.3786708414554596
aF0.443397581577301
aF0.079305000603199
aF5.838157653808594
aF-41.875030517578125
aF1.3541009426116943
aF-0.01632291078567505
aF-0.036399632692337036
aF-0.013216719031333923
aF13.26083755493164
aF-104.478759765625
aF0.8398395776748657
aF-0.029158204793930054
aF-0.10376209020614624
aF-0.038053981959819794
aF-1.5845222473144531
aF20.72869873046875
aF1.868362307548523
aF-0.003487616777420044
aF0.030962824821472168
aF0.011620543897151947
aa(lp16
F-42.731719970703125
aF273.4137878417969
aF0.4838750958442688
aF-0.37860631942749023
aF0.42932435870170593
aF0.07509643584489822
aF6.068470001220703
aF-40.372467041015625
aF1.9943012595176697
aF-0.005301088094711304
aF-0.05055326223373413
aF-0.0073079317808151245
aF13.315582275390625
aF-101.4803466796875
aF1.7200214266777039
aF-0.03284716606140137
aF-0.09991821646690369
aF-0.04442720115184784
aF-1.1786422729492188
aF20.73541259765625
aF2.2685810923576355
aF0.02224498987197876
aF-0.0011883080005645752
aF0.02981133759021759
aa(lp17
F-40.70406723022461
aF260.7317810058594
aF1.3056726455688477
aF-0.3773544728755951
aF0.4180133640766144
aF0.07291462272405624
aF6.1685638427734375
aF-39.624481201171875
aF2.2955673336982727
aF0.0005147457122802734
aF-0.04437527060508728
aF-0.004546508193016052
aF13.592376708984375
aF-98.19216918945312
aF3.020819306373596
aF-0.026529163122177124
aF-0.09927824139595032
aF-0.02921801060438156
aF-1.2552490234375
aF18.943206787109375
aF1.5703153610229492
aF0.02755865454673767
aF0.010527700185775757
aF0.020124994218349457
aa(lp18
F-38.660316467285156
aF247.83876037597656
aF2.490145683288574
aF-0.3746753931045532
aF0.4062776565551758
aF0.06871406733989716
aF6.167148590087891
aF-38.61457824707031
aF2.835487127304077
aF0.003995448350906372
aF-0.037119925022125244
aF-0.01059093326330185
aF13.817794799804688
aF-95.12629699707031
aF4.578132152557373
aF-0.01793619990348816
aF-0.09136691689491272
aF-0.02174217253923416
aF-1.4834976196289062
aF17.897140502929688
aF1.0928421020507812
aF0.025927096605300903
aF0.01712706685066223
aF0.0005603060126304626
aa(lp19
F-36.58162307739258
aF235.2581024169922
aF3.823549509048462
aF-0.36961185932159424
aF0.3943012058734894
aF0.06662802398204803
aF6.150096893310547
aF-38.15568542480469
aF3.339674413204193
aF0.008994460105895996
aF-0.03502315282821655
aF-0.00846841186285019
aF14.083999633789062
aF-93.07026672363281
aF5.522991895675659
aF-0.007263928651809692
aF-0.08549600839614868
aF-0.025893695652484894
aF-1.7838058471679688
aF16.758895874023438
aF1.156356930732727
aF0.025252848863601685
aF0.015449702739715576
aF0.008956871926784515
aa(lp20
F-34.76873016357422
aF223.21368408203125
aF5.283633708953857
aF-0.3640281558036804
aF0.3849680423736572
aF0.062483444809913635
aF5.935337066650391
aF-37.518096923828125
aF3.9779610633850098
aF0.013326317071914673
aF-0.03304532170295715
aF-0.010431177914142609
aF14.03145980834961
aF-90.57257080078125
aF6.794059872627258
aF0.00927707552909851
aF-0.09490957856178284
aF-0.019920922815799713
aF-2.160785675048828
aF15.536376953125
aF1.1618622541427612
aF0.017375558614730835
aF0.02881893515586853
aF-0.0009414330124855042
aa(lp21
F-32.836849212646484
aF211.6828155517578
aF6.173131942749023
aF-0.357558935880661
aF0.37583720684051514
aF0.06005892902612686
aF5.823467254638672
aF-36.15594482421875
aF3.682986259460449
aF0.017116457223892212
aF-0.030440449714660645
aF-0.008655138313770294
aF14.035781860351562
aF-88.67344665527344
aF7.1630266308784485
aF0.020310282707214355
aF-0.08655142784118652
aF-0.017402201890945435
aF-2.3888473510742188
aF16.361557006835938
aF0.20294588804244995
aF0.013922631740570068
aF0.025670528411865234
aF9.192526340484619e-05
aa(lp22
F-31.040637969970703
aF200.6521453857422
aF7.266955852508545
aF-0.35083669424057007
aF0.366367906332016
aF0.06212560459971428
aF5.540985107421875
aF-34.60595703125
aF3.443406343460083
aF0.01877516508102417
aF-0.02793329954147339
aF-0.0045024193823337555
aF13.786827087402344
aF-85.80119323730469
aF7.612297296524048
aF0.027834147214889526
aF-0.07702967524528503
aF-0.017179396003484726
aF-2.7048568725585938
aF16.589279174804688
aF-0.7254846096038818
aF0.009716182947158813
aF0.021163076162338257
aF0.008174557238817215
aa(lp23
F-29.359607696533203
aF190.37606811523438
aF8.493490219116211
aF-0.34429875016212463
aF0.3594651520252228
aF0.06103796511888504
aF5.409122467041016
aF-32.837615966796875
aF3.2098565101623535
aF0.019729405641555786
aF-0.025502890348434448
aF-0.001445479691028595
aF13.372112274169922
aF-83.0377197265625
aF8.009615123271942
aF0.0343075692653656
aF-0.06985920667648315
aF-0.014058470726013184
aF-2.5538673400878906
aF17.36248779296875
aF-1.589902102947235
aF0.005151242017745972
aF0.018853425979614258
aF0.011167511343955994
aa(lp24
F-27.77899169921875
aF181.26336669921875
aF9.818185806274414
aF-0.3396742343902588
aF0.3596190810203552
aF0.053940657526254654
aF5.057857513427734
aF-30.419448852539062
aF3.6450538635253906
aF0.01788470149040222
aF-0.016218125820159912
aF-0.006118271499872208
aF12.92507553100586
aF-79.46841430664062
aF8.512513160705566
aF0.037680238485336304
aF-0.058394283056259155
aF-0.01897396519780159
aF-2.8093605041503906
aF18.6295166015625
aF-1.2224054336547852
aF-0.0019108355045318604
aF0.02595803141593933
aF0.006737422198057175
aa(lp25
F-26.209575653076172
aF172.80458068847656
aF11.444869995117188
aF-0.33560416102409363
aF0.3623979687690735
aF0.04652709886431694
aF4.831062316894531
aF-27.847564697265625
aF4.177914142608643
aF0.01523253321647644
aF-0.003969937562942505
aF-0.015598505735397339
aF12.450740814208984
aF-75.0341796875
aF8.954724311828613
aF0.039071232080459595
aF-0.043879687786102295
aF-0.022186968475580215
aF-2.788616180419922
aF19.33905029296875
aF-0.5988960266113281
aF-0.008606165647506714
aF0.035939812660217285
aF-0.009010042995214462
aa(lp26
F-24.739320755004883
aF164.9403533935547
aF13.041014671325684
aF-0.3312709629535675
aF0.36535772681236267
aF0.039881590753793716
aF4.62028694152832
aF-25.435714721679688
aF4.547524452209473
aF0.013027787208557129
aF0.005892574787139893
aF-0.021156374365091324
aF11.842302322387695
aF-70.3177490234375
aF9.217465162277222
aF0.03834089636802673
aF-0.02894347906112671
aF-0.026746433228254318
aF-2.6017284393310547
aF19.446319580078125
aF-0.12241625785827637
aF-0.012285321950912476
aF0.040728628635406494
aF-0.01556631550192833
aa(lp27
F-23.585338592529297
aF157.49708557128906
aF14.378005981445312
aF-0.3253408968448639
aF0.3638578951358795
aF0.03818802535533905
aF4.193653106689453
aF-23.766281127929688
aF4.559820175170898
aF0.014333337545394897
aF0.004238814115524292
aF-0.015752632170915604
aF11.183391571044922
aF-65.71659851074219
aF9.094372272491455
aF0.03868725895881653
aF-0.02111014723777771
aF-0.024295419454574585
aF-2.7960853576660156
aF18.184036254882812
aF0.025268077850341797
aF-0.010020583868026733
aF0.029587775468826294
aF-0.007209844887256622
aa(lp28
F-22.518423080444336
aF149.6884002685547
aF15.632956504821777
aF-0.30898043513298035
aF0.3636847734451294
aF0.04171668738126755
aF3.691152572631836
aF-23.116180419921875
aF4.18808650970459
aF0.02662372589111328
aF0.0012868046760559082
aF-0.004810411483049393
aF10.318426132202148
aF-61.994415283203125
aF9.459824562072754
aF0.048578500747680664
aF-0.012152433395385742
aF-0.018342241644859314
aF-2.9361209869384766
aF15.762054443359375
aF-1.0836515426635742
aF0.0046689510345458984
aF0.014726042747497559
aF0.008721418678760529
aa(lp29
F-21.6560001373291
aF142.49322509765625
aF16.842443466186523
aF-0.2926870286464691
aF0.359910249710083
aF0.04607139900326729
aF3.0833206176757812
aF-22.447128295898438
aF3.80142879486084
aF0.03858393430709839
aF-0.005447477102279663
aF0.006189808249473572
aF9.384637832641602
aF-58.15892028808594
aF9.575487613677979
aF0.05814966559410095
aF-0.006457656621932983
aF-0.01605420559644699
aF-3.217996597290039
aF13.264663696289062
aF-1.9726300239562988
aF0.019018203020095825
aF-0.004437297582626343
aF0.028433822095394135
aa(lp30
F-20.902013778686523
aF135.56280517578125
aF18.092056274414062
aF-0.2787030339241028
aF0.36088863015174866
aF0.04621938243508339
aF2.6833248138427734
aF-21.934280395507812
aF3.71405029296875
aF0.04663786292076111
aF-0.0029692649841308594
aF0.008031357079744339
aF8.45759391784668
aF-54.813262939453125
aF9.598566055297852
aF0.06559571623802185
aF0.001423478126525879
aF-0.014818582683801651
aF-3.090944290161133
aF10.9447021484375
aF-2.1704654693603516
aF0.027680009603500366
aF-0.007362008094787598
aF0.03088129684329033
aa.