(lp0
(lp1
F-55.31773376464844
aF466.3473815917969
aF-41.049652099609375
aF-0.35412490367889404
aF0.3138663172721863
aF0.1969529241323471
aF-1.1762199401855469
aF-6.344512939453125
aF-4.805870056152344
aF-0.013445258140563965
aF0.09155741333961487
aF-0.09906883537769318
aF-5.848079681396484
aF-4.803131103515625
aF-15.803678512573242
aF-0.024296492338180542
aF0.10904783010482788
aF-0.049612462520599365
aF3.4956398010253906
aF-7.885894775390625
aF6.191938400268555
aF-0.0025940239429473877
aF0.07406699657440186
aF-0.148525208234787
aa(lp2
F-55.116432189941406
aF459.9752502441406
aF-41.1290397644043
aF-0.35286304354667664
aF0.32293701171875
aF0.18517373502254486
aF-0.6921501159667969
aF-11.575592041015625
aF-3.513561248779297
aF-0.014958679676055908
aF0.09544369578361511
aF-0.09216488897800446
aF-4.143711090087891
aF-13.416778564453125
aF-13.498939514160156
aF-0.034033358097076416
aF0.14804168045520782
aF-0.0875769704580307
aF2.759410858154297
aF-9.734405517578125
aF6.4718170166015625
aF0.0041159987449646
aF0.0428457111120224
aF-0.09675280749797821
aa(lp3
F-54.63592529296875
aF451.35955810546875
aF-40.90694046020508
aF-0.3518471121788025
aF0.33417174220085144
aF0.18710041046142578
aF0.4760169982910156
aF-19.114532470703125
aF-0.5659408569335938
aF-0.010003596544265747
aF0.08296793699264526
aF-0.062004491686820984
aF-2.211395263671875
aF-23.2459716796875
aF-9.510360717773438
aF-0.028153330087661743
aF0.14190450310707092
aF-0.08190631866455078
aF3.1634292602539062
aF-14.98309326171875
aF8.37847900390625
aF0.008146136999130249
aF0.024031370878219604
aF-0.042102664709091187
aa(lp4
F-54.13775634765625
aF441.75177001953125
aF-39.13136291503906
aF-0.32043763995170593
aF0.30799299478530884
aF0.20723916590213776
aF1.1799774169921875
aF-24.595611572265625
aF1.9182891845703125
aF0.03368726372718811
aF-0.005873322486877441
aF0.01028624176979065
aF-0.5782279968261719
aF-32.692535400390625
aF-4.4623260498046875
aF0.018461912870407104
aF0.0818437784910202
aF-0.07117579877376556
aF2.938182830810547
aF-16.498687744140625
aF8.298904418945312
aF0.048912614583969116
aF-0.09359042346477509
aF0.09174828231334686
aa(lp5
F-53.493614196777344
aF430.40582275390625
aF-38.46076202392578
aF-0.3024297058582306
aF0.316920667886734
aF0.20621547102928162
aF1.6228179931640625
aF-29.569427490234375
aF2.6682777404785156
aF0.050433337688446045
aF-0.006016343832015991
aF0.021041736006736755
aF0.6478996276855469
aF-42.28607177734375
aF-2.21697998046875
aF0.03824993968009949
aF0.0946117639541626
aF-0.08980628848075867
aF2.597736358642578
aF-16.852783203125
aF7.553535461425781
aF0.0626167356967926
aF-0.10664445161819458
aF0.13188976049423218
aa(lp6
F-52.80695724487305
aF419.97235107421875
aF-37.918365478515625
aF-0.2901211380958557
aF0.32348498702049255
aF0.180886909365654
aF1.8289680480957031
aF-31.38720703125
aF2.988574981689453
aF0.06172597408294678
aF-0.010686755180358887
aF-0.0062135010957717896
aF1.6173248291015625
aF-51.5784912109375
aF-0.302886962890625
aF0.047783225774765015
aF0.09599167108535767
aF-0.09645171463489532
aF2.0406112670898438
aF-11.1959228515625
aF6.280036926269531
aF0.07566872239112854
aF-0.11736518144607544
aF0.08402471244335175
aa(lp7
F-51.20584487915039
aF407.8338928222656
aF-35.80314636230469
aF-0.28123071789741516
aF0.3187369704246521
aF0.1709587424993515
aF2.9319114685058594
aF-33.917877197265625
aF3.328216552734375
aF0.03920692205429077
aF0.010743975639343262
aF-0.036280423402786255
aF3.906097412109375
aF-62.64019775390625
aF4.537853240966797
aF0.06061279773712158
aF0.06753316521644592
aF-0.07814615964889526
aF1.9577255249023438
aF-5.195556640625
aF2.118579864501953
aF0.01780104637145996
aF-0.0460452139377594
aF0.005585312843322754
aa(lp8
F-49.59383010864258
aF396.5498046875
aF-33.737152099609375
aF-0.28533703088760376
aF0.30504852533340454
aF0.1602196991443634
aF3.8997840881347656
aF-33.85601806640625
aF4.723609924316406
aF0.01709267497062683
aF-0.011872142553329468
aF-0.04599577188491821
aF5.723903656005859
aF-69.79757690429688
aF7.3125
aF0.06878787279129028
aF-0.008817791938781738
aF-0.036733224987983704
aF2.075664520263672
aF2.085540771484375
aF2.1347198486328125
aF-0.03460252285003662
aF-0.014926493167877197
aF-0.05525831878185272
aa(lp9
F-48.06843185424805
aF385.2879638671875
aF-31.735410690307617
aF-0.29121673107147217
aF0.2871905565261841
aF0.14519000053405762
aF4.738525390625
aF-34.68438720703125
aF6.182954788208008
aF-0.001095592975616455
aF-0.03629443049430847
aF-0.035696908831596375
aF7.048000335693359
aF-74.68728637695312
aF9.39362907409668
aF0.06164631247520447
aF-0.03574645519256592
aF-0.039983734488487244
aF2.4290504455566406
aF5.318511962890625
aF2.972280502319336
aF-0.06383749842643738
aF-0.036842405796051025
aF-0.031410083174705505
aa(lp10
F-46.63222885131836
aF372.94970703125
aF-30.210081100463867
aF-0.299907386302948
aF0.27870112657546997
aF0.13070712983608246
aF4.573616027832031
aF-34.884185791015625
aF5.59306526184082
aF-0.018676668405532837
aF-0.04003584384918213
aF-0.04025161266326904
aF8.00369644165039
aF-78.40985107421875
aF10.696859359741211
aF0.05193972587585449
aF-0.05547061562538147
aF-0.05639328062534332
aF1.1435356140136719
aF8.6414794921875
aF0.4892711639404297
aF-0.08929306268692017
aF-0.024601072072982788
aF-0.024109944701194763
aa(lp11
F-45.22585678100586
aF360.4448547363281
aF-28.04110336303711
aF-0.3036110997200012
aF0.2641632854938507
aF0.13626086711883545
aF4.367973327636719
aF-36.104949951171875
aF5.696048736572266
aF-0.01827406883239746
aF-0.04088523983955383
aF-0.023958832025527954
aF8.91189956665039
aF-81.30691528320312
aF11.090259552001953
aF0.016826540231704712
aF-0.04382970929145813
aF-0.07097829878330231
aF-0.17595291137695312
aF9.097015380859375
aF0.3018379211425781
aF-0.053374677896499634
aF-0.037940770387649536
aF0.0230606347322464
aa(lp12
F-43.5788459777832
aF347.5219421386719
aF-25.631261825561523
aF-0.3056909143924713
aF0.24286596477031708
aF0.14273861050605774
aF4.489585876464844
aF-37.766021728515625
aF6.104148864746094
aF-0.014474183320999146
aF-0.044324591755867004
aF-0.002451390027999878
aF9.91476821899414
aF-82.88388061523438
aF12.829500198364258
aF-0.0032612085342407227
aF-0.07405470311641693
aF-0.06347686052322388
aF-0.9355964660644531
aF7.351837158203125
aF-0.6212024688720703
aF-0.02568715810775757
aF-0.014594480395317078
aF0.05857408046722412
aa(lp13
F-41.81447982788086
aF334.939697265625
aF-23.77358055114746
aF-0.3082553744316101
aF0.22539262473583221
aF0.13156664371490479
aF4.8177490234375
aF-38.010009765625
aF6.436500549316406
aF-0.00834798812866211
aF-0.053308501839637756
aF0.0008595138788223267
aF10.992477416992188
aF-85.03265380859375
aF14.144784927368164
aF-0.018134236335754395
aF-0.09809236228466034
aF-0.04932026565074921
aF-1.3569793701171875
aF9.01263427734375
aF-1.2717838287353516
aF0.0014382600784301758
aF-0.008524641394615173
aF0.05103929340839386
aa(lp14
F-39.86716842651367
aF322.4580993652344
aF-21.592864990234375
aF-0.299963116645813
aF0.1981528401374817
aF0.11626554280519485
aF5.3586883544921875
aF-37.98675537109375
aF6.448238372802734
aF0.0036479830741882324
aF-0.06601044535636902
aF-0.019995324313640594
aF11.338676452636719
aF-85.37579345703125
aF14.210281372070312
aF-0.018732398748397827
aF-0.12058413028717041
aF-0.05469319969415665
aF-0.6212997436523438
aF9.40228271484375
aF-1.3138046264648438
aF0.026028364896774292
aF-0.011436760425567627
aF0.014702551066875458
aa(lp15
F-37.943511962890625
aF309.2641296386719
aF-19.982955932617188
aF-0.2863316833972931
aF0.17934104800224304
aF0.10064054280519485
aF5.635334014892578
aF-38.2578125
aF5.648305892944336
aF0.019359230995178223
aF-0.06352491676807404
aF-0.042098067700862885
aF11.650318145751953
aF-87.28567504882812
aF13.754196166992188
aF-0.000994652509689331
aF-0.1257074773311615
aF-0.05957915633916855
aF-0.3796501159667969
aF10.770050048828125
aF-2.4575843811035156
aF0.039713114500045776
aF-0.0013423562049865723
aF-0.02461697906255722
aa(lp16
F-35.8232536315918
aF296.24151611328125
aF-18.04808235168457
aF-0.2707994282245636
aF0.16212043166160583
aF0.10587270557880402
aF5.9912261962890625
aF-38.69818115234375
aF5.725498199462891
aF0.03745594620704651
aF-0.06327219307422638
aF-0.02569393813610077
aF12.24517822265625
aF-89.04644775390625
aF13.687328338623047
aF0.02041730284690857
aF-0.12507012486457825
aF-0.0393172949552536
aF-0.262725830078125
aF11.65008544921875
aF-2.2363319396972656
aF0.05449458956718445
aF-0.0014742612838745117
aF-0.012070581316947937
aa(lp17
F-33.85451126098633
aF283.56103515625
aF-16.439687728881836
aF-0.2560867667198181
aF0.14459557831287384
aF0.11693085730075836
aF6.012657165527344
aF-38.897064208984375
aF5.153177261352539
aF0.04387634992599487
aF-0.05355726182460785
aF0.0006653144955635071
aF12.777717590332031
aF-89.388671875
aF13.770393371582031
aF0.04382061958312988
aF-0.13410554826259613
aF-0.013776272535324097
aF-0.7524032592773438
aF11.59454345703125
aF-3.464038848876953
aF0.04393208026885986
aF0.026991024613380432
aF0.01510690152645111
aa(lp18
F-32.07963562011719
aF270.9472961425781
aF-14.838057518005371
aF-0.24543268978595734
aF0.1328163892030716
aF0.11775226891040802
aF5.8638763427734375
aF-38.31683349609375
aF5.144898414611816
aF0.040898993611335754
aF-0.04652465879917145
aF0.017111726105213165
aF13.146221160888672
aF-89.49755859375
aF13.203045845031738
aF0.058178409934043884
aF-0.1313468962907791
aF-0.01850859820842743
aF-1.4184684753417969
aF12.8638916015625
aF-2.9132490158081055
aF0.023619577288627625
aF0.03829757869243622
aF0.05273205041885376
aa(lp19
F-30.462718963623047
aF258.4940185546875
aF-13.41650104522705
aF-0.22347991168498993
aF0.11943568289279938
aF0.12016955018043518
aF5.36053466796875
aF-37.74749755859375
aF4.6315813064575195
aF0.04731951653957367
aF-0.04268474876880646
aF0.014296844601631165
aF13.116127014160156
aF-89.02792358398438
aF12.214760780334473
aF0.08221100270748138
aF-0.1234302818775177
aF-0.02256906032562256
aF-2.3950576782226562
aF13.532928466796875
aF-2.9515981674194336
aF0.012428030371665955
aF0.038060784339904785
aF0.05116274952888489
aa(lp20
F-29.006418228149414
aF246.15281677246094
aF-12.037808418273926
aF-0.20251327753067017
aF0.10184793174266815
aF0.12489265948534012
aF4.848093032836914
aF-37.40821838378906
aF4.40187931060791
aF0.05357348918914795
aF-0.04274764657020569
aF0.007961802184581757
aF12.808061599731445
aF-88.78688049316406
aF11.735772132873535
aF0.10574209690093994
aF-0.12354469299316406
aF-0.006673984229564667
aF-3.111875534057617
aF13.970443725585938
aF-2.932013511657715
aF0.001404881477355957
aF0.038049399852752686
aF0.02259758859872818
aa(lp21
F-27.660076141357422
aF233.80905151367188
aF-10.609048843383789
aF-0.19375355541706085
aF0.08576430380344391
aF0.12289401888847351
aF4.419559478759766
aF-37.13824462890625
aF4.229008674621582
aF0.051679134368896484
aF-0.047052085399627686
aF0.005141749978065491
aF12.20709228515625
aF-88.6490478515625
aF10.983816146850586
aF0.10620956122875214
aF-0.11238853633403778
aF0.006628476083278656
aF-3.3679733276367188
aF14.37255859375
aF-2.525798797607422
aF-0.0028512924909591675
aF0.01828436553478241
aF0.0036550238728523254
aa(lp22
F-26.18074607849121
aF222.1082763671875
aF-8.789383888244629
aF-0.18621490895748138
aF0.07179735600948334
aF0.1228649839758873
aF4.281972885131836
aF-36.3857421875
aF4.627117156982422
aF0.037265002727508545
aF-0.04763832688331604
aF0.002695433795452118
aF11.762765884399414
aF-87.15585327148438
aF11.193572044372559
aF0.1001167744398117
aF-0.1075436919927597
aF0.022224441170692444
aF-3.198820114135742
aF14.384368896484375
aF-1.9393377304077148
aF-0.025586768984794617
aF0.012267038226127625
aF-0.016833573579788208
aa(lp23
F-24.64171600341797
aF210.87977600097656
aF-6.85943078994751
aF-0.18846626579761505
aF0.06307660788297653
aF0.1230640560388565
aF4.364702224731445
aF-35.273040771484375
aF5.178377628326416
aF0.014047011733055115
aF-0.03877132385969162
aF-0.001828603446483612
aF11.181537628173828
aF-85.36174011230469
aF11.18865156173706
aF0.08233316242694855
aF-0.0990438237786293
aF0.01719135046005249
aF-2.4521331787109375
aF14.815658569335938
aF-0.8318963050842285
aF-0.05423913896083832
aF0.021501176059246063
aF-0.020848557353019714
aa(lp24
F-23.17436408996582
aF200.08995056152344
aF-5.1140522956848145
aF-0.1898445188999176
aF0.05563918873667717
aF0.12470333278179169
aF4.485712051391602
aF-33.71910095214844
aF5.494996547698975
aF0.0039090365171432495
aF-0.03012511506676674
aF0.0018093138933181763
aF10.680147171020508
aF-83.47108459472656
aF11.325635433197021
aF0.06624224781990051
aF-0.08895638957619667
aF0.007772475481033325
aF-1.7087230682373047
aF16.032882690429688
aF-0.33564233779907227
aF-0.058424174785614014
aF0.028706159442663193
aF-0.004153847694396973
aa(lp25
F-21.677804946899414
aF189.50514221191406
aF-3.5831706523895264
aF-0.19093582034111023
aF0.0509844645857811
aF0.12529228627681732
aF4.502941131591797
aF-32.60313415527344
aF5.2062132358551025
aF-0.004720911383628845
aF-0.02081289142370224
aF0.002427302300930023
aF10.401830673217773
aF-81.44215393066406
aF11.254886865615845
aF0.05449686944484711
aF-0.0818319246172905
aF0.007540017366409302
aF-1.3959484100341797
aF16.235885620117188
aF-0.8424603939056396
aF-0.0639386922121048
aF0.04020614176988602
aF-0.0026854127645492554
aa(lp26
F-20.301111221313477
aF179.255126953125
aF-1.9603089094161987
aF-0.18447884917259216
aF0.049301669001579285
aF0.12523190677165985
aF4.340604782104492
aF-31.624649047851562
aF4.899121880531311
aF0.003987416625022888
aF-0.013774938881397247
aF0.0021678507328033447
aF10.16160774230957
aF-79.2388916015625
aF11.456192135810852
aF0.039001062512397766
aF-0.07013401389122009
aF0.00506235659122467
aF-1.480398178100586
aF15.989593505859375
aF-1.65794837474823
aF-0.03102622926235199
aF0.0425841361284256
aF-0.000726655125617981
aa(lp27
F-19.07937240600586
aF169.5869903564453
aF-0.1933322697877884
aF-0.17732565104961395
aF0.04540494829416275
aF0.12482346594333649
aF4.094991683959961
aF-30.502960205078125
aF4.920720025897026
aF0.01251886785030365
aF-0.01023424044251442
aF0.0001201331615447998
aF9.927045822143555
aF-76.56582641601562
aF11.844476148486137
aF0.025187626481056213
aF-0.0564429834485054
aF-6.919354200363159e-05
aF-1.7370624542236328
aF15.559906005859375
aF-2.0030360966920853
aF-0.00014989078044891357
aF0.03597450256347656
aF0.0003094598650932312
aa(lp28
F-18.036115646362305
aF161.10789489746094
aF1.4338486194610596
aF-0.17087511718273163
aF0.048018187284469604
aF0.12087927758693695
aF3.6416893005371094
aF-28.397247314453125
aF5.017019271850586
aF0.0200607031583786
aF-0.002966277301311493
aF-0.004413008689880371
aF9.623960494995117
aF-72.70115661621094
aF12.042897462844849
aF0.022878438234329224
aF-0.037746116518974304
aF-0.00201474130153656
aF-2.3405818939208984
aF15.906661987304688
aF-2.0088589191436768
aF0.01724296808242798
aF0.03181356191635132
aF-0.006811276078224182
aa(lp29
F-16.919214248657227
aF152.578369140625
aF2.838254451751709
aF-0.16485020518302917
aF0.055289242416620255
aF0.11341679841279984
aF3.38189697265625
aF-26.6767578125
aF4.798563361167908
aF0.01962864398956299
aF0.00598757341504097
aF-0.011815108358860016
aF9.261531829833984
aF-69.5299072265625
aF11.627638339996338
aF0.02136470377445221
aF-0.016508113592863083
aF-0.009448185563087463
aF-2.4977378845214844
aF16.1763916015625
aF-2.0305116176605225
aF0.017892584204673767
aF0.028483260422945023
aF-0.014182031154632568
aa(lp30
F-15.763504981994629
aF144.11062622070312
aF4.3882012367248535
aF-0.15810702741146088
aF0.05990772321820259
aF0.11393357068300247
aF3.3158674240112305
aF-25.476364135742188
aF4.581533506512642
aF0.019218623638153076
aF0.01450277492403984
aF-0.010889895260334015
aF8.87821102142334
aF-66.76914978027344
aF11.247632026672363
aF0.030359238386154175
aF-0.003168884664773941
aF-0.009130485355854034
aF-2.246476173400879
aF15.816421508789062
aF-2.0845650136470795
aF0.008078008890151978
aF0.03217443451285362
aF-0.012649305164813995
aa.