(lp0
(lp1
F-31.142105102539062
aF524.2741088867188
aF66.04183959960938
aF-0.35881420969963074
aF0.6083289980888367
aF0.12016921490430832
aF1.0692863464355469
aF-3.7528076171875
aF-1.226776123046875
aF-0.12523095309734344
aF0.08113837242126465
aF-0.027846165001392365
aF1.0265083312988281
aF2.89300537109375
aF-1.841400146484375
aF-0.08894920349121094
aF0.09608638286590576
aF-0.021270044147968292
aF1.1120643615722656
aF-10.39862060546875
aF-0.612152099609375
aF-0.16151270270347595
aF0.06619036197662354
aF-0.03442228585481644
aa(lp2
F-31.4903507232666
aF518.9744262695312
aF64.8087387084961
aF-0.45826712250709534
aF0.6139180064201355
aF0.10014038532972336
aF1.1041507720947266
aF-11.20416259765625
aF-0.79046630859375
aF-0.23890924453735352
aF0.058774352073669434
aF-0.0030181631445884705
aF0.8383121490478516
aF-4.6419677734375
aF-3.127197265625
aF-0.22452595829963684
aF0.12148833274841309
aF-0.03140176087617874
aF1.3699893951416016
aF-17.766357421875
aF1.5462646484375
aF-0.2532925307750702
aF-0.003939628601074219
aF0.0253654345870018
aa(lp3
F-30.392202377319336
aF511.3385314941406
aF68.42562866210938
aF-0.5555409789085388
aF0.6543939709663391
aF0.15012070536613464
aF1.4802913665771484
aF-15.080047607421875
aF3.4412078857421875
aF-0.36248186230659485
aF0.09482783079147339
aF0.08235867321491241
aF1.7741107940673828
aF-13.175933837890625
aF-0.6245651245117188
aF-0.3386315107345581
aF0.21729624271392822
aF0.03291236609220505
aF1.186471939086914
aF-16.984161376953125
aF7.506980895996094
aF-0.3863322138786316
aF-0.027640581130981445
aF0.13180498033761978
aa(lp4
F-29.94207000732422
aF499.9202880859375
aF69.71137237548828
aF-0.6085610389709473
aF0.6680774092674255
aF0.17666344344615936
aF1.2000350952148438
aF-24.35382080078125
aF3.6695327758789062
aF-0.24974682927131653
aF0.05974841117858887
aF0.056494228541851044
aF2.1691017150878906
aF-26.25433349609375
aF0.672210693359375
aF-0.3841681480407715
aF0.16131794452667236
aF0.06793738156557083
aF0.23096847534179688
aF-22.45330810546875
aF6.6668548583984375
aF-0.11532551050186157
aF-0.04182112216949463
aF0.045051075518131256
aa(lp5
F-29.713035583496094
aF488.06494140625
aF69.39193725585938
aF-0.6174026727676392
aF0.6565002202987671
aF0.19353364408016205
aF1.7773151397705078
aF-30.90948486328125
aF4.583198547363281
aF-0.15913555026054382
aF0.04258221387863159
aF0.09339325875043869
aF2.4983558654785156
aF-39.96197509765625
aF2.123321533203125
aF-0.38381941616535187
aF0.12930959463119507
aF0.045518264174461365
aF1.0562744140625
aF-21.85699462890625
aF7.0430755615234375
aF0.06554831564426422
aF-0.044145166873931885
aF0.14126825332641602
aa(lp6
F-29.282066345214844
aF471.900390625
aF69.22386932373047
aF-0.6231765151023865
aF0.669004499912262
aF0.20135073363780975
aF1.1101360321044922
aF-39.438140869140625
aF0.7982406616210938
aF-0.06763553619384766
aF0.014610528945922852
aF0.05123002827167511
aF3.3124351501464844
aF-58.2781982421875
aF3.624664306640625
aF-0.40381863713264465
aF0.1138608455657959
aF0.09819218516349792
aF-1.0921630859375
aF-20.59808349609375
aF-2.0281829833984375
aF0.26854756474494934
aF-0.0846397876739502
aF0.004267871379852295
aa(lp7
F-28.751222610473633
aF454.3523254394531
aF68.40533447265625
aF-0.6175878643989563
aF0.6787310838699341
aF0.20392611622810364
aF1.190847396850586
aF-45.567962646484375
aF-1.3060379028320312
aF-0.009026825428009033
aF0.010653674602508545
aF0.027262672781944275
aF3.1212711334228516
aF-72.06625366210938
aF3.4209136962890625
aF-0.42452874779701233
aF0.11916494369506836
aF0.1361640840768814
aF-0.7395763397216797
aF-19.069671630859375
aF-6.032989501953125
aF0.40647509694099426
aF-0.09785759449005127
aF-0.08163873851299286
aa(lp8
F-27.82131576538086
aF435.5152893066406
aF67.0864028930664
aF-0.6014235615730286
aF0.6773899793624878
aF0.2074434757232666
aF1.8917198181152344
aF-52.549652099609375
aF-2.3055343627929688
aF0.015979111194610596
aF0.020889759063720703
aF0.013909831643104553
aF3.320789337158203
aF-88.75881958007812
aF1.0445632934570312
aF-0.24260935187339783
aF0.06906098127365112
aF0.08727426081895828
aF0.4626502990722656
aF-16.340484619140625
aF-5.655632019042969
aF0.274567574262619
aF-0.027281463146209717
aF-0.059454597532749176
aa(lp9
F-26.366086959838867
aF416.6539611816406
aF66.30555725097656
aF-0.5884451866149902
aF0.6765996217727661
aF0.19699496030807495
aF2.9159793853759766
aF-55.246429443359375
aF-2.9183120727539062
aF0.03473132848739624
aF0.00759512186050415
aF-0.004355773329734802
aF5.124263763427734
aF-102.32046508789062
aF1.4968185424804688
aF-0.1301780641078949
aF0.06268161535263062
aF0.09685457497835159
aF0.7076950073242188
aF-8.172393798828125
aF-7.333442687988281
aF0.19964072108268738
aF-0.047491371631622314
aF-0.1055661216378212
aa(lp10
F-24.68422508239746
aF399.9991455078125
aF63.90728759765625
aF-0.5308824777603149
aF0.6823754906654358
aF0.1882140189409256
aF4.066997528076172
aF-54.353179931640625
aF-4.498046875
aF0.08670538663864136
aF0.003644406795501709
aF-0.01571209728717804
aF5.707977294921875
aF-111.33938598632812
aF-4.518341064453125
aF0.024658501148223877
aF0.02798151969909668
aF0.038093313574790955
aF2.4260177612304688
aF2.633026123046875
aF-4.477752685546875
aF0.14875227212905884
aF-0.02069270610809326
aF-0.06951750814914703
aa(lp11
F-22.481082916259766
aF383.00079345703125
aF61.35101318359375
aF-0.493990421295166
aF0.6731134653091431
aF0.18102991580963135
aF5.340232849121094
aF-52.514495849609375
aF-5.735389709472656
aF0.10743314027786255
aF-0.0042765140533447266
aF-0.026413559913635254
aF7.460987091064453
aF-116.91949462890625
aF-8.360359191894531
aF0.11457061767578125
aF0.005036056041717529
aF0.004366472363471985
aF3.2194786071777344
aF11.8905029296875
aF-3.1104202270507812
aF0.10029566287994385
aF-0.013589084148406982
aF-0.05719359219074249
aa(lp12
F-20.09223175048828
aF365.9449768066406
aF59.39732360839844
aF-0.4719943106174469
aF0.6586917042732239
aF0.16114284098148346
aF6.273855209350586
aF-50.708984375
aF-6.908233642578125
aF0.11645087599754333
aF-0.017907917499542236
aF-0.03585211932659149
aF9.620803833007812
aF-122.11996459960938
aF-9.994613647460938
aF0.14540836215019226
aF0.002191483974456787
aF-0.03239080309867859
aF2.9269065856933594
aF20.701995849609375
aF-3.8218536376953125
aF0.08749338984489441
aF-0.03800731897354126
aF-0.039313435554504395
aa(lp13
F-17.638713836669922
aF349.8251647949219
aF56.570343017578125
aF-0.45935294032096863
aF0.6426590085029602
aF0.1429343819618225
aF7.045511245727539
aF-50.173980712890625
aF-7.336944580078125
aF0.07152953743934631
aF-0.039716482162475586
aF-0.04527963697910309
aF11.643352508544922
aF-122.07522583007812
aF-12.653526306152344
aF0.16382357478141785
aF-0.026345491409301758
aF-0.058416351675987244
aF2.4476699829101562
aF21.727264404296875
aF-2.0203628540039062
aF-0.02076449990272522
aF-0.053087472915649414
aF-0.03214292228221893
aa(lp14
F-15.31255054473877
aF334.2059020996094
aF54.31251525878906
aF-0.45279988646507263
aF0.636157214641571
aF0.12467319518327713
aF7.168532371520996
aF-48.794891357421875
aF-7.0384979248046875
aF0.041190534830093384
aF-0.03695625066757202
aF-0.05635672062635422
aF13.438672065734863
aF-120.14642333984375
aF-14.092819213867188
aF0.16478797793388367
aF-0.04257386922836304
aF-0.07925292104482651
aF0.8983926773071289
aF22.556640625
aF0.0158233642578125
aF-0.0824069082736969
aF-0.031338632106781006
aF-0.03346052020788193
aa(lp15
F-12.788481712341309
aF319.0005187988281
aF52.050804138183594
aF-0.4437817335128784
aF0.6255826354026794
aF0.11520206928253174
aF7.303750038146973
aF-46.9444580078125
aF-7.346519470214844
aF0.02821257710456848
aF-0.033109068870544434
aF-0.04594077169895172
aF15.03283405303955
aF-116.5147705078125
aF-15.035598754882812
aF0.15764182806015015
aF-0.05180734395980835
aF-0.09224140644073486
aF-0.42533397674560547
aF22.6258544921875
aF0.342559814453125
aF-0.10121667385101318
aF-0.014410793781280518
aF0.0003598630428314209
aa(lp16
F-10.408534049987793
aF304.431884765625
aF49.854793548583984
aF-0.43259212374687195
aF0.6039419770240784
aF0.10640144348144531
aF7.230179786682129
aF-45.393280029296875
aF-6.715549468994141
aF0.02676081657409668
aF-0.038717031478881836
aF-0.0365329384803772
aF15.957552909851074
aF-112.22207641601562
aF-16.450763702392578
aF0.1558530628681183
aF-0.07265764474868774
aF-0.09059351682662964
aF-1.4971933364868164
aF21.435516357421875
aF3.019664764404297
aF-0.10233142971992493
aF-0.004776418209075928
aF0.017527639865875244
aa(lp17
F-8.069643020629883
aF290.2630615234375
aF47.86939239501953
aF-0.4269281327724457
aF0.5941234230995178
aF0.09847980737686157
aF7.242907524108887
aF-43.942840576171875
aF-6.443122863769531
aF0.025871753692626953
aF-0.04203379154205322
aF-0.026193387806415558
aF16.614582061767578
aF-109.736083984375
aF-16.03789520263672
aF0.10395434498786926
aF-0.08825206756591797
aF-0.08973421156406403
aF-2.1287670135498047
aF21.85040283203125
aF3.1516494750976562
aF-0.052210837602615356
aF0.0041844844818115234
aF0.03734743595123291
aa(lp18
F-5.882566928863525
aF276.8762512207031
aF46.04176712036133
aF-0.4186241924762726
aF0.5798170566558838
aF0.0948440209031105
aF6.905914783477783
aF-42.124267578125
aF-6.009037017822266
aF0.025157541036605835
aF-0.045765578746795654
aF-0.020358048379421234
aF16.59851598739624
aF-106.12454223632812
aF-15.309246063232422
aF0.07536622881889343
aF-0.09329640865325928
aF-0.08618589490652084
aF-2.786686420440674
aF21.876007080078125
aF3.2911720275878906
aF-0.025051146745681763
aF0.0017652511596679688
aF0.045469798147678375
aa(lp19
F-3.85845947265625
aF263.5198059082031
aF44.95988082885742
aF-0.4084319472312927
aF0.5636462569236755
aF0.09093574434518814
aF6.550074577331543
aF-40.912078857421875
aF-4.8949127197265625
aF0.024160176515579224
aF-0.04029572010040283
aF-0.015465699136257172
aF16.23377227783203
aF-102.4251708984375
aF-14.437442779541016
aF0.06356236338615417
aF-0.09504544734954834
aF-0.07020709663629532
aF-3.1336231231689453
aF20.60101318359375
aF4.647617340087891
aF-0.015242010354995728
aF0.014454007148742676
aF0.039275698363780975
aa(lp20
F-2.0716817378997803
aF250.4458770751953
aF43.86638259887695
aF-0.39632904529571533
aF0.5476433038711548
aF0.08524776995182037
aF5.9979612827301025
aF-39.81718444824219
aF-4.003009796142578
aF0.030599087476730347
aF-0.04648011922836304
aF-0.013232037425041199
aF15.567032098770142
aF-99.37928771972656
aF-12.703960418701172
aF0.0630238950252533
aF-0.09501570463180542
aF-0.057686612010002136
aF-3.5711095333099365
aF19.744918823242188
aF4.697940826416016
aF-0.0018257200717926025
aF0.0020554661750793457
aF0.03122253715991974
aa(lp21
F-0.49752020835876465
aF237.7151641845703
aF42.61487579345703
aF-0.3810880482196808
aF0.5317898392677307
aF0.08712545782327652
aF5.385046720504761
aF-39.16108703613281
aF-3.426891326904297
aF0.0375361442565918
aF-0.048027217388153076
aF-0.007718563079833984
aF14.815030336380005
aF-96.49073791503906
aF-11.697639465332031
aF0.07171183824539185
aF-0.10436737537384033
aF-0.03754773736000061
aF-4.044936895370483
aF18.168563842773438
aF4.8438568115234375
aF0.003360450267791748
aF0.00831294059753418
aF0.02211061120033264
aa(lp22
F0.9946220517158508
aF225.60133361816406
aF42.06868362426758
aF-0.36661088466644287
aF0.5171618461608887
aF0.08879145234823227
aF4.853081524372101
aF-37.91847229003906
aF-2.8911972045898438
aF0.041821062564849854
aF-0.046484410762786865
aF-0.0021442919969558716
aF13.78310376405716
aF-93.39918518066406
aF-9.982120513916016
aF0.07717084884643555
aF-0.10842078924179077
aF-0.02641061693429947
aF-4.076940715312958
aF17.562240600585938
aF4.199726104736328
aF0.00647127628326416
aF0.015451967716217041
aF0.022122032940387726
aa(lp23
F2.356609582901001
aF214.2159423828125
aF41.466487884521484
aF-0.35261061787605286
aF0.503246009349823
aF0.09184830635786057
aF4.428291320800781
aF-36.22993469238281
aF-2.3998947143554688
aF0.043718427419662476
aF-0.04439729452133179
aF0.006600536406040192
aF12.765143632888794
aF-90.2159423828125
aF-8.3883056640625
aF0.07998150587081909
aF-0.10069596767425537
aF-0.014553137123584747
aF-3.9085609912872314
aF17.756072998046875
aF3.5885162353515625
aF0.007455348968505859
aF0.011901378631591797
aF0.02775420993566513
aa(lp24
F3.524109363555908
aF203.18565368652344
aF41.13032150268555
aF-0.3387216627597809
aF0.48836567997932434
aF0.09847428649663925
aF4.021629571914673
aF-34.529510498046875
aF-1.4845542907714844
aF0.0423663854598999
aF-0.04342415928840637
aF0.011348828673362732
aF11.593752384185791
aF-87.07740783691406
aF-6.739070892333984
aF0.0882064700126648
aF-0.10575774312019348
aF-5.520880222320557e-06
aF-3.5504932403564453
aF18.018386840820312
aF3.7699623107910156
aF-0.0034736990928649902
aF0.018909424543380737
aF0.022703178226947784
aa(lp25
F4.460839748382568
aF193.13128662109375
aF40.719696044921875
aF-0.32575228810310364
aF0.47498655319213867
aF0.10577011108398438
aF3.4662176966667175
aF-32.47004699707031
aF-1.3489875793457031
aF0.04085859656333923
aF-0.04217529296875
aF0.016978658735752106
aF10.343406677246094
aF-83.74496459960938
aF-5.322071075439453
aF0.09287190437316895
aF-0.10483050346374512
aF0.01092609018087387
aF-3.4109712839126587
aF18.80487060546875
aF2.624095916748047
aF-0.011154711246490479
aF0.020479917526245117
aF0.02303122729063034
aa(lp26
F5.225078582763672
aF183.44598388671875
aF40.83122253417969
aF-0.3137490451335907
aF0.4608229100704193
aF0.1110740378499031
aF2.868468999862671
aF-30.76995849609375
aF-0.6352653503417969
aF0.03886157274246216
aF-0.042423099279403687
aF0.01922573149204254
aF9.083538055419922
aF-80.07382202148438
aF-4.128658294677734
aF0.09468290209770203
aF-0.10282334685325623
aF0.020138293504714966
aF-3.34660005569458
aF18.533905029296875
aF2.8581275939941406
aF-0.01695975661277771
aF0.017977148294448853
aF0.018313169479370117
aa(lp27
F5.776426315307617
aF174.50042724609375
aF41.080265045166016
aF-0.302766352891922
aF0.44768884778022766
aF0.11449448764324188
aF2.252316951751709
aF-28.685226440429688
aF-0.05005645751953125
aF0.03595530986785889
aF-0.04067683219909668
aF0.01602020114660263
aF7.8481080532073975
aF-75.94544982910156
aF-2.7861175537109375
aF0.09356269240379333
aF-0.09995445609092712
aF0.02924671769142151
aF-3.3434741497039795
aF18.574996948242188
aF2.686004638671875
aF-0.02165207266807556
aF0.018600791692733765
aF0.0027936846017837524
aa(lp28
F6.125306129455566
aF166.2228546142578
aF41.438411712646484
aF-0.29405713081359863
aF0.43941715359687805
aF0.11606788635253906
aF1.664466381072998
aF-26.908432006835938
aF0.7187156677246094
aF0.031695157289505005
aF-0.03556939959526062
aF0.010297775268554688
aF6.622826337814331
aF-71.4923095703125
aF-1.1764640808105469
aF0.08703091740608215
aF-0.09237268567085266
aF0.028942428529262543
aF-3.293893575668335
aF17.675445556640625
aF2.6138954162597656
aF-0.023640602827072144
aF0.02123388648033142
aF-0.008346877992153168
aa(lp29
F6.430612087249756
aF158.23876953125
aF41.81772994995117
aF-0.28586307168006897
aF0.4324701130390167
aF0.11844488233327866
aF1.205533504486084
aF-25.20721435546875
aF0.9865074157714844
aF0.02788597345352173
aF-0.028352797031402588
aF0.007370844483375549
aF5.435990035533905
aF-67.36256408691406
aF-0.25095367431640625
aF0.0807478129863739
aF-0.08469173312187195
aF0.029653429985046387
aF-3.024923026561737
aF16.948135375976562
aF2.223968505859375
aF-0.024975866079330444
aF0.027986139059066772
aF-0.014911741018295288
aa(lp30
F6.71539831161499
aF150.8247833251953
aF42.12973403930664
aF-0.2777822017669678
aF0.42628949880599976
aF0.11995351314544678
aF0.938971996307373
aF-23.675643920898438
aF1.049468994140625
aF0.024984151124954224
aF-0.021399348974227905
aF0.005459025502204895
aF4.358788728713989
aF-63.39115905761719
aF0.6632461547851562
aF0.07482841610908508
aF-0.07695651054382324
aF0.028105206787586212
aF-2.480844736099243
aF16.039871215820312
aF1.4356918334960938
aF-0.024860113859176636
aF0.03415781259536743
aF-0.017187155783176422
aa.