(lp0
(lp1
F-48.28907775878906
aF400.88848876953125
aF31.996623992919922
aF-0.5246001482009888
aF0.5055551528930664
aF0.1582939773797989
aF-3.0057945251464844
aF-16.594024658203125
aF-6.053375244140625
aF-0.3177296072244644
aF0.018239617347717285
aF0.041571229696273804
aF-8.636886596679688
aF-13.6749267578125
aF-16.001117706298828
aF-0.2781875878572464
aF0.0639575719833374
aF0.12073766067624092
aF2.6252975463867188
aF-19.51312255859375
aF3.894367218017578
aF-0.35727162659168243
aF-0.027478337287902832
aF-0.037595201283693314
aa(lp2
F-49.39864730834961
aF392.0931091308594
aF31.238012313842773
aF-0.5836840867996216
aF0.49834033846855164
aF0.161092609167099
aF-3.6720962524414062
aF-24.095458984375
aF-5.641996383666992
aF-0.24604204297065735
aF-0.018291324377059937
aF0.044972240924835205
aF-7.532936096191406
aF-24.803466796875
aF-13.116842269897461
aF-0.35011596977710724
aF0.027710258960723877
aF0.1253681220114231
aF0.18874359130859375
aF-23.387451171875
aF1.8328495025634766
aF-0.14196811616420746
aF-0.06429290771484375
aF-0.0354236401617527
aa(lp3
F-50.78045654296875
aF382.8111877441406
aF31.323890686035156
aF-0.6331724524497986
aF0.5079022645950317
aF0.15458941459655762
aF-3.808856964111328
aF-26.21002197265625
aF-2.9660110473632812
aF-0.18027740716934204
aF-0.021506190299987793
aF0.023003295063972473
aF-7.664966583251953
aF-34.701141357421875
aF-11.345935821533203
aF-0.4216848909854889
aF0.05755740404129028
aF0.0792594626545906
aF0.047252655029296875
aF-17.718902587890625
aF5.413913726806641
aF0.06113007664680481
aF-0.10056978464126587
aF-0.03325287252664566
aa(lp4
F-52.5777473449707
aF373.29815673828125
aF30.888750076293945
aF-0.671509325504303
aF0.5108597278594971
aF0.1670212596654892
aF-4.288669586181641
aF-27.59033203125
aF-1.1078739166259766
aF-0.1469091773033142
aF0.005304574966430664
aF0.008727282285690308
aF-8.138416290283203
aF-44.7557373046875
aF-9.541608810424805
aF-0.46289290487766266
aF0.05538308620452881
aF0.0648009330034256
aF-0.4389228820800781
aF-10.4249267578125
aF7.325860977172852
aF0.16907455027103424
aF-0.04477393627166748
aF-0.04734636843204498
aa(lp5
F-54.275211334228516
aF363.1173400878906
aF30.705503463745117
aF-0.6205471158027649
aF0.5380085706710815
aF0.1591593474149704
aF-4.876564025878906
aF-28.97576904296875
aF-0.5325088500976562
aF-0.03686302900314331
aF0.03966823220252991
aF-0.001933261752128601
aF-8.991928100585938
aF-54.36517333984375
aF-7.34449577331543
aF-0.41367657482624054
aF0.05069303512573242
aF0.04243659973144531
aF-0.761199951171875
aF-3.58636474609375
aF6.279478073120117
aF0.3399505168199539
aF0.028643429279327393
aF-0.046303123235702515
aa(lp6
F-55.16510772705078
aF353.8062744140625
aF30.865877151489258
aF-0.5781779885292053
aF0.5565946102142334
aF0.15329642593860626
aF-4.384651184082031
aF-29.004913330078125
aF-0.45801353454589844
aF0.05499446392059326
aF0.04869234561920166
aF-0.001292988657951355
aF-9.438556671142578
aF-62.382293701171875
aF-6.014131546020508
aF-0.2405359447002411
aF0.039962947368621826
aF0.03717605769634247
aF0.6692543029785156
aF4.372467041015625
aF5.098104476928711
aF0.3505248725414276
aF0.057421743869781494
aF-0.03976203501224518
aa(lp7
F-55.28164291381836
aF343.4725341796875
aF31.18092155456543
aF-0.5331554412841797
aF0.5408838987350464
aF0.16138821840286255
aF-2.7038955688476562
aF-29.82562255859375
aF0.2921714782714844
aF0.1383538842201233
aF0.030024170875549316
aF-0.005633041262626648
aF-8.310043334960938
aF-65.54867553710938
aF-3.108980178833008
aF-0.08026039600372314
aF0.011475443840026855
aF0.029802098870277405
aF2.902252197265625
aF5.897430419921875
aF3.6933231353759766
aF0.3569681644439697
aF0.04857289791107178
aF-0.0410681813955307
aa(lp8
F-54.84280776977539
aF332.3958740234375
aF30.13509750366211
aF-0.5050771236419678
aF0.5352378487586975
aF0.163201242685318
aF-0.567596435546875
aF-30.721466064453125
aF-0.5704059600830078
aF0.11546999216079712
aF-0.002770721912384033
aF0.004041895270347595
aF-6.553730010986328
aF-68.49261474609375
aF-1.8615264892578125
aF0.019523024559020996
aF0.029682695865631104
aF0.004907265305519104
aF5.418537139892578
aF7.0496826171875
aF0.7207145690917969
aF0.21141695976257324
aF-0.03522413969039917
aF0.0031765252351760864
aa(lp9
F-53.828121185302734
aF321.1944885253906
aF28.84351921081543
aF-0.4672425091266632
aF0.5369822978973389
aF0.16232548654079437
aF1.3369865417480469
aF-32.611785888671875
aF-2.022357940673828
aF0.11093547940254211
aF-0.01961231231689453
aF0.00902906060218811
aF-4.429473876953125
aF-70.89862060546875
aF-2.3944931030273438
aF0.11644157767295837
aF0.03864195942878723
aF0.0012328773736953735
aF7.103446960449219
aF5.675048828125
aF-1.6502227783203125
aF0.10542938113212585
aF-0.0778665840625763
aF0.016825243830680847
aa(lp10
F-52.69556427001953
aF310.6371154785156
aF27.329687118530273
aF-0.4390834867954254
aF0.540079653263092
aF0.1484181135892868
aF2.586078643798828
aF-32.835418701171875
aF-3.8512344360351562
aF0.09407195448875427
aF-0.0008042454719543457
aF-0.012970104813575745
aF-1.9151077270507812
aF-72.174072265625
aF-3.994203567504883
aF0.19408896565437317
aF0.0321773886680603
aF-0.006171301007270813
aF7.0872650146484375
aF6.50323486328125
aF-3.7082653045654297
aF-0.005945056676864624
aF-0.033785879611968994
aF-0.019768908619880676
aa(lp11
F-51.41679763793945
aF299.13360595703125
aF26.11166000366211
aF-0.4317344129085541
aF0.5347152352333069
aF0.14497816562652588
aF3.4260101318359375
aF-33.26226806640625
aF-4.0234375
aF0.0733427107334137
aF-0.000522613525390625
aF-0.018223077058792114
aF1.16094970703125
aF-74.16455078125
aF-4.777090072631836
aF0.2397749125957489
aF0.023855507373809814
aF-0.022043094038963318
aF5.691070556640625
aF7.6400146484375
aF-3.269784927368164
aF-0.09308949112892151
aF-0.024900734424591064
aF-0.01440306007862091
aa(lp12
F-50.479000091552734
aF287.3766784667969
aF24.930286407470703
aF-0.4174458980560303
aF0.5180783867835999
aF0.14486663043498993
aF3.34912109375
aF-33.81781005859375
aF-3.9132328033447266
aF0.049796611070632935
aF-0.018903911113739014
aF-0.017458856105804443
aF3.7962112426757812
aF-75.74066162109375
aF-5.775217056274414
aF0.20310121774673462
aF-0.01993018388748169
aF-0.014292716979980469
aF2.9020309448242188
aF8.10504150390625
aF-2.051248550415039
aF-0.10350799560546875
aF-0.017877638339996338
aF-0.020624995231628418
aa(lp13
F-49.76197052001953
aF275.708740234375
aF24.11393165588379
aF-0.4012432098388672
aF0.49846941232681274
aF0.14994995296001434
aF2.93359375
aF-34.928375244140625
aF-3.2157554626464844
aF0.03784027695655823
aF-0.0416102409362793
aF0.001531839370727539
aF5.40313720703125
aF-78.0975341796875
aF-6.751945495605469
aF0.17693477869033813
aF-0.058125197887420654
aF-0.003346472978591919
aF0.46405029296875
aF8.24078369140625
aF0.3204345703125
aF-0.10125422477722168
aF-0.02509528398513794
aF0.006410151720046997
aa(lp14
F-49.15702819824219
aF263.60711669921875
aF23.298524856567383
aF-0.3911496102809906
aF0.48856356739997864
aF0.14232242107391357
aF2.2597694396972656
aF-35.5264892578125
aF-2.8131351470947266
aF0.04058480262756348
aF-0.04615166783332825
aF-0.0026557445526123047
aF6.124614715576172
aF-79.86541748046875
aF-7.882396697998047
aF0.1420058310031891
aF-0.05232033133506775
aF-0.019065797328948975
aF-1.6050758361816406
aF8.81243896484375
aF2.2561264038085938
aF-0.060836225748062134
aF-0.039983004331588745
aF0.013754308223724365
aa(lp15
F-48.463565826416016
aF251.71435546875
aF23.226884841918945
aF-0.37981972098350525
aF0.47324931621551514
aF0.14247354865074158
aF2.0154342651367188
aF-35.662322998046875
aF-1.7034015655517578
aF0.037626177072525024
aF-0.04482907056808472
aF-0.002393081784248352
aF6.379241943359375
aF-80.6815185546875
aF-6.908212661743164
aF0.12525740265846252
aF-0.06198853254318237
aF-0.020727694034576416
aF-2.3483734130859375
aF9.35687255859375
aF3.5014095306396484
aF-0.050005048513412476
aF-0.02766960859298706
aF0.015941530466079712
aa(lp16
F-47.62556076049805
aF240.7360076904297
aF23.1591739654541
aF-0.37076738476753235
aF0.46323201060295105
aF0.14059561491012573
aF2.1364097595214844
aF-34.97273254394531
aF-0.9547576904296875
aF0.03047582507133484
aF-0.035237401723861694
aF-0.00935433804988861
aF6.2025604248046875
aF-80.45848083496094
aF-5.684345245361328
aF0.09647512435913086
aF-0.07375028729438782
aF-0.02172987163066864
aF-1.9297409057617188
aF10.513015747070312
aF3.774829864501953
aF-0.03552347421646118
aF0.0032754838466644287
aF0.0030211955308914185
aa(lp17
F-46.82689666748047
aF230.34390258789062
aF23.024751663208008
aF-0.3629401922225952
aF0.45605170726776123
aF0.14520840346813202
aF2.3301315307617188
aF-33.263214111328125
aF-0.273773193359375
aF0.028209418058395386
aF-0.03251186013221741
aF0.002885982394218445
aF5.8686676025390625
aF-80.293212890625
aF-4.304935455322266
aF0.0761432945728302
aF-0.08402794599533081
aF-0.003209710121154785
aF-1.208404541015625
aF13.76678466796875
aF3.7573890686035156
aF-0.01972445845603943
aF0.019004225730895996
aF0.008981674909591675
aa(lp18
F-46.20414733886719
aF220.5184326171875
aF23.11021614074707
aF-0.35653331875801086
aF0.4516508877277374
aF0.14635832607746124
aF2.259418487548828
aF-31.1959228515625
aF-0.116668701171875
aF0.023286402225494385
aF-0.02159842848777771
aF0.0038847774267196655
aF5.212650299072266
aF-78.61517333984375
aF-3.001443862915039
aF0.07520109415054321
aF-0.08306434750556946
aF0.0013801604509353638
aF-0.6938133239746094
aF16.22332763671875
aF2.768106460571289
aF-0.028628289699554443
aF0.03986749053001404
aF0.006389394402503967
aa(lp19
F-45.78947067260742
aF211.11660766601562
aF23.14415740966797
aF-0.35103070735931396
aF0.44849804043769836
aF0.14456623792648315
aF1.836090087890625
aF-29.619400024414062
aF-0.015016555786132812
aF0.019736677408218384
aF-0.014733970165252686
aF0.003970623016357422
aF4.6895294189453125
aF-76.26007080078125
aF-1.7861289978027344
aF0.06641519069671631
aF-0.06958034634590149
aF-0.0003003925085067749
aF-1.0173492431640625
aF17.021270751953125
aF1.7560958862304688
aF-0.02694183588027954
aF0.04011240601539612
aF0.008241638541221619
aa(lp20
F-45.1724853515625
aF201.9998321533203
aF23.857942581176758
aF-0.3453291356563568
aF0.44559159874916077
aF0.14140036702156067
aF1.6544113159179688
aF-28.344070434570312
aF0.83319091796875
aF0.017611056566238403
aF-0.010460108518600464
aF-0.00380803644657135
aF4.589485168457031
aF-73.70890808105469
aF-0.25598907470703125
aF0.055914074182510376
aF-0.05287781357765198
aF-0.008549585938453674
aF-1.2806625366210938
aF17.020767211914062
aF1.9223709106445312
aF-0.02069196105003357
aF0.03195759654045105
aF0.0009335130453109741
aa(lp21
F-44.228179931640625
aF192.7185516357422
aF24.634489059448242
aF-0.3380987048149109
aF0.4370645582675934
aF0.14331306517124176
aF1.9759674072265625
aF-27.799880981445312
aF1.5242729187011719
aF0.018434613943099976
aF-0.014586329460144043
aF-0.0030452609062194824
aF4.9288482666015625
aF-70.88856506347656
aF1.3359642028808594
aF0.05305090546607971
aF-0.051499009132385254
aF0.000990644097328186
aF-0.9769134521484375
aF15.288803100585938
aF1.7125816345214844
aF-0.01618167757987976
aF0.022326350212097168
aF-0.007081165909767151
aa(lp22
F-43.21110916137695
aF184.1978302001953
aF25.043554306030273
aF-0.3323529064655304
aF0.42951273918151855
aF0.14714831113815308
aF2.5783615112304688
aF-26.918777465820312
aF1.8993968963623047
aF0.01867780089378357
aF-0.01898530125617981
aF0.002582073211669922
aF5.2524566650390625
aF-67.51652526855469
aF1.8166694641113281
aF0.047466814517974854
aF-0.04373657703399658
aF0.004674762487411499
aF-0.095733642578125
aF13.678970336914062
aF1.9821243286132812
aF-0.010111212730407715
aF0.005765974521636963
aF0.0004893839359283447
aa(lp23
F-42.08894348144531
aF176.06358337402344
aF25.331483840942383
aF-0.32785752415657043
aF0.4238923192024231
aF0.1453571617603302
aF3.0835418701171875
aF-25.936248779296875
aF1.473541259765625
aF0.017471611499786377
aF-0.02169927954673767
aF0.003956794738769531
aF5.536617279052734
aF-64.67242431640625
aF2.1723098754882812
aF0.042909860610961914
aF-0.039339691400527954
aF0.004761546850204468
aF0.6304664611816406
aF12.7999267578125
aF0.7747726440429688
aF-0.00796663761138916
aF-0.004058867692947388
aF0.0031520426273345947
aa(lp24
F-40.9936637878418
aF168.0377197265625
aF25.555519104003906
aF-0.3230256140232086
aF0.4182831048965454
aF0.14531244337558746
aF3.234516143798828
aF-24.680831909179688
aF0.9210300445556641
aF0.01507309079170227
aF-0.018781453371047974
aF0.001999378204345703
aF5.833232879638672
aF-62.306182861328125
aF2.5307674407958984
aF0.0399145781993866
aF-0.03776860237121582
aF0.00010403990745544434
aF0.6357994079589844
aF12.94451904296875
aF-0.6887073516845703
aF-0.009768396615982056
aF0.00020569562911987305
aF0.003894716501235962
aa(lp25
F-40.027198791503906
aF160.79803466796875
aF25.598594665527344
aF-0.3197685182094574
aF0.4163234829902649
aF0.149006649851799
aF3.183910369873047
aF-23.399795532226562
aF0.5550403594970703
aF0.012584388256072998
aF-0.013189256191253662
aF0.001858338713645935
aF6.176948547363281
aF-59.72039794921875
aF2.4883785247802734
aF0.03676480054855347
aF-0.035327404737472534
aF0.0026483237743377686
aF0.1908721923828125
aF12.920806884765625
aF-1.3782978057861328
aF-0.01159602403640747
aF0.00894889235496521
aF0.0010683536529541016
aa(lp26
F-39.26930618286133
aF153.87908935546875
aF25.62960433959961
aF-0.31719130277633667
aF0.4167252480983734
aF0.14622101187705994
aF2.8196372985839844
aF-22.184494018554688
aF0.29812049865722656
aF0.010666221380233765
aF-0.007167071104049683
aF0.0008638501167297363
aF6.520164489746094
aF-57.237518310546875
aF2.4854469299316406
aF0.033839404582977295
aF-0.03177279233932495
aF0.0016547739505767822
aF-0.880889892578125
aF12.8685302734375
aF-1.8892059326171875
aF-0.012506961822509766
aF0.017438650131225586
aF7.292628288269043e-05
aa(lp27
F-38.51777648925781
aF147.5830841064453
aF25.478046417236328
aF-0.31379762291908264
aF0.41394880414009094
aF0.15409943461418152
aF2.4758872985839844
aF-20.454635620117188
aF-0.07747268676757812
aF0.009227991104125977
aF-0.004334300756454468
aF0.008786991238594055
aF6.6547088623046875
aF-54.416748046875
aF1.6201038360595703
aF0.03153151273727417
aF-0.031642794609069824
aF0.01269906759262085
aF-1.7029342651367188
aF13.507476806640625
aF-1.7750492095947266
aF-0.013075530529022217
aF0.02297419309616089
aF0.004874914884567261
aa(lp28
F-37.698280334472656
aF141.58018493652344
aF25.30488395690918
aF-0.31002938747406006
aF0.410705029964447
aF0.15849389135837555
aF2.32891845703125
aF-19.217849731445312
aF-0.29371070861816406
aF0.009739130735397339
aF-0.005618453025817871
aF0.009487241506576538
aF6.529899597167969
aF-51.13836669921875
aF0.6703948974609375
aF0.02806931734085083
aF-0.026359528303146362
aF0.015180826187133789
aF-1.8720626831054688
aF12.702667236328125
aF-1.2578163146972656
aF-0.008591055870056152
aF0.01512262225151062
aF0.003793656826019287
aa(lp29
F-36.799110412597656
aF135.8164520263672
aF25.212326049804688
aF-0.30581599473953247
aF0.4106014668941498
aF0.1664096862077713
aF2.470195770263672
aF-18.062637329101562
aF-0.4172782897949219
aF0.0113753080368042
aF-0.006123781204223633
aF0.020188674330711365
aF6.411998748779297
aF-48.381378173828125
aF0.16877174377441406
aF0.026536911725997925
aF-0.018911272287368774
aF0.019261375069618225
aF-1.4716072082519531
aF12.256103515625
aF-1.0033283233642578
aF-0.0037862956523895264
aF0.006663709878921509
aF0.021115973591804504
aa(lp30
F-36.150291442871094
aF130.51673889160156
aF25.151382446289062
aF-0.30125749111175537
aF0.4098939001560211
aF0.16957755386829376
aF2.3674850463867188
aF-17.06634521484375
aF-0.3266639709472656
aF0.01254013180732727
aF-0.004054903984069824
aF0.015478119254112244
aF5.938652038574219
aF-45.546844482421875
aF-0.1801013946533203
aF0.026600033044815063
aF-0.013998419046401978
aF0.024220392107963562
aF-1.2036819458007812
aF11.414154052734375
aF-0.47322654724121094
aF-0.0015197694301605225
aF0.005888611078262329
aF0.006735846400260925
aa.