(lp0
(lp1
F-51.41239929199219
aF500.9027404785156
aF31.47781753540039
aF-0.19638635218143463
aF0.541141927242279
aF0.2973634600639343
aF-2.373889923095703
aF-11.665618896484375
aF-5.118904113769531
aF0.0853644460439682
aF0.07014533877372742
aF0.08582201600074768
aF-9.284629821777344
aF8.1243896484375
aF-14.719135284423828
aF0.1203242689371109
aF0.10369551181793213
aF0.1537517011165619
aF4.5368499755859375
aF-31.45562744140625
aF4.481327056884766
aF0.0504046231508255
aF0.036595165729522705
aF0.01789233088493347
aa(lp2
F-51.730987548828125
aF495.7817077636719
aF31.33022117614746
aF-0.14603981375694275
aF0.5362531542778015
aF0.27583926916122437
aF-1.4763107299804688
aF-17.171966552734375
aF-2.346261978149414
aF0.19325187802314758
aF0.037146180868148804
aF0.01503986120223999
aF-7.9672088623046875
aF-3.686065673828125
aF-13.273836135864258
aF0.14761009812355042
aF0.11017104983329773
aF0.08845168352127075
aF5.01458740234375
aF-30.657867431640625
aF8.58131217956543
aF0.23889365792274475
aF-0.03587868809700012
aF-0.05837196111679077
aa(lp3
F-51.75145721435547
aF488.705322265625
aF29.020811080932617
aF-0.11056441813707352
aF0.5629932880401611
aF0.3012996315956116
aF-0.832366943359375
aF-20.31097412109375
aF-2.7186279296875
aF0.22759487479925156
aF0.05531048774719238
aF-0.007453441619873047
aF-6.338909149169922
aF-16.2503662109375
aF-13.882711410522461
aF0.2125154659152031
aF0.0662788450717926
aF0.16255107522010803
aF4.674175262451172
aF-24.37158203125
aF8.445455551147461
aF0.24267428368330002
aF0.04434213042259216
aF-0.17745795845985413
aa(lp4
F-52.67241668701172
aF479.5053405761719
aF29.11783790588379
aF-0.041031867265701294
aF0.5113331079483032
aF0.30782264471054077
aF-1.2600173950195312
aF-21.39739990234375
aF-2.3599796295166016
aF0.15535448491573334
aF-0.02980881929397583
aF0.010459184646606445
aF-5.985721588134766
aF-28.308380126953125
aF-11.156713485717773
aF0.2569921016693115
aF0.05383843183517456
aF0.11838066577911377
aF3.465686798095703
aF-14.486419677734375
aF6.43675422668457
aF0.05371686816215515
aF-0.11345607042312622
aF-0.09746229648590088
aa(lp5
F-52.86665725708008
aF470.39532470703125
aF27.551088333129883
aF-0.014335556887090206
aF0.5389829277992249
aF0.3084516227245331
aF-1.1356697082519531
aF-25.386383056640625
aF-3.779132843017578
aF0.13170425686985254
aF0.00272977352142334
aF0.032612353563308716
aF-3.8281478881835938
aF-42.17303466796875
aF-9.045633316040039
aF0.2674152413383126
aF0.06798633933067322
aF0.09691017866134644
aF1.5568084716796875
aF-8.5997314453125
aF1.4873676300048828
aF-0.00400672759860754
aF-0.06252679228782654
aF-0.031685471534729004
aa(lp6
F-52.84197235107422
aF462.59136962890625
aF25.666473388671875
aF-0.06770050525665283
aF0.5212751626968384
aF0.26695722341537476
aF-1.09051513671875
aF-26.11395263671875
aF-3.354337692260742
aF0.042863912880420685
aF-0.041718125343322754
aF-0.034342408180236816
aF-2.5872955322265625
aF-50.3623046875
aF-8.010009765625
aF0.2715911865234375
aF0.02216818928718567
aF0.006157815456390381
aF0.4062652587890625
aF-1.8656005859375
aF1.3013343811035156
aF-0.18586336076259613
aF-0.10560443997383118
aF-0.07484263181686401
aa(lp7
F-52.278114318847656
aF453.0658264160156
aF25.91124725341797
aF-0.1365194469690323
aF0.4733653664588928
aF0.23879165947437286
aF0.3943023681640625
aF-26.43951416015625
aF-3.2065906524658203
aF-0.095487579703331
aF-0.0379677414894104
aF-0.06903098523616791
aF-1.3590240478515625
aF-55.950469970703125
aF-5.828191757202148
aF0.20163984596729279
aF-0.03431743383407593
aF-0.06996141374111176
aF2.1476287841796875
aF3.071441650390625
aF-0.5849895477294922
aF-0.3926150053739548
aF-0.04161804914474487
aF-0.06810055673122406
aa(lp8
F-51.69906997680664
aF438.7250061035156
aF25.228979110717773
aF-0.18500281870365143
aF0.4211854934692383
aF0.19847294688224792
aF1.1675872802734375
aF-31.670318603515625
aF-2.3221092224121094
aF-0.17066726181656122
aF-0.11779743432998657
aF-0.10997867584228516
aF-0.2866706848144531
aF-62.177734375
aF-6.248838424682617
aF0.011383533477783203
aF-0.11995643377304077
aF-0.0988905131816864
aF2.621845245361328
aF-1.16290283203125
aF1.6046199798583984
aF-0.35271805711090565
aF-0.11563843488693237
aF-0.12106683850288391
aa(lp9
F-51.03862380981445
aF424.7013854980469
aF25.929380416870117
aF-0.21873235702514648
aF0.4095054864883423
aF0.1906789392232895
aF1.8033485412597656
aF-37.889984130859375
aF0.2629070281982422
aF-0.15103185176849365
aF-0.1117696762084961
aF-0.07627828419208527
aF0.6923637390136719
aF-71.080322265625
aF-5.400840759277344
aF-0.07269254326820374
aF-0.12674766778945923
aF-0.08516032993793488
aF2.9143333435058594
aF-4.69964599609375
aF5.926654815673828
aF-0.22937116026878357
aF-0.09679168462753296
aF-0.06739623844623566
aa(lp10
F-50.57024383544922
aF410.14764404296875
aF26.1446590423584
aF-0.2378178983926773
aF0.40457475185394287
aF0.19746196269989014
aF1.7078704833984375
aF-42.918182373046875
aF0.2334117889404297
aF-0.10129845142364502
aF-0.06879061460494995
aF-0.04132969677448273
aF1.18121337890625
aF-78.55767822265625
aF-2.8761520385742188
aF-0.1272534802556038
aF-0.15841853618621826
aF-0.10383766889572144
aF2.234527587890625
aF-7.2786865234375
aF3.342975616455078
aF-0.07534342259168625
aF0.02083730697631836
aF0.02117827534675598
aa(lp11
F-50.0410041809082
aF395.0820007324219
aF26.21926498413086
aF-0.25362929701805115
aF0.398499995470047
aF0.18621601164340973
aF1.6580657958984375
aF-43.64300537109375
aF0.9902858734130859
aF-0.06862647831439972
aF-0.022685497999191284
aF-0.012256935238838196
aF2.6314125061035156
aF-84.42333984375
aF-2.8985729217529297
aF-0.21259742975234985
aF-0.11283311247825623
aF-0.12160663306713104
aF0.6847190856933594
aF-2.8626708984375
aF4.879144668579102
aF0.07534447312355042
aF0.06746211647987366
aF0.09709276258945465
aa(lp12
F-49.398414611816406
aF380.52447509765625
aF26.24107551574707
aF-0.26488301157951355
aF0.3958297371864319
aF0.18567590415477753
aF1.6402091979980469
aF-44.176910400390625
aF0.3116950988769531
aF-0.046150654554367065
aF-0.0136757493019104
aF-0.005003035068511963
aF3.468242645263672
aF-89.870849609375
aF-1.3100128173828125
aF-0.25054745469242334
aF-0.14315319061279297
aF-0.12277571856975555
aF-0.18782424926757812
aF1.51702880859375
aF1.9334030151367188
aF0.1582461455836892
aF0.11580169200897217
aF0.11276964843273163
aa(lp13
F-48.51072692871094
aF365.0011291503906
aF26.32367515563965
aF-0.28275033831596375
aF0.39528048038482666
aF0.18022455275058746
aF2.0595169067382812
aF-45.146514892578125
aF0.17901611328125
aF-0.04493243992328644
aF-0.009294271469116211
aF-0.017237409949302673
aF4.331245422363281
aF-97.59024047851562
aF0.6572017669677734
aF-0.2150498330593109
aF-0.12599468231201172
aF-0.08673267066478729
aF-0.21221160888671875
aF7.297210693359375
aF-0.29916954040527344
aF0.12518495321273804
aF0.1074061393737793
aF0.052257850766181946
aa(lp14
F-47.055419921875
aF349.0917053222656
aF26.76909637451172
aF-0.30593177676200867
aF0.3817649483680725
aF0.17937791347503662
aF2.985584259033203
aF-45.99029541015625
aF0.5498313903808594
aF-0.05230247974395752
aF-0.016735047101974487
aF-0.006838098168373108
aF5.222694396972656
aF-103.97412109375
aF0.85784912109375
aF-0.16941232979297638
aF-0.09160041809082031
aF-0.05941374599933624
aF0.74847412109375
aF11.9935302734375
aF0.24181365966796875
aF0.06480737030506134
aF0.05813032388687134
aF0.04573754966259003
aa(lp15
F-45.7161979675293
aF334.06976318359375
aF26.686758041381836
aF-0.3365575075149536
aF0.36244964599609375
aF0.15784907341003418
aF3.6822166442871094
aF-46.4547119140625
aF0.4456825256347656
aF-0.07167449593544006
aF-0.033380091190338135
aF-0.027826830744743347
aF5.982872009277344
aF-104.65524291992188
aF1.4577789306640625
aF-0.15155468881130219
aF-0.05873584747314453
aF-0.040623873472213745
aF1.381561279296875
aF11.745819091796875
aF-0.5664138793945312
aF0.008205696940422058
aF-0.008024334907531738
aF-0.01502978801727295
aa(lp16
F-44.45654296875
aF319.5869140625
aF25.916231155395508
aF-0.36412695050239563
aF0.36261844635009766
aF0.14746339619159698
aF4.0541839599609375
aF-45.414215087890625
aF-0.4074440002441406
aF-0.08137661218643188
aF-0.032662034034729004
aF-0.03276115655899048
aF6.582080841064453
aF-105.11447143554688
aF-0.013149261474609375
aF-0.14539459347724915
aF-0.04688704013824463
aF-0.043215543031692505
aF1.5262870788574219
aF14.286041259765625
aF-0.8017387390136719
aF-0.017358630895614624
aF-0.01843702793121338
aF-0.022306770086288452
aa(lp17
F-43.25010299682617
aF305.6915283203125
aF25.397741317749023
aF-0.3850977420806885
aF0.3627626895904541
aF0.14503926038742065
aF3.805316925048828
aF-43.400177001953125
aF-1.3713550567626953
aF-0.07916596531867981
aF-0.019002258777618408
aF-0.03433865308761597
aF7.320140838623047
aF-104.45611572265625
aF-0.746917724609375
aF-0.14727984368801117
aF-0.04181206226348877
aF-0.05242270231246948
aF0.2904930114746094
aF17.65576171875
aF-1.9957923889160156
aF-0.01105208694934845
aF0.003807544708251953
aF-0.01625460386276245
aa(lp18
F-41.70856475830078
aF291.8807373046875
aF26.099721908569336
aF-0.40352171659469604
aF0.36100414395332336
aF0.13551460206508636
aF4.007633209228516
aF-42.18902587890625
aF-0.5870361328125
aF-0.06696420907974243
aF-0.0014455020427703857
aF-0.022334471344947815
aF8.332439422607422
aF-103.20126342773438
aF-0.11954307556152344
aF-0.1498924195766449
aF-0.03749585151672363
aF-0.050701409578323364
aF-0.3171730041503906
aF18.823211669921875
aF-1.0545291900634766
aF0.015964001417160034
aF0.03460484743118286
aF0.006032466888427734
aa(lp19
F-40.403656005859375
aF278.6363830566406
aF26.531749725341797
aF-0.4131447970867157
aF0.3539541959762573
aF0.13357514142990112
aF4.052886962890625
aF-40.950531005859375
aF0.6155185699462891
aF-0.04901784658432007
aF-0.008664250373840332
aF-0.013888254761695862
aF8.994758605957031
aF-101.88809204101562
aF0.29067420959472656
aF-0.14826178550720215
aF-0.04187554121017456
aF-0.052100762724876404
aF-0.8889846801757812
aF19.987030029296875
aF0.9403629302978516
aF0.05022609233856201
aF0.024547040462493896
aF0.02432425320148468
aa(lp20
F-39.18204879760742
aF266.09844970703125
aF27.142499923706055
aF-0.41968250274658203
aF0.3452305197715759
aF0.13493585586547852
aF4.06805419921875
aF-39.59307861328125
aF1.7447586059570312
aF-0.034584760665893555
aF-0.017532169818878174
aF-0.010103404521942139
aF9.328678131103516
aF-98.90267944335938
aF0.8188247680664062
aF-0.1369321644306183
aF-0.05004996061325073
aF-0.04528869688510895
aF-1.1925697326660156
aF19.716522216796875
aF2.6706924438476562
aF0.06776264309883118
aF0.014985620975494385
aF0.02508188784122467
aa(lp21
F-37.93736267089844
aF253.81105041503906
aF28.284255981445312
aF-0.42369675636291504
aF0.33532971143722534
aF0.13388769328594208
aF3.7712020874023438
aF-38.06968688964844
aF2.1845340728759766
aF-0.020175039768218994
aF-0.025674432516098022
aF-0.0016269087791442871
aF9.118057250976562
aF-95.28065490722656
aF1.5151596069335938
aF-0.11776497960090637
aF-0.04643523693084717
aF-0.04549022018909454
aF-1.575653076171875
aF19.141281127929688
aF2.8539085388183594
aF0.07741490006446838
aF-0.004913628101348877
aF0.04223640263080597
aa(lp22
F-36.85179901123047
aF242.50804138183594
aF29.320890426635742
aF-0.4288440942764282
aF0.332692414522171
aF0.12322768568992615
aF3.5518569946289062
aF-36.12834167480469
aF2.7891407012939453
aF-0.015699297189712524
aF-0.021261781454086304
aF-0.010347455739974976
aF8.864398956298828
aF-91.56172180175781
aF2.6341323852539062
aF-0.09228658676147461
aF-0.02975723147392273
aF-0.03462138772010803
aF-1.7606849670410156
aF19.305038452148438
aF2.9441490173339844
aF0.06088799238204956
aF-0.012766331434249878
aF0.013926476240158081
aa(lp23
F-36.062843322753906
aF231.88824462890625
aF29.988595962524414
aF-0.42391860485076904
aF0.3279406428337097
aF0.11458563804626465
aF3.1192054748535156
aF-34.210205078125
aF2.8460960388183594
aF-0.004236102104187012
aF-0.01728987693786621
aF-0.020350217819213867
aF8.393699645996094
aF-87.69866943359375
aF4.072364807128906
aF-0.05979165434837341
aF-0.03467780351638794
aF-0.032877758145332336
aF-2.1552886962890625
aF19.27825927734375
aF1.6198272705078125
aF0.05131945013999939
aF9.804964065551758e-05
aF-0.007822677493095398
aa(lp24
F-35.2744026184082
aF221.98046875
aF31.1291561126709
aF-0.41829732060432434
aF0.3225882053375244
aF0.10911030322313309
aF2.6629600524902344
aF-31.830581665039062
aF2.844900131225586
aF0.005399435758590698
aF-0.012741506099700928
aF-0.02477739006280899
aF7.975700378417969
aF-83.7110595703125
aF5.731414794921875
aF-0.033199578523635864
aF-0.04017448425292969
aF-0.03592895716428757
aF-2.6497802734375
aF20.049896240234375
aF-0.041614532470703125
aF0.04399845004081726
aF0.014691472053527832
aF-0.013625822961330414
aa(lp25
F-34.62049102783203
aF212.2157745361328
aF32.27700424194336
aF-0.4115844666957855
aF0.31694021821022034
aF0.11183426529169083
aF2.2313079833984375
aF-30.292266845703125
aF2.956113815307617
aF0.0172596275806427
aF-0.015752196311950684
aF-0.011393420398235321
aF7.08807373046875
aF-79.66496276855469
aF6.177282333374023
aF-0.008062750101089478
aF-0.04406392574310303
aF-0.02368033677339554
aF-2.625457763671875
aF19.080429077148438
aF-0.26505470275878906
aF0.04258200526237488
aF0.01255953311920166
aF0.0008934959769248962
aa(lp26
F-34.00300598144531
aF202.6389923095703
aF33.60205078125
aF-0.4047366678714752
aF0.3121303915977478
aF0.11617390066385269
aF2.0598373413085938
aF-29.249252319335938
aF3.613454818725586
aF0.019181936979293823
aF-0.015810251235961914
aF0.0015882626175880432
aF6.4006500244140625
aF-75.99739074707031
aF7.070301055908203
aF0.008408129215240479
aF-0.04182380437850952
aF-0.01740124076604843
aF-2.280975341796875
aF17.498886108398438
aF0.15660858154296875
aF0.029955744743347168
aF0.010203301906585693
aF0.020577766001224518
aa(lp27
F-33.531219482421875
aF193.3250732421875
aF34.84436798095703
aF-0.3998478353023529
aF0.3108120858669281
aF0.11164344102144241
aF1.7431831359863281
aF-28.6553955078125
aF3.715211868286133
aF0.018449485301971436
aF-0.011776119470596313
aF0.002533137798309326
aF5.650829315185547
aF-72.77337646484375
aF7.701868057250977
aF0.019834667444229126
aF-0.03441843390464783
aF-0.023292414844036102
aF-2.1644630432128906
aF15.46258544921875
aF-0.27144432067871094
aF0.017064303159713745
aF0.0108661949634552
aF0.028358690440654755
aa(lp28
F-32.9952392578125
aF184.3740234375
aF36.11972427368164
aF-0.39660340547561646
aF0.311203271150589
aF0.10442893207073212
aF1.6252517700195312
aF-27.841751098632812
aF3.8427200317382812
aF0.014981061220169067
aF-0.005736947059631348
aF-0.00740533322095871
aF4.9421234130859375
aF-69.43702697753906
aF7.835468292236328
aF0.027093350887298584
aF-0.024126440286636353
aF-0.02945876121520996
aF-1.691619873046875
aF13.753524780273438
aF-0.15002822875976562
aF0.0028687715530395508
aF0.012652546167373657
aF0.014648094773292542
aa(lp29
F-32.2945556640625
aF175.42355346679688
aF37.14430236816406
aF-0.39304548501968384
aF0.30977553129196167
aF0.10031677782535553
aF1.7084503173828125
aF-27.215438842773438
aF3.5422515869140625
aF0.011691182851791382
aF-0.002354860305786133
aF-0.015857122838497162
aF4.557243347167969
aF-67.08448791503906
aF7.82341194152832
aF0.035798609256744385
aF-0.02291688323020935
aF-0.022910907864570618
aF-1.1403427124023438
aF12.653610229492188
aF-0.7389087677001953
aF-0.012416243553161621
aF0.018207162618637085
aF-0.008803337812423706
aa(lp30
F-31.35277557373047
aF166.66786193847656
aF37.87869644165039
aF-0.3888304829597473
aF0.30796706676483154
aF0.10365696996450424
aF2.1784439086914062
aF-26.657211303710938
aF3.0343284606933594
aF0.01101735234260559
aF-0.0028450191020965576
aF-0.007986471056938171
aF4.7100677490234375
aF-65.22038269042969
aF7.890100479125977
aF0.03508812189102173
aF-0.019973576068878174
aF-0.010928668081760406
aF-0.353179931640625
aF11.905960083007812
aF-1.8214435577392578
aF-0.013053417205810547
aF0.014283537864685059
aF-0.005044274032115936
aa.