(lp0
(lp1
F-10.423212051391602
aF435.6549987792969
aF25.98566246032715
aF-0.36477768421173096
aF0.4443138837814331
aF0.14345203340053558
aF1.5904321670532227
aF-12.09771728515625
aF-0.05669403076171875
aF0.013018637895584106
aF0.05359369516372681
aF-0.08447904884815216
aF4.567462921142578
aF-12.91558837890625
aF-0.6699199676513672
aF0.08005261421203613
aF0.007889658212661743
aF-0.06744679808616638
aF-1.3865985870361328
aF-11.27984619140625
aF0.5565319061279297
aF-0.05401533842086792
aF0.09929773211479187
aF-0.10151129961013794
aa(lp2
F-9.523691177368164
aF428.6427307128906
aF24.908132553100586
aF-0.37029069662094116
aF0.4930780827999115
aF0.14471763372421265
aF2.1328954696655273
aF-17.466522216796875
aF-1.3829402923583984
aF-0.0026350319385528564
aF0.11194941401481628
aF-0.05855286121368408
aF4.559258460998535
aF-21.710540771484375
aF-1.4699745178222656
aF0.05536288022994995
aF0.061593443155288696
aF-0.0720292180776596
aF-0.29346752166748047
aF-13.222503662109375
aF-1.2959060668945312
aF-0.060632944107055664
aF0.16230538487434387
aF-0.04507650434970856
aa(lp3
F-8.916866302490234
aF420.4493408203125
aF23.023040771484375
aF-0.37121301889419556
aF0.5320708751678467
aF0.1351805031299591
aF2.271648406982422
aF-21.619476318359375
aF-2.7688560485839844
aF-0.0037617385387420654
aF0.11513149738311768
aF-0.03260087966918945
aF4.426692008972168
aF-29.803009033203125
aF-3.1433029174804688
aF0.03404659032821655
aF0.10323655605316162
aF-0.07648292183876038
aF0.11660480499267578
aF-13.435943603515625
aF-2.3944091796875
aF-0.041570067405700684
aF0.12702643871307373
aF0.01128116250038147
aa(lp4
F-7.673765659332275
aF406.9609069824219
aF22.733366012573242
aF-0.37115478515625
aF0.5635732412338257
aF0.11492042988538742
aF2.749446392059326
aF-28.694091796875
aF-3.2522964477539062
aF-0.006377100944519043
aF0.11925935745239258
aF-0.028531603515148163
aF5.019507884979248
aF-42.8406982421875
aF-2.807252883911133
aF0.017622530460357666
aF0.14647981524467468
aF-0.1259026750922203
aF0.4793848991394043
aF-14.5474853515625
aF-3.6973400115966797
aF-0.030376732349395752
aF0.09203889966011047
aF0.06883946806192398
aa(lp5
F-6.438570499420166
aF391.4112243652344
aF23.34630012512207
aF-0.36232423782348633
aF0.569720983505249
aF0.0972876027226448
aF3.085120677947998
aF-37.23150634765625
aF-1.5618324279785156
aF0.007966458797454834
aF0.07664290070533752
aF-0.04743003100156784
aF5.575073719024658
aF-56.34149169921875
aF-2.696056365966797
aF0.015472084283828735
aF0.17900079488754272
aF-0.13064347952604294
aF0.5951676368713379
aF-18.12152099609375
aF-0.4276084899902344
aF0.0004608333110809326
aF-0.025714993476867676
aF0.03578341752290726
aa(lp6
F-5.459860324859619
aF376.70330810546875
aF22.4942569732666
aF-0.3565540313720703
aF0.5958138108253479
aF0.06966815888881683
aF3.4570059776306152
aF-43.74603271484375
aF-0.5287837982177734
aF0.014658987522125244
aF0.06374293565750122
aF-0.06551234424114227
aF6.196726322174072
aF-69.40594482421875
aF-3.796815872192383
aF0.011101633310317993
aF0.21468514204025269
aF-0.1336023360490799
aF0.7172856330871582
aF-18.08612060546875
aF2.739248275756836
aF0.018216341733932495
aF-0.08719927072525024
aF0.002577647566795349
aa(lp7
F-3.9406278133392334
aF361.4441833496094
aF23.051687240600586
aF-0.3477005660533905
aF0.5980319380760193
aF0.04898521304130554
aF3.733137845993042
aF-45.5167236328125
aF0.31832122802734375
aF0.023454219102859497
aF0.034458696842193604
aF-0.06593521684408188
aF7.247886896133423
aF-80.6246337890625
aF-2.7402095794677734
aF0.01975071430206299
aF0.18109256029129028
aF-0.11879616975784302
aF0.21838879585266113
aF-10.4088134765625
aF3.376852035522461
aF0.027157723903656006
aF-0.11217516660690308
aF-0.01307426393032074
aa(lp8
F-2.370577812194824
aF347.4394836425781
aF22.25519561767578
aF-0.34149056673049927
aF0.5950756669044495
aF0.04108895733952522
aF4.067992687225342
aF-43.97174072265625
aF-1.091104507446289
aF0.02083367109298706
aF0.02535468339920044
aF-0.05619864538311958
aF8.052634239196777
aF-88.21551513671875
aF-3.730466842651367
aF0.02328711748123169
aF0.15076178312301636
aF-0.10236307606101036
aF0.08335113525390625
aF0.27203369140625
aF1.548257827758789
aF0.01838022470474243
aF-0.10005241632461548
aF-0.010034214705228806
aa(lp9
F-0.9359559416770935
aF332.7867736816406
aF21.230274200439453
aF-0.33846142888069153
aF0.5927454233169556
aF0.037420131266117096
aF4.523904383182526
aF-43.916534423828125
aF-1.2639827728271484
aF0.018092602491378784
aF-0.003068387508392334
aF-0.03224802762269974
aF8.58773523569107
aF-95.85595703125
aF-3.677858352661133
aF0.031829267740249634
aF0.09966734051704407
aF-0.10729750245809555
aF0.4600735306739807
aF8.02288818359375
aF1.149892807006836
aF0.004355937242507935
aF-0.10580411553382874
aF0.042801447212696075
aa(lp10
F0.5416430234909058
aF318.6227722167969
aF20.013837814331055
aF-0.3377998471260071
aF0.586216926574707
aF0.03487801551818848
aF4.482270836830139
aF-42.8214111328125
aF-3.0378494262695312
aF0.009900718927383423
aF-0.011815011501312256
aF-0.014107197523117065
aF9.45850932598114
aF-101.82656860351562
aF-3.0092029571533203
aF0.03341317176818848
aF0.05414605140686035
aF-0.10030248761177063
aF-0.4939676523208618
aF16.183746337890625
aF-3.066495895385742
aF-0.01361173391342163
aF-0.07777607440948486
aF0.0720880925655365
aa(lp11
F2.2402873039245605
aF304.9584045410156
aF19.5751953125
aF-0.34019044041633606
aF0.5834497809410095
aF0.01921367645263672
aF4.610865116119385
aF-42.4810791015625
aF-2.6800003051757812
aF0.001300126314163208
aF-0.011625885963439941
aF-0.021875280886888504
aF9.914052963256836
aF-102.00250244140625
aF-3.158170700073242
aF0.03096434473991394
aF0.019876539707183838
aF-0.0957067534327507
aF-0.6923227310180664
aF17.04034423828125
aF-2.2018299102783203
aF-0.028364092111587524
aF-0.04312831163406372
aF0.051956191658973694
aa(lp12
F3.868788480758667
aF292.2109375
aF18.719228744506836
aF-0.34048405289649963
aF0.5677487254142761
aF0.005639600567519665
aF4.8047444224357605
aF-40.575836181640625
aF-2.511045455932617
aF-0.0020226240158081055
aF-0.024996697902679443
aF-0.03178053069859743
aF10.307358980178833
aF-99.20028686523438
aF-4.627071380615234
aF0.021840184926986694
aF-0.0019722580909729004
aF-0.09164800215512514
aF-0.697870135307312
aF18.048614501953125
aF-0.39501953125
aF-0.025885432958602905
aF-0.048021137714385986
aF0.02808694075793028
aa(lp13
F5.502552509307861
aF279.5778503417969
aF17.862585067749023
aF-0.33975186944007874
aF0.5521037578582764
aF-4.889288902631961e-05
aF4.960909485816956
aF-39.044921875
aF-2.1512527465820312
aF-0.0019520223140716553
aF-0.034113168716430664
aF-0.034926908407214796
aF10.96241283416748
aF-97.12545776367188
aF-4.631671905517578
aF0.016802161931991577
aF-0.04371005296707153
aF-0.06971705177784315
aF-1.0405938625335693
aF19.035614013671875
aF0.3291664123535156
aF-0.020706206560134888
aF-0.024516284465789795
aF-0.00013676503658643924
aa(lp14
F7.069530963897705
aF267.28973388671875
aF17.56985092163086
aF-0.33756962418556213
aF0.5371668338775635
aF-0.0010889162076637149
aF4.8292436599731445
aF-37.668670654296875
aF-2.0053443908691406
aF0.0026208162307739258
aF-0.046282947063446045
aF-0.020302592660300434
aF11.010158777236938
aF-94.15444946289062
aF-5.481836318969727
aF0.01013094186782837
aF-0.06086510419845581
aF-0.05007412924896926
aF-1.3516714572906494
aF18.817108154296875
aF1.4711475372314453
aF-0.004889309406280518
aF-0.03170078992843628
aF0.00946894392836839
aa(lp15
F8.462550163269043
aF255.67857360839844
aF17.257198333740234
aF-0.33548519015312195
aF0.5266258716583252
aF-0.007049877662211657
aF4.593761682510376
aF-36.53236389160156
aF-1.4620304107666016
aF0.0049988627433776855
aF-0.04112285375595093
aF-0.012689478229731321
aF10.833127975463867
aF-91.76091003417969
aF-4.997997283935547
aF0.006005376577377319
aF-0.06844979524612427
aF-0.04813883500173688
aF-1.6456046104431152
aF18.696182250976562
aF2.0739364624023438
aF0.003992348909378052
aF-0.013795912265777588
aF0.022759878542274237
aa(lp16
F9.560015678405762
aF244.78323364257812
aF16.798742294311523
aF-0.33348196744918823
aF0.5188409686088562
aF-0.014228519052267075
aF4.0574631690979
aF-34.79461669921875
aF-1.0638427734375
aF0.006269901990890503
aF-0.033262789249420166
aF-0.014179626163240755
aF10.495971620082855
aF-88.0035400390625
aF-4.43153190612793
aF0.004979461431503296
aF-0.07390445470809937
aF-0.05164865031838417
aF-2.3810452818870544
aF18.414306640625
aF2.3038463592529297
aF0.00756034255027771
aF0.007378876209259033
aF0.02328939799190266
aa(lp17
F10.476386070251465
aF234.05084228515625
aF16.935497283935547
aF-0.32942619919776917
aF0.5062350034713745
aF-0.019042210653424263
aF3.4068551063537598
aF-33.2388916015625
aF-0.6343536376953125
aF0.008143424987792969
aF-0.030931830406188965
aF-0.017953294445760548
aF9.934743046760559
aF-84.57192993164062
aF-3.078340530395508
aF0.008373647928237915
aF-0.07998192310333252
aF-0.05392022617161274
aF-3.1210328340530396
aF18.094146728515625
aF1.8096332550048828
aF0.007913202047348022
aF0.01811826229095459
aF0.018013637280091643
aa(lp18
F11.072000503540039
aF223.6901397705078
aF17.100587844848633
aF-0.32448312640190125
aF0.49389657378196716
aF-0.022627245634794235
aF2.609450340270996
aF-31.988433837890625
aF-0.15661048889160156
aF0.011002063751220703
aF-0.03272929787635803
aF-0.015577367972582579
aF8.831713199615479
aF-81.26826477050781
aF-2.474607467651367
aF0.015707314014434814
aF-0.08955320715904236
aF-0.041840922087430954
aF-3.6128125190734863
aF17.291397094726562
aF2.161386489868164
aF0.006296813488006592
aF0.024094611406326294
aF0.010686186142265797
aa(lp19
F11.53383731842041
aF213.66598510742188
aF17.374135971069336
aF-0.31769418716430664
aF0.47905784845352173
aF-0.019939715042710304
aF1.9738216400146484
aF-31.11724853515625
aF0.5753936767578125
aF0.015787780284881592
aF-0.03978312015533447
aF-0.00571119599044323
aF7.665048837661743
aF-78.54495239257812
aF-1.3450927734375
aF0.022789865732192993
aF-0.0886908769607544
aF-0.02557931561022997
aF-3.7174055576324463
aF16.310455322265625
aF2.495880126953125
aF0.00878569483757019
aF0.00912463665008545
aF0.01415692362934351
aa(lp20
F11.827264785766602
aF204.3043975830078
aF17.78345489501953
aF-0.3102015554904938
aF0.4655028283596039
aF-0.01599734276533127
aF1.3508787155151367
aF-29.746444702148438
aF0.8479576110839844
aF0.01922464370727539
aF-0.04073217511177063
aF0.0030448678880929947
aF6.32471227645874
aF-75.27345275878906
aF-0.07913017272949219
aF0.02955031394958496
aF-0.08660092949867249
aF-0.01594844987630495
aF-3.622954845428467
aF15.780563354492188
aF1.775045394897461
aF0.00889897346496582
aF0.005136579275131226
aF0.022038185652490938
aa(lp21
F11.904132843017578
aF195.0489501953125
aF18.420726776123047
aF-0.30237123370170593
aF0.4503607749938965
aF-0.011356343515217304
aF0.8321323394775391
aF-28.641189575195312
aF1.320138931274414
aF0.022111892700195312
aF-0.04353579878807068
aF0.011270902119576931
aF4.834601879119873
aF-72.24078369140625
aF0.8508758544921875
aF0.0351983904838562
aF-0.08680605888366699
aF-0.01026742730755359
aF-3.170337200164795
aF14.958404541015625
aF1.7894020080566406
aF0.009025394916534424
aF-0.00026553869247436523
aF0.03280923154670745
aa(lp22
F11.78506088256836
aF186.38818359375
aF19.08712387084961
aF-0.28867870569229126
aF0.4384309649467468
aF-0.008286557160317898
aF0.2512235641479492
aF-27.277801513671875
aF1.7129878997802734
aF0.02901548147201538
aF-0.0406268835067749
aF0.011653157882392406
aF3.3225107192993164
aF-69.29039001464844
aF1.829925537109375
aF0.04680648446083069
aF-0.08819490671157837
aF-0.0012366794981062412
aF-2.820063591003418
aF14.734786987304688
aF1.5960502624511719
aF0.011224478483200073
aF0.0069411396980285645
aF0.024542995262891054
aa(lp23
F11.496855735778809
aF177.8883514404297
aF20.031465530395508
aF-0.27581486105918884
aF0.4244840443134308
aF-0.002473963890224695
aF-0.33040904998779297
aF-26.416046142578125
aF2.2480106353759766
aF0.03438669443130493
aF-0.041018784046173096
aF0.013523378875106573
aF1.9368400573730469
aF-66.89488220214844
aF3.2327232360839844
aF0.05766710638999939
aF-0.09435692429542542
aF0.01175455516204238
aF-2.597658157348633
aF14.062789916992188
aF1.2632980346679688
aF0.011106282472610474
aF0.012319356203079224
aF0.015292202588170767
aa(lp24
F11.132243156433105
aF169.70333862304688
aF20.789512634277344
aF-0.2641388475894928
aF0.41231849789619446
aF0.0019069823902100325
aF-0.7718896865844727
aF-25.345611572265625
aF2.368785858154297
aF0.038232386112213135
aF-0.038042277097702026
aF0.013263325905427337
aF0.6558570861816406
aF-64.34750366210938
aF3.854015350341797
aF0.06528735160827637
aF-0.09391650557518005
aF0.020949193043634295
aF-2.199636459350586
aF13.656280517578125
aF0.8835563659667969
aF0.011177420616149902
aF0.017831951379776
aF0.005577458767220378
aa(lp25
F10.797625541687012
aF161.95074462890625
aF21.521265029907227
aF-0.2533264458179474
aF0.4009765386581421
aF0.0070977709256112576
aF-0.9874353408813477
aF-24.43743896484375
aF2.434141159057617
aF0.03535225987434387
aF-0.037454426288604736
aF0.015384328085929155
aF-0.27437496185302734
aF-61.73939514160156
aF4.420677185058594
aF0.07115668058395386
aF-0.09292003512382507
aF0.029725016560405493
aF-1.700495719909668
aF12.864517211914062
aF0.4476051330566406
aF-0.0004521608352661133
aF0.0180111825466156
aF0.001043639611452818
aa(lp26
F10.438876152038574
aF154.21791076660156
aF22.011962890625
aF-0.24391458928585052
aF0.3930675983428955
aF0.010807148180902004
aF-1.0579795837402344
aF-23.670440673828125
aF1.9804973602294922
aF0.03190027177333832
aF-0.03141644597053528
aF0.0132811120711267
aF-1.094961166381836
aF-59.44807434082031
aF4.637826919555664
aF0.07377959787845612
aF-0.08599025011062622
aF0.03074686322361231
aF-1.0209980010986328
aF12.107192993164062
aF-0.6768321990966797
aF-0.00997905433177948
aF0.023157358169555664
aF-0.00418463908135891
aa(lp27
F10.018131256103516
aF146.7841033935547
aF22.652591705322266
aF-0.2364543080329895
aF0.3877960443496704
aF0.010173843242228031
aF-1.1141119003295898
aF-22.919235229492188
aF1.8630790710449219
aF0.027684539556503296
aF-0.024522453546524048
aF0.008266860852017999
aF-1.809133529663086
aF-57.520294189453125
aF4.869136810302734
aF0.07374724745750427
aF-0.07770678400993347
aF0.0261711860075593
aF-0.41909027099609375
aF11.68182373046875
aF-1.1429786682128906
aF-0.01837816834449768
aF0.028661876916885376
aF-0.009637464303523302
aa(lp28
F9.457066535949707
aF139.0738983154297
aF23.270767211914062
aF-0.22974149882793427
aF0.3827812075614929
aF0.010811314918100834
aF-1.3405590057373047
aF-22.876846313476562
aF1.749502182006836
aF0.023584946990013123
aF-0.01819533109664917
aF0.0037135439924895763
aF-2.447066307067871
aF-55.97505187988281
aF4.850040435791016
aF0.07262973487377167
aF-0.06757956743240356
aF0.022167658433318138
aF-0.23405170440673828
aF10.221359252929688
aF-1.3510360717773438
aF-0.025459840893745422
aF0.031188905239105225
aF-0.014740570448338985
aa(lp29
F8.838351249694824
aF131.36807250976562
aF23.709880828857422
aF-0.22345654666423798
aF0.3784576654434204
aF0.012781397439539433
aF-1.60052490234375
aF-22.849838256835938
aF1.6979179382324219
aF0.02045804262161255
aF-0.014609932899475098
aF0.0019742492586374283
aF-2.946709632873535
aF-55.020111083984375
aF4.6227569580078125
aF0.06522215902805328
aF-0.059973299503326416
aF0.02106795459985733
aF-0.25434017181396484
aF9.3204345703125
aF-1.2269210815429688
aF-0.024306073784828186
aF0.03075343370437622
aF-0.017119456082582474
aa(lp30
F8.090803146362305
aF123.40086364746094
aF24.084163665771484
aF-0.21714383363723755
aF0.37339821457862854
aF0.01865386962890625
aF-1.927328109741211
aF-23.38323974609375
aF1.4315719604492188
aF0.019310474395751953
aF-0.01439782977104187
aF0.008480026386678219
aF-3.406052589416504
aF-54.48748779296875
aF4.052698135375977
aF0.058671027421951294
aF-0.051085829734802246
aF0.021127833519130945
aF-0.44860363006591797
aF7.72100830078125
aF-1.189554214477539
aF-0.020050078630447388
aF0.022290170192718506
aF-0.0041677807457745075
aa.