(lp0
(lp1
F-10.748122215270996
aF182.05722045898438
aF95.03807067871094
aF-0.4904904365539551
aF-0.24184320867061615
aF0.25369277596473694
aF-0.37688541412353516
aF-10.851730346679688
aF-8.628982543945312
aF-0.06486561894416809
aF0.010182216763496399
aF-0.008542895317077637
aF-0.859623908996582
aF-16.424118041992188
aF-12.270210266113281
aF-0.14441925287246704
aF-0.03415152430534363
aF-0.001555114984512329
aF0.10585308074951172
aF-5.2793426513671875
aF-4.987754821777344
aF0.01468801498413086
aF0.054515957832336426
aF-0.015530675649642944
aa(lp2
F-11.40566635131836
aF179.00994873046875
aF91.42588806152344
aF-0.5009730458259583
aF-0.22202041745185852
aF0.2520163953304291
aF-1.3433198928833008
aF-10.46282958984375
aF-10.384529113769531
aF-0.05265665054321289
aF0.03080427646636963
aF-0.009931564331054688
aF-1.2267627716064453
aF-18.15399169921875
aF-15.100799560546875
aF-0.14944052696228027
aF-0.005410730838775635
aF-0.006915867328643799
aF-1.4598770141601562
aF-2.77166748046875
aF-5.6682586669921875
aF0.04412722587585449
aF0.06701928377151489
aF-0.012947261333465576
aa(lp3
F-12.367013931274414
aF175.59384155273438
aF87.65241241455078
aF-0.5122686624526978
aF-0.19570185244083405
aF0.25107496976852417
aF-2.214597702026367
aF-9.841110229492188
aF-10.969261169433594
aF-0.04214075207710266
aF0.05501393973827362
aF-0.011894017457962036
aF-2.2147302627563477
aF-19.912826538085938
aF-17.96178436279297
aF-0.13476914167404175
aF0.03686058521270752
aF-0.004894286394119263
aF-2.2144651412963867
aF0.2306060791015625
aF-3.9767379760742188
aF0.050487637519836426
aF0.07316729426383972
aF-0.01889374852180481
aa(lp4
F-13.337295532226562
aF172.27784729003906
aF82.8097152709961
aF-0.5231941938400269
aF-0.1656273901462555
aF0.24076195061206818
aF-2.5891733169555664
aF-9.779373168945312
aF-12.228355407714844
aF-0.03270375728607178
aF0.07621581852436066
aF-0.012930825352668762
aF-3.0339317321777344
aF-21.589752197265625
aF-21.594741821289062
aF-0.12128216028213501
aF0.07884801924228668
aF-0.018816843628883362
aF-2.1444149017333984
aF2.031005859375
aF-2.861968994140625
aF0.055874645709991455
aF0.07358361780643463
aF-0.007044807076454163
aa(lp5
F-13.764473915100098
aF169.36827087402344
aF78.68863677978516
aF-0.5340701341629028
aF-0.1343303918838501
aF0.23018556833267212
aF-2.3588075637817383
aF-9.641677856445312
aF-12.737251281738281
aF-0.03309708833694458
aF0.08769002556800842
aF-0.021830826997756958
aF-3.3932371139526367
aF-23.540679931640625
aF-24.978416442871094
aF-0.10844531655311584
aF0.11769503355026245
aF-0.032050102949142456
aF-1.3243780136108398
aF4.25732421875
aF-0.49608612060546875
aF0.042251139879226685
aF0.057685017585754395
aF-0.01161155104637146
aa(lp6
F-14.080633163452148
aF166.3377685546875
aF74.24340057373047
aF-0.5431710481643677
aF-0.10767046362161636
aF0.2228803038597107
aF-1.7136192321777344
aF-9.256072998046875
aF-13.409011840820312
aF-0.030902385711669922
aF0.08803138881921768
aF-0.028194665908813477
aF-4.01828670501709
aF-23.135009765625
aF-27.5670166015625
aF-0.09485465288162231
aF0.14515423029661179
aF-0.03906765580177307
aF0.5910482406616211
aF4.62286376953125
aF0.748992919921875
aF0.03304988145828247
aF0.030908547341823578
aF-0.017321676015853882
aa(lp7
F-14.100807189941406
aF163.34823608398438
aF70.11409759521484
aF-0.5515769720077515
aF-0.08427877724170685
aF0.22310498356819153
aF-0.7635116577148438
aF-8.929611206054688
aF-12.69561767578125
aF-0.02838277816772461
aF0.08134861290454865
aF-0.017656967043876648
aF-3.9483909606933594
aF-22.086715698242188
aF-28.50757598876953
aF-0.08144906163215637
aF0.16643701493740082
aF-0.03986400365829468
aF2.421367645263672
aF4.2274932861328125
aF3.1163406372070312
aF0.024683505296707153
aF-0.003739789128303528
aF0.004550069570541382
aa(lp8
F-13.977068901062012
aF160.43064880371094
aF66.16400146484375
aF-0.5567584037780762
aF-0.06677719950675964
aF0.22238515317440033
aF-0.21259498596191406
aF-8.9376220703125
aF-12.524635314941406
aF-0.02268826961517334
aF0.06755319237709045
aF-0.0078004151582717896
aF-3.2289466857910156
aF-21.626571655273438
aF-28.874069213867188
aF-0.0662679672241211
aF0.1750660091638565
aF-0.03130762279033661
aF2.8037567138671875
aF3.7513275146484375
aF3.824798583984375
aF0.020891427993774414
aF-0.0399596244096756
aF0.01570679247379303
aa(lp9
F-13.771452903747559
aF157.32485961914062
aF62.40668869018555
aF-0.5599797368049622
aF-0.049713972955942154
aF0.2178747057914734
aF0.30918025970458984
aF-9.012908935546875
aF-11.836711883544922
aF-0.016808688640594482
aF0.05795649066567421
aF-0.005005598068237305
aF-2.365786552429199
aF-21.685089111328125
aF-29.01919937133789
aF-0.059006690979003906
aF0.17230644449591637
aF-0.03414168953895569
aF2.984147071838379
aF3.659271240234375
aF5.345775604248047
aF0.02538931369781494
aF-0.05639346316456795
aF0.02413049340248108
aa(lp10
F-13.53915786743164
aF154.28076171875
aF58.504329681396484
aF-0.5624182820320129
aF-0.03694523125886917
aF0.21909482777118683
aF0.5616493225097656
aF-9.067474365234375
aF-11.60976791381836
aF-0.010841310024261475
aF0.04733354598283768
aF-0.0040101557970047
aF-1.1721439361572266
aF-21.313079833984375
aF-29.148082733154297
aF-0.050149619579315186
aF0.15875662118196487
aF-0.03198014199733734
aF2.295442581176758
aF3.178131103515625
aF5.928546905517578
aF0.028466999530792236
aF-0.06408952921628952
aF0.023959830403327942
aa(lp11
F-13.326774597167969
aF151.36476135253906
aF54.6741828918457
aF-0.5635203719139099
aF-0.02610732987523079
aF0.21877068281173706
aF0.650294303894043
aF-9.065887451171875
aF-11.489818572998047
aF-0.00676196813583374
aF0.040669869631528854
aF-0.003614470362663269
aF0.01052093505859375
aF-20.9130859375
aF-28.13553237915039
aF-0.04032617807388306
aF0.1395200602710247
aF-0.021991267800331116
aF1.2900676727294922
aF2.78131103515625
aF5.155895233154297
aF0.026802241802215576
aF-0.058180321007966995
aF0.014762327075004578
aa(lp12
F-12.294587135314941
aF143.9082794189453
aF45.78561782836914
aF-0.5637982487678528
aF-0.012140870094299316
aF0.2124408632516861
aF1.4768657684326172
aF-13.416580200195312
aF-16.621070861816406
aF-0.003818511962890625
aF0.03757310286164284
aF-0.0054338425397872925
aF1.4698867797851562
aF-25.459991455078125
aF-32.903018951416016
aF-0.02972811460494995
aF0.12218952178955078
aF-0.017744705080986023
aF1.4838447570800781
aF-1.3731689453125
aF-0.3391227722167969
aF0.0220910906791687
aF-0.047043316066265106
aF0.006877020001411438
aa(lp13
F-11.968255996704102
aF141.66990661621094
aF42.422019958496094
aF-0.5641579031944275
aF0.002753237495198846
aF0.19902737438678741
aF1.570901870727539
aF-12.610855102539062
aF-16.08230972290039
aF-0.0017396211624145508
aF0.03969846875406802
aF-0.020067453384399414
aF2.112377166748047
aF-24.667861938476562
aF-31.821380615234375
aF-0.020986855030059814
aF0.11042370111681521
aF-0.02385292947292328
aF1.0294265747070312
aF-0.5538482666015625
aF-0.34323883056640625
aF0.017507612705230713
aF-0.031026763608679175
aF-0.01628197729587555
aa(lp14
F-11.634231567382812
aF139.60076904296875
aF39.083351135253906
aF-0.5474902391433716
aF0.01843935064971447
aF0.18769468367099762
aF1.6925430297851562
aF-11.763992309570312
aF-15.590831756591797
aF0.01603013277053833
aF0.04454668052494526
aF-0.03107599914073944
aF2.4665756225585938
aF-23.747467041015625
aF-31.030746459960938
aF0.004086732864379883
aF0.10271812789142132
aF-0.03541029989719391
aF0.9185104370117188
aF0.219482421875
aF-0.15091705322265625
aF0.027973532676696777
aF-0.0136247668415308
aF-0.026741698384284973
aa(lp15
F-11.219583511352539
aF137.55140686035156
aF35.8145637512207
aF-0.5326070189476013
aF0.03173552453517914
aF0.1797282099723816
aF1.0750036239624023
aF-6.35687255859375
aF-9.971054077148438
aF0.031191229820251465
aF0.043876394629478455
aF-0.032712653279304504
aF2.7574853897094727
aF-22.879241943359375
aF-30.349437713623047
aF0.024151384830474854
aF0.09851272404193878
aF-0.04265694320201874
aF-0.607478141784668
aF10.165496826171875
aF10.407329559326172
aF0.038231074810028076
aF-0.010759934782981873
aF-0.02276836335659027
aa(lp16
F-10.878721237182617
aF135.68080139160156
aF32.525150299072266
aF-0.5185396075248718
aF0.04415974020957947
aF0.17249761521816254
aF1.0895347595214844
aF-5.989105224609375
aF-9.896869659423828
aF0.045618295669555664
aF0.04140650271438062
aF-0.026529759168624878
aF2.8927316665649414
aF-21.644058227539062
aF-29.88153839111328
aF0.04144012928009033
aF0.09387371316552162
aF-0.04537709057331085
aF-0.7136621475219727
aF9.665847778320312
aF10.087799072265625
aF0.049796462059020996
aF-0.011060707736760378
aF-0.007682427763938904
aa(lp17
F-10.591455459594727
aF133.977783203125
aF29.25045394897461
aF-0.5051894783973694
aF0.054628439247608185
aF0.16778689622879028
aF1.042776107788086
aF-5.62298583984375
aF-9.832897186279297
aF0.0423007607460022
aF0.036189088597893715
aF-0.019907787442207336
aF2.947702407836914
aF-20.302978515625
aF-29.253875732421875
aF0.057228803634643555
aF0.09157367050647736
aF-0.051307931542396545
aF-0.8621501922607422
aF9.0570068359375
aF9.588081359863281
aF0.02737271785736084
aF-0.019195493310689926
aF0.011492356657981873
aa(lp18
F-10.33790111541748
aF132.500244140625
aF26.142471313476562
aF-0.49289470911026
aF0.06868971884250641
aF0.16287997364997864
aF0.8816823959350586
aF-5.0511627197265625
aF-9.67209243774414
aF0.03971230983734131
aF0.03695419430732727
aF-0.016848236322402954
aF2.9888734817504883
aF-18.864517211914062
aF-28.53171157836914
aF0.0706256628036499
aF0.0947970487177372
aF-0.05589070916175842
aF-1.225508689880371
aF8.762191772460938
aF9.18752670288086
aF0.008798956871032715
aF-0.020888660103082657
aF0.022194236516952515
aa(lp19
F-10.148821830749512
aF131.15042114257812
aF23.043746948242188
aF-0.48057663440704346
aF0.07674968242645264
aF0.16318948566913605
aF0.7298994064331055
aF-4.5303802490234375
aF-9.481403350830078
aF0.03796297311782837
aF0.03258994221687317
aF-0.00930812954902649
aF2.1457653045654297
aF-12.757858276367188
aF-22.741870880126953
aF0.08322161436080933
aF0.08889055252075195
aF-0.04925137758255005
aF-0.6859664916992188
aF3.6970977783203125
aF3.779064178466797
aF-0.007295668125152588
aF-0.023710668087005615
aF0.03063511848449707
aa(lp20
F-9.962226867675781
aF129.91261291503906
aF20.0815372467041
aF-0.4692617654800415
aF0.08795348554849625
aF0.16160717606544495
aF0.6292285919189453
aF-4.0651702880859375
aF-9.168916702270508
aF0.03592771291732788
aF0.03332504630088806
aF-0.006179720163345337
aF2.0060291290283203
aF-11.757293701171875
aF-22.340482711791992
aF0.09489613771438599
aF0.0852002480532974
aF-0.03742019832134247
aF-0.7475719451904297
aF3.626953125
aF4.002649307250977
aF-0.023040711879730225
aF-0.018550155451521277
aF0.025060757994651794
aa(lp21
F-9.900583267211914
aF128.854248046875
aF17.057048797607422
aF-0.4582351744174957
aF0.09918844699859619
aF0.15412896871566772
aF0.4373178482055664
aF-3.64599609375
aF-9.08542251586914
aF0.03465953469276428
aF0.030498728156089783
aF-0.008751004934310913
aF1.7336483001708984
aF-10.74652099609375
aF-22.026302337646484
aF0.08925506472587585
aF0.08074909634888172
aF-0.033565714955329895
aF-0.8590126037597656
aF3.45452880859375
aF3.855457305908203
aF-0.01993599534034729
aF-0.019751640036702156
aF0.01606370508670807
aa(lp22
F-9.85157299041748
aF127.9240493774414
aF14.333308219909668
aF-0.45281553268432617
aF0.1045697033405304
aF0.15155509114265442
aF0.29724884033203125
aF-3.2263717651367188
aF-8.71043872833252
aF0.027761101722717285
aF0.02782002091407776
aF-0.011634394526481628
aF1.3680105209350586
aF-9.627357482910156
aF-21.481255531311035
aF0.07979148626327515
aF0.07283417880535126
aF-0.028173118829727173
aF-0.7735128402709961
aF3.1746139526367188
aF4.060378074645996
aF-0.024269282817840576
aF-0.01719413697719574
aF0.004904329776763916
aa(lp23
F-9.775531768798828
aF127.03164672851562
aF11.762645721435547
aF-0.4471997320652008
aF0.11291199922561646
aF0.14364799857139587
aF0.18669509887695312
aF-2.8809661865234375
aF-8.318891525268555
aF0.022062033414840698
aF0.02495851367712021
aF-0.017959177494049072
aF1.103189468383789
aF-8.649154663085938
aF-20.76250457763672
aF0.07133987545967102
aF0.06875225901603699
aF-0.028849616646766663
aF-0.7297992706298828
aF2.8872222900390625
aF4.124721527099609
aF-0.027215808629989624
aF-0.01883523166179657
aF-0.007068738341331482
aa(lp24
F-9.707605361938477
aF126.20635986328125
aF9.337422370910645
aF-0.44207149744033813
aF0.11933654546737671
aF0.13787871599197388
aF0.1929779052734375
aF-2.64788818359375
aF-7.719626426696777
aF0.016163676977157593
aF0.020148098468780518
aF-0.016250252723693848
aF0.88385009765625
aF-7.77142333984375
aF-19.913031578063965
aF0.06311798095703125
aF0.06470810621976852
aF-0.029908180236816406
aF-0.497894287109375
aF2.47564697265625
aF4.47377872467041
aF-0.030790627002716064
aF-0.02441190928220749
aF-0.002592325210571289
aa(lp25
F-9.705327987670898
aF125.43311309814453
aF6.932759761810303
aF-0.43302637338638306
aF0.12585172057151794
aF0.1349085569381714
aF0.14624500274658203
aF-2.490936279296875
aF-7.400548458099365
aF0.019789159297943115
aF0.02128201723098755
aF-0.016646534204483032
aF0.632573127746582
aF-7.067131042480469
aF-19.20971155166626
aF0.05986833572387695
aF0.057162001729011536
aF-0.02797141671180725
aF-0.34008312225341797
aF2.0852584838867188
aF4.408614635467529
aF-0.020290017127990723
aF-0.014597967267036438
aF-0.0053216516971588135
aa(lp26
F-9.73143482208252
aF124.67501068115234
aF4.531556606292725
aF-0.4246353805065155
aF0.13109822571277618
aF0.13312473893165588
aF0.044096946716308594
aF-2.3566360473632812
aF-7.231089115142822
aF0.022564351558685303
aF0.01818622648715973
aF-0.01052325963973999
aF0.4173870086669922
aF-6.475410461425781
aF-18.512190341949463
aF0.055941253900527954
aF0.05434854328632355
aF-0.030064746737480164
aF-0.329193115234375
aF1.7621383666992188
aF4.050012111663818
aF-0.010812550783157349
aF-0.01797609031200409
aF0.009018227458000183
aa(lp27
F-9.7865571975708
aF123.90494537353516
aF2.160043239593506
aF-0.41695767641067505
aF0.13812638819217682
aF0.12867850065231323
aF-0.07895183563232422
aF-2.3014144897460938
aF-7.177379131317139
aF0.025113821029663086
aF0.01878984272480011
aF-0.009200215339660645
aF0.17566967010498047
aF-6.007667541503906
aF-17.921494007110596
aF0.052304089069366455
aF0.05017290264368057
aF-0.032928675413131714
aF-0.3335733413696289
aF1.4048385620117188
aF3.5667357444763184
aF-0.002076447010040283
aF-0.012593217194080353
aF0.014528244733810425
aa(lp28
F-9.817261695861816
aF123.12871551513672
aF-0.041742462664842606
aF-0.4098832607269287
aF0.14323872327804565
aF0.1269029676914215
aF-0.11193370819091797
aF-2.3043975830078125
aF-6.974502224475145
aF0.023143112659454346
aF0.01738700270652771
aF-0.008005589246749878
aF0.08332157135009766
aF-5.725532531738281
aF-17.098791260272264
aF0.04835191369056702
aF0.04405027627944946
aF-0.027226001024246216
aF-0.3071889877319336
aF1.1167373657226562
aF3.149786811321974
aF-0.002065688371658325
aF-0.009276270866394043
aF0.01121482253074646
aa(lp29
F-9.873187065124512
aF122.3610610961914
aF-2.2510669231414795
aF-0.40339261293411255
aF0.1498538851737976
aF0.12291288375854492
aF-0.1417522430419922
aF-2.3139495849609375
aF-6.782623529434204
aF0.021242767572402954
aF0.018755659461021423
aF-0.010211855173110962
aF-0.02161407470703125
aF-5.56298828125
aF-16.584375143051147
aF0.04942291975021362
aF0.04528418183326721
aF-0.028642207384109497
aF-0.2618904113769531
aF0.935089111328125
aF3.0191280841827393
aF-0.006937384605407715
aF-0.007772862911224365
aF0.008218497037887573
aa(lp30
F-10.009162902832031
aF121.71704864501953
aF-4.43071174621582
aF-0.39689990878105164
aF0.1574501246213913
aF0.11866912990808487
aF-0.22260570526123047
aF-2.187896728515625
aF-6.590754985809326
aF0.020057767629623413
aF0.019323736429214478
aF-0.010009370744228363
aF-0.23363113403320312
aF-5.314598083496094
aF-16.193357467651367
aF0.05029982328414917
aF0.04453812539577484
aF-0.024978868663311005
aF-0.2115802764892578
aF0.9388046264648438
aF3.011847496032715
aF-0.010184288024902344
aF-0.005890652537345886
aF0.0049601271748542786
aa(lp31
F-10.056357383728027
aF120.96781921386719
aF-6.020878791809082
aF-0.39067935943603516
aF0.1634199172258377
aF0.11688932776451111
aF-0.23909568786621094
aF-2.1608963012695312
aF-5.979136329144239
aF0.019203901290893555
aF0.020181193947792053
aF-0.0100136399269104
aF-0.3487520217895508
aF-5.2385406494140625
aF-15.358301162719727
aF0.05139213800430298
aF0.044083371758461
aF-0.02098938822746277
aF-0.1294393539428711
aF0.916748046875
aF3.4000285044312477
aF-0.01298433542251587
aF-0.003720983862876892
aF0.0009621083736419678
aa(lp32
F-10.163028717041016
aF120.39212036132812
aF-7.885485649108887
aF-0.38537856936454773
aF0.16990599036216736
aF0.11544147878885269
aF-0.2898416519165039
aF-1.9689407348632812
aF-5.634418725967407
aF0.01801404356956482
aF0.02005210518836975
aF-0.00747140496969223
aF-0.4577007293701172
aF-5.040992736816406
aF-14.81824541091919
aF0.04764780402183533
aF0.044054269790649414
aF-0.019467078149318695
aF-0.12198257446289062
aF1.1031112670898438
aF3.549407958984375
aF-0.011619716882705688
aF-0.003950059413909912
aF0.004524268209934235
aa(lp33
F-10.264782905578613
aF119.69381713867188
aF-9.505521774291992
aF-0.38411593437194824
aF0.17616117000579834
aF0.11384934931993484
aF-0.25562000274658203
aF-2.0232315063476562
aF-5.074810028076172
aF0.012783974409103394
aF0.018711045384407043
aF-0.004819780588150024
aF-0.5333480834960938
aF-4.981193542480469
aF-14.037078380584717
aF0.04051944613456726
aF0.045062944293022156
aF-0.01927538961172104
aF0.022108078002929688
aF0.9347305297851562
aF3.887458324432373
aF-0.014951497316360474
aF-0.007640853524208069
aF0.00963582843542099
aa(lp34
F-10.359228134155273
aF119.22293853759766
aF-10.965509414672852
aF-0.3828376233577728
aF0.18539491295814514
aF0.10997655242681503
aF-0.3028707504272461
aF-1.7448806762695312
aF-4.9446306228637695
aF0.007841736078262329
aF0.021974995732307434
aF-0.0069127753376960754
aF-0.5726709365844727
aF-4.6820068359375
aF-13.125552654266357
aF0.03412005305290222
aF0.04726852476596832
aF-0.0187019482254982
aF-0.03307056427001953
aF1.1922454833984375
aF3.2362914085388184
aF-0.018436580896377563
aF-0.0033185333013534546
aF0.004876397550106049
aa(lp35
F-10.524240493774414
aF118.68270874023438
aF-13.055680274963379
aF-0.3813714385032654
aF0.1950918436050415
aF0.10589688271284103
aF-0.36121177673339844
aF-1.70941162109375
aF-5.170194625854492
aF0.004007130861282349
aF0.025185853242874146
aF-0.009544596076011658
aF-0.7069787979125977
aF-4.446006774902344
aF-13.013937812298536
aF0.02851182222366333
aF0.05185312032699585
aF-0.021006084978580475
aF-0.015444755554199219
aF1.0271835327148438
aF2.673548560589552
aF-0.020497560501098633
aF-0.0014814138412475586
aF0.0019168928265571594
aa(lp36
F-10.651097297668457
aF118.05917358398438
aF-14.930774688720703
aF-0.37543076276779175
aF0.20529864728450775
aF0.10240449756383896
aF-0.38631439208984375
aF-1.6346435546875
aF-5.425252914428711
aF0.008685171604156494
aF0.02913747727870941
aF-0.011444851756095886
aF-0.7779102325439453
aF-4.301887512207031
aF-12.679707765579224
aF0.0279618501663208
aF0.055444762110710144
aF-0.020508386194705963
aF0.0052814483642578125
aF1.0326004028320312
aF1.8292019367218018
aF-0.010591506958007812
aF0.002830192446708679
aF-0.0023813173174858093
aa(lp37
F-10.832342147827148
aF117.41785430908203
aF-17.051179885864258
aF-0.36967554688453674
aF0.21165606379508972
aF0.10186607390642166
aF-0.473114013671875
aF-1.805084228515625
aF-6.085670471191406
aF0.013162076473236084
aF0.02626115083694458
aF-0.008110478520393372
aF-0.8231792449951172
aF-4.2991943359375
aF-12.620468139648438
aF0.027224361896514893
aF0.054205939173698425
aF-0.016803056001663208
aF-0.12304878234863281
aF0.68902587890625
aF0.449127197265625
aF-0.0009002089500427246
aF-0.0016836374998092651
aF0.0005820989608764648
aa(lp38
F-10.975440979003906
aF116.82891082763672
aF-18.968050003051758
aF-0.36363038420677185
aF0.2196548581123352
aF0.09903332591056824
aF-0.4512004852294922
aF-1.8537979125976562
aF-5.912369728088379
aF0.01774105429649353
aF0.0245630145072937
aF-0.006863556802272797
aF-0.9190835952758789
aF-4.138908386230469
aF-12.947171211242676
aF0.027048975229263306
aF0.0562349408864975
aF-0.01785600185394287
aF0.01668262481689453
aF0.43131256103515625
aF1.122431755065918
aF0.008433133363723755
aF-0.007108911871910095
aF0.004128888249397278
aa(lp39
F-11.138993263244629
aF116.1896743774414
aF-21.139333724975586
aF-0.3578092157840729
aF0.22570864856243134
aF0.09830129891633987
aF-0.4878959655761719
aF-1.8694992065429688
aF-6.208559036254883
aF0.017621546983718872
aF0.020410001277923584
aF-0.0041031986474990845
aF-0.9759645462036133
aF-4.202445983886719
aF-13.2538480758667
aF0.027569353580474854
aF0.05580265820026398
aF-0.017140179872512817
aF0.00017261505126953125
aF0.46344757080078125
aF0.8367300033569336
aF0.007673740386962891
aF-0.014982655644416809
aF0.008933782577514648
aa(lp40
F-11.35474967956543
aF115.57193756103516
aF-23.281827926635742
aF-0.3522662818431854
aF0.23379941284656525
aF0.09506635367870331
aF-0.5224075317382812
aF-1.845916748046875
aF-6.230648040771484
aF0.01740926504135132
aF0.022143349051475525
aF-0.006799720227718353
aF-1.0899667739868164
aF-4.121879577636719
aF-13.77630615234375
aF0.03184965252876282
aF0.05763824284076691
aF-0.018782995641231537
aF0.045151710510253906
aF0.43004608154296875
aF1.3150100708007812
aF0.0029688775539398193
aF-0.013351544737815857
aF0.00518355518579483
aa(lp41
F-11.57213020324707
aF115.08776092529297
aF-25.24056625366211
aF-0.3467113971710205
aF0.24277976155281067
aF0.09187784045934677
aF-0.5966892242431641
aF-1.74114990234375
aF-6.272516250610352
aF0.016918987035751343
aF0.023124903440475464
aF-0.007155485451221466
aF-1.2129020690917969
aF-4.1351776123046875
aF-14.275056838989258
aF0.03612622618675232
aF0.05738484859466553
aF-0.01809871196746826
aF0.01952362060546875
aF0.6528778076171875
aF1.7300243377685547
aF-0.002288252115249634
aF-0.0111350417137146
aF0.0037877410650253296
aa(lp42
F-11.841426849365234
aF114.66902923583984
aF-27.308902740478516
aF-0.3417910933494568
aF0.2499576061964035
aF0.09084904938936234
aF-0.7024335861206055
aF-1.5206451416015625
aF-6.16956901550293
aF0.01601812243461609
aF0.024248957633972168
aF-0.007452249526977539
aF-1.3171863555908203
aF-4.013679504394531
aF-14.253222465515137
aF0.039580345153808594
aF0.054865762591362
aF-0.015047833323478699
aF-0.08768081665039062
aF0.9723892211914062
aF1.9140844345092773
aF-0.007544100284576416
aF-0.006367847323417664
aF0.0001433342695236206
aa(lp43
F-12.143540382385254
aF114.31407165527344
aF-29.210351943969727
aF-0.3369908332824707
aF0.25723525881767273
aF0.09024083614349365
aF-0.7887907028198242
aF-1.2578659057617188
aF-5.928524017333984
aF0.015275448560714722
aF0.023435845971107483
aF-0.004825517535209656
aF-1.4924430847167969
aF-3.7451019287109375
aF-14.279577255249023
aF0.038439929485321045
aF0.05193661153316498
aF-0.012163661420345306
aF-0.08513832092285156
aF1.2293701171875
aF2.4225292205810547
aF-0.007889032363891602
aF-0.005064919590950012
aF0.002512626349925995
aa(lp44
F-12.423794746398926
aF114.02664947509766
aF-31.146778106689453
aF-0.3325132131576538
aF0.264902263879776
aF0.08955267071723938
aF-0.8516645431518555
aF-1.0611114501953125
aF-5.906211853027344
aF0.0141981840133667
aF0.022122502326965332
aF-0.0023251697421073914
aF-1.5914525985717773
aF-3.391204833984375
aF-14.095598220825195
aF0.037162333726882935
aF0.05324620008468628
aF-0.012313403189182281
aF-0.1118764877319336
aF1.26898193359375
aF2.283174514770508
aF-0.008765965700149536
aF-0.009001195430755615
aF0.007663063704967499
aa(lp45
F-12.870353698730469
aF113.85071563720703
aF-33.544769287109375
aF-0.3280375003814697
aF0.2742588520050049
aF0.08730126917362213
aF-1.0289268493652344
aF-0.8183135986328125
aF-6.235866546630859
aF0.01375359296798706
aF0.02430124580860138
aF-0.003547780215740204
aF-1.8949127197265625
aF-2.9781951904296875
aF-14.576719284057617
aF0.035592883825302124
aF0.05460399389266968
aF-0.011732056736946106
aF-0.16294097900390625
aF1.3415679931640625
aF2.1049861907958984
aF-0.008085697889328003
aF-0.006001502275466919
aF0.004636496305465698
aa(lp46
F-13.260929107666016
aF113.75334930419922
aF-35.86104965209961
aF-0.32368364930152893
aF0.2825758457183838
aF0.08587571978569031
aF-1.1173887252807617
aF-0.5607223510742188
aF-6.650697708129883
aF0.013307183980941772
aF0.02534058690071106
aF-0.004365116357803345
aF-2.1219358444213867
aF-2.4363250732421875
aF-14.721715927124023
aF0.034125566482543945
aF0.056867197155952454
aF-0.012425579130649567
aF-0.11284160614013672
aF1.31488037109375
aF1.4203205108642578
aF-0.0075111985206604
aF-0.0061860233545303345
aF0.003695346415042877
aa(lp47
F-13.572291374206543
aF113.70535278320312
aF-38.081871032714844
aF-0.3195044696331024
aF0.28846755623817444
aF0.08665987104177475
aF-1.1484966278076172
aF-0.32129669189453125
aF-6.935092926025391
aF0.013008743524551392
aF0.023565292358398438
aF-0.00289279967546463
aF-2.2175416946411133
aF-1.8665847778320312
aF-14.800043106079102
aF0.03276181221008301
aF0.05466814339160919
aF-0.008406482636928558
aF-0.0794515609741211
aF1.2239913940429688
aF0.9298572540283203
aF-0.006744325160980225
aF-0.007537558674812317
aF0.002620883285999298
aa(lp48
F-13.94463062286377
aF113.78897857666016
aF-40.567203521728516
aF-0.31567472219467163
aF0.29463428258895874
aF0.08712269365787506
aF-1.0742769241333008
aF-0.061737060546875
aF-7.022434234619141
aF0.012362778186798096
aF0.020375430583953857
aF-0.0001785755157470703
aF-2.372500419616699
aF-1.2987823486328125
aF-15.326637268066406
aF0.031036674976348877
aF0.05185452103614807
aF-0.00475514680147171
aF0.22394657135009766
aF1.1753082275390625
aF1.281768798828125
aF-0.0063111186027526855
aF-0.011103659868240356
aF0.00439799576997757
aa(lp49
F-14.130736351013184
aF114.01118469238281
aF-42.87147903442383
aF-0.31203967332839966
aF0.3016197979450226
aF0.08691409230232239
aF-0.869807243347168
aF0.25783538818359375
aF-7.010429382324219
aF0.011643975973129272
aF0.019043952226638794
aF0.00103837251663208
aF-2.289309501647949
aF-0.6578445434570312
aF-15.562576293945312
aF0.02975142002105713
aF0.05166219174861908
aF-0.0039349570870399475
aF0.5496950149536133
aF1.1735153198242188
aF1.541717529296875
aF-0.006463468074798584
aF-0.013574287295341492
aF0.006011702120304108
aa(lp50
F-14.316057205200195
aF114.42613983154297
aF-45.15139389038086
aF-0.3087981939315796
aF0.30813664197921753
aF0.08636877685785294
aF-0.7437658309936523
aF0.7207870483398438
aF-7.069522857666016
aF0.010706275701522827
aF0.01966908574104309
aF-0.00029109418392181396
aF-2.1725168228149414
aF0.11206817626953125
aF-15.941041946411133
aF0.028192639350891113
aF0.0509013831615448
aF-0.0038720592856407166
aF0.6849851608276367
aF1.3295059204101562
aF1.8019962310791016
aF-0.006780087947845459
aF-0.011563211679458618
aF0.0032898709177970886
aa.