(lp0
(lp1
F4.774020195007324
aF149.67173767089844
aF-5.618403911590576
aF-0.460015207529068
aF0.2588052451610565
aF0.06609078496694565
aF-0.6188602447509766
aF1.225921630859375
aF-0.873502254486084
aF-0.00872090458869934
aF0.029051989316940308
aF0.015276983380317688
aF-0.9390549659729004
aF1.87725830078125
aF-1.0804290771484375
aF-0.0061518847942352295
aF0.032967984676361084
aF0.016049817204475403
aF-0.29866552352905273
aF0.5745849609375
aF-0.6665754318237305
aF-0.011289924383163452
aF0.02513599395751953
aF0.014504149556159973
aa(lp2
F4.455897808074951
aF150.36489868164062
aF-6.272082328796387
aF-0.46731072664260864
aF0.2734959125518799
aF0.08243594318628311
aF-0.7872762680053711
aF1.6088714599609375
aF-1.3635954856872559
aF-0.015024632215499878
aF0.037140414118766785
aF0.03085911273956299
aF-1.1969294548034668
aF2.4617156982421875
aF-1.7459721565246582
aF-0.014397919178009033
aF0.04679112136363983
aF0.03283598646521568
aF-0.3776230812072754
aF0.7560272216796875
aF-0.9812188148498535
aF-0.015651345252990723
aF0.027489706873893738
aF0.028882239013910294
aa(lp3
F4.041910648345947
aF150.9718017578125
aF-6.905418395996094
aF-0.4763920307159424
aF0.28678998351097107
aF0.10589884966611862
aF-1.0144381523132324
aF1.87744140625
aF-1.7702603340148926
aF-0.02125072479248047
aF0.04062816500663757
aF0.049699265509843826
aF-1.4916667938232422
aF2.9420013427734375
aF-2.271961212158203
aF-0.02429753541946411
aF0.05890238285064697
aF0.05682467296719551
aF-0.5372095108032227
aF0.8128814697265625
aF-1.268559455871582
aF-0.018203914165496826
aF0.022353947162628174
aF0.04257385805249214
aa(lp4
F3.548677921295166
aF151.4539337158203
aF-7.421182632446289
aF-0.48620495200157166
aF0.2996695637702942
aF0.13494206964969635
aF-1.2253422737121582
aF1.782196044921875
aF-1.802778720855713
aF-0.026189744472503662
aF0.04086431860923767
aF0.0688512846827507
aF-1.9150652885437012
aF3.261138916015625
aF-2.76444149017334
aF-0.03468170762062073
aF0.0711241066455841
aF0.08521315082907677
aF-0.5356192588806152
aF0.303253173828125
aF-0.8411159515380859
aF-0.017697781324386597
aF0.010604530572891235
aF0.05248941853642464
aa(lp5
F2.8492462635040283
aF151.9752197265625
aF-8.311503410339355
aF-0.4964587688446045
aF0.3137374818325043
aF0.16759365797042847
aF-1.6066515445709229
aF1.610321044921875
aF-2.0394210815429688
aF-0.02914804220199585
aF0.04024156928062439
aF0.08515771478414536
aF-2.5436341762542725
aF3.5294036865234375
aF-3.5666017532348633
aF-0.04516446590423584
aF0.08398422598838806
aF0.1167798563838005
aF-0.6696689128875732
aF-0.3087615966796875
aF-0.5122404098510742
aF-0.01313161849975586
aF-0.0035010874271392822
aF0.053535573184490204
aa(lp6
F2.246626615524292
aF152.3101043701172
aF-8.884953498840332
aF-0.5062126517295837
aF0.3287670314311981
aF0.2010558843612671
aF-1.7952840328216553
aF1.3383026123046875
aF-1.9795351028442383
aF-0.029820621013641357
aF0.04197704792022705
aF0.09515703469514847
aF-2.9965474605560303
aF3.5540771484375
aF-3.976466655731201
aF-0.053926557302474976
aF0.09241153299808502
aF0.14947905391454697
aF-0.5940206050872803
aF-0.877471923828125
aF0.01739645004272461
aF-0.005714684724807739
aF-0.00845743715763092
aF0.04083501547574997
aa(lp7
F1.7510639429092407
aF152.59146118164062
aF-9.312646865844727
aF-0.5159814357757568
aF0.34462741017341614
aF0.2363397628068924
aF-1.7976139783859253
aF1.1375274658203125
aF-1.8914642333984375
aF-0.02977648377418518
aF0.04495784640312195
aF0.10139769315719604
aF-3.305284857749939
aF3.497100830078125
aF-4.177488803863525
aF-0.06084012985229492
aF0.09846559166908264
aF0.1801401786506176
aF-0.2899430990219116
aF-1.2220458984375
aF0.3945603370666504
aF0.0012871623039245605
aF-0.008549898862838745
aF0.02265520766377449
aa(lp8
F1.4134736061096191
aF152.8562774658203
aF-9.652534484863281
aF-0.5234456062316895
aF0.3596845269203186
aF0.27031242847442627
aF-1.4357726573944092
aF0.8810577392578125
aF-1.3410310745239258
aF-0.02698683738708496
aF0.04594704508781433
aF0.1027187705039978
aF-3.360546588897705
aF3.184539794921875
aF-4.034130573272705
aF-0.06343039870262146
aF0.10087928175926208
aF0.20422164350748062
aF0.4890012741088867
aF-1.42242431640625
aF1.3520684242248535
aF0.009456723928451538
aF-0.008985191583633423
aF0.0012158975005149841
aa(lp9
F1.1774871349334717
aF153.07757568359375
aF-9.964783668518066
aF-0.5295788645744324
aF0.3717576265335083
aF0.305801659822464
aF-1.0691394805908203
aF0.7674713134765625
aF-1.0798301696777344
aF-0.023366212844848633
aF0.04299059510231018
aF0.1047457754611969
aF-3.2784106731414795
aF2.712677001953125
aF-3.6927013397216797
aF-0.06226813793182373
aF0.09826171398162842
aF0.22336571663618088
aF1.1401317119598389
aF-1.177734375
aF1.533041000366211
aF0.015535712242126465
aF-0.012280523777008057
aF-0.013874165713787079
aa(lp10
F1.194589376449585
aF153.09249877929688
aF-9.854448318481445
aF-0.531929075717926
aF0.3803790807723999
aF0.3361351788043976
aF-0.5564745664596558
aF0.50103759765625
aF-0.5418014526367188
aF-0.01594763994216919
aF0.035751670598983765
aF0.09979541599750519
aF-2.8473212718963623
aF2.120697021484375
aF-2.9490299224853516
aF-0.05553704500198364
aF0.09358909726142883
aF0.23023632913827896
aF1.7343721389770508
aF-1.118621826171875
aF1.865427017211914
aF0.023641765117645264
aF-0.022085756063461304
aF-0.030645497143268585
aa(lp11
F1.4151839017868042
aF153.01400756835938
aF-9.665889739990234
aF-0.5325194001197815
aF0.38851287961006165
aF0.36476075649261475
aF0.0017102956771850586
aF0.1577301025390625
aF-0.013355255126953125
aF-0.009073793888092041
aF0.028828352689743042
aF0.09444832801818848
aF-2.133494019508362
aF1.5600738525390625
aF-2.2447071075439453
aF-0.04631444811820984
aF0.08884331583976746
aF0.2298186868429184
aF2.136914610862732
aF-1.2446136474609375
aF2.217996597290039
aF0.028166860342025757
aF-0.031186610460281372
aF-0.04092203080654144
aa(lp12
F1.8212465047836304
aF152.7277069091797
aF-9.154356002807617
aF-0.5316357016563416
aF0.39695680141448975
aF0.389222115278244
aF0.6437593698501587
aF-0.3498687744140625
aF0.8104276657104492
aF-0.0020568370819091797
aF0.025199174880981445
aF0.08342045545578003
aF-1.027999758720398
aF0.7524871826171875
aF-0.8428525924682617
aF-0.03517693281173706
aF0.08321931958198547
aF0.22162845730781555
aF2.3155184984207153
aF-1.4522247314453125
aF2.46370792388916
aF0.0310632586479187
aF-0.03282096982002258
aF-0.05478754639625549
aa(lp13
F2.2627952098846436
aF152.43063354492188
aF-8.844279289245605
aF-0.533430814743042
aF0.4039001762866974
aF0.40612664818763733
aF1.0682058334350586
aF-0.661865234375
aF1.0101690292358398
aF-0.0015017390251159668
aF0.023521095514297485
aF0.06999146938323975
aF0.016168594360351562
aF0.1205291748046875
aF0.04067420959472656
aF-0.027218163013458252
aF0.07513314485549927
aF0.20507076382637024
aF2.1202430725097656
aF-1.4442596435546875
aF1.9796638488769531
aF0.02421468496322632
aF-0.028090953826904297
aF-0.06508782505989075
aa(lp14
F2.703165292739868
aF152.16543579101562
aF-8.693470001220703
aF-0.5354887843132019
aF0.41074466705322266
aF0.4205913543701172
aF1.287981390953064
aF-0.84857177734375
aF0.9724197387695312
aF-0.00296938419342041
aF0.02223178744316101
aF0.05583059787750244
aF0.9521013498306274
aF-0.426025390625
aF0.6191768646240234
aF-0.01950734853744507
aF0.06611725687980652
aF0.1842515915632248
aF1.6238614320755005
aF-1.2711181640625
aF1.325662612915039
aF0.013568580150604248
aF-0.021653681993484497
aF-0.07259039580821991
aa(lp15
F3.0801475048065186
aF151.9434051513672
aF-8.677511215209961
aF-0.5358641743659973
aF0.4182051122188568
aF0.4315868616104126
aF1.2589010000228882
aF-0.7843017578125
aF0.47684478759765625
aF-0.004228472709655762
aF0.021248310804367065
aF0.04236474633216858
aF1.6666738986968994
aF-0.912872314453125
aF0.9750232696533203
aF-0.012418568134307861
aF0.05852058529853821
aF0.16127443313598633
aF0.851128101348877
aF-0.655731201171875
aF-0.021333694458007812
aF0.003961622714996338
aF-0.016023963689804077
aF-0.07654494047164917
aa(lp16
F3.3182642459869385
aF151.75437927246094
aF-8.877045631408691
aF-0.5351088643074036
aF0.4246419072151184
aF0.4373495876789093
aF1.055469036102295
aF-0.6762542724609375
aF-0.03276634216308594
aF-0.0016780495643615723
aF0.02074173092842102
aF0.031222939491271973
aF2.140777111053467
aF-1.3231964111328125
aF1.087738037109375
aF-0.005529999732971191
aF0.05288428068161011
aF0.1315479278564453
aF-0.029839038848876953
aF-0.0293121337890625
aF-1.1532707214355469
aF0.002173900604248047
aF-0.011400818824768066
aF-0.06910204887390137
aa(lp17
F3.561978816986084
aF151.6395721435547
aF-9.016307830810547
aF-0.5328252911567688
aF0.436195969581604
aF0.43114933371543884
aF0.8588135242462158
aF-0.5258636474609375
aF-0.32283782958984375
aF0.0026634931564331055
aF0.025451302528381348
aF0.010557979345321655
aF2.367389440536499
aF-1.4529266357421875
aF0.8381404876708984
aF-0.0008962154388427734
aF0.0558168888092041
aF0.09501415491104126
aF-0.6497623920440674
aF0.4011993408203125
aF-1.483816146850586
aF0.006223201751708984
aF-0.004914283752441406
aF-0.07389819622039795
aa(lp18
F3.9518957138061523
aF151.47727966308594
aF-8.788576126098633
aF-0.5262857675552368
aF0.4431338608264923
aF0.41291484236717224
aF0.8717482089996338
aF-0.46612548828125
aF-0.11106491088867188
aF0.009578406810760498
aF0.024928748607635498
aF-0.018672019243240356
aF2.536711812019348
aF-1.5367279052734375
aF0.8773136138916016
aF0.006233632564544678
aF0.054620981216430664
aF0.048154085874557495
aF-0.7932153940200806
aF0.6044769287109375
aF-1.0994434356689453
aF0.012923181056976318
aF-0.004763484001159668
aF-0.08549812436103821
aa(lp19
F4.299684524536133
aF151.52969360351562
aF-9.149955749511719
aF-0.5157102942466736
aF0.45233896374702454
aF0.37880992889404297
aF0.9814202785491943
aF-0.2246856689453125
aF-0.27291011810302734
aF0.01939857006072998
aF0.027697056531906128
aF-0.05853965878486633
aF2.4784380197525024
aF-1.1980133056640625
aF0.0044002532958984375
aF0.01592540740966797
aF0.05538216233253479
aF-0.01041218638420105
aF-0.5155974626541138
aF0.7486419677734375
aF-0.5502204895019531
aF0.022871732711791992
aF1.195073127746582e-05
aF-0.10666713118553162
aa(lp20
F5.0911641120910645
aF151.0523681640625
aF-8.782621383666992
aF-0.4986412525177002
aF0.4550592005252838
aF0.33009669184684753
aF1.5291852951049805
aF-0.5872039794921875
aF0.2336864471435547
aF0.034184038639068604
aF0.01886323094367981
aF-0.10105264186859131
aF2.828368902206421
aF-1.378265380859375
aF0.06165790557861328
aF0.0347895622253418
aF0.051159024238586426
aF-0.0760299563407898
aF0.23000168800354004
aF0.203857421875
aF0.4057149887084961
aF0.03357851505279541
aF-0.013432562351226807
aF-0.12607532739639282
aa(lp21
F6.188182830810547
aF150.9319610595703
aF-9.049539566040039
aF-0.4743128716945648
aF0.4561994671821594
aF0.26364564895629883
aF2.2362871170043945
aF-0.545318603515625
aF-0.26096343994140625
aF0.051972895860672
aF0.013065606355667114
aF-0.1492691934108734
aF3.4850175380706787
aF-1.2334747314453125
aF-0.35606956481933594
aF0.061175912618637085
aF0.04545480012893677
aF-0.15694570541381836
aF0.9875566959381104
aF0.1428375244140625
aF-0.16585731506347656
aF0.04276987910270691
aF-0.01932358741760254
aF-0.14159268140792847
aa(lp22
F7.678905487060547
aF150.31564331054688
aF-9.208107948303223
aF-0.44514694809913635
aF0.44512537121772766
aF0.1873663067817688
aF3.379220962524414
aF-1.21405029296875
aF-0.058152198791503906
aF0.07056334614753723
aF-0.007213592529296875
aF-0.19144362211227417
aF4.598757982254028
aF-1.6277618408203125
aF-0.5305967330932617
aF0.09071722626686096
aF0.02692025899887085
aF-0.2442205548286438
aF2.1596839427948
aF-0.8003387451171875
aF0.4142923355102539
aF0.0504094660282135
aF-0.0413474440574646
aF-0.13866668939590454
aa(lp23
F8.932196617126465
aF149.13954162597656
aF-9.50734806060791
aF-0.4219328761100769
aF0.41794338822364807
aF0.11232127994298935
aF3.8410325050354004
aF-1.9128265380859375
aF-0.724726676940918
aF0.07670837640762329
aF-0.03711581230163574
aF-0.21777541190385818
aF5.613932371139526
aF-2.614837646484375
aF-0.6303024291992188
aF0.11317598819732666
aF-0.006698518991470337
aF-0.32502830773591995
aF2.0681326389312744
aF-1.2108154296875
aF-0.8191509246826172
aF0.04024076461791992
aF-0.06753310561180115
aF-0.11052251607179642
aa(lp24
F10.363349914550781
aF147.69532775878906
aF-8.75973129272461
aF-0.39160555601119995
aF0.38003167510032654
aF0.038382627069950104
aF4.175167083740234
aF-3.23663330078125
aF0.2898082733154297
aF0.08270731568336487
aF-0.07616779208183289
aF-0.22526302188634872
aF6.801371097564697
aF-3.944244384765625
aF0.2565765380859375
aF0.14121973514556885
aF-0.056164294481277466
aF-0.39276670664548874
aF1.5489630699157715
aF-2.529022216796875
aF0.3230400085449219
aF0.02419489622116089
aF-0.0961712896823883
aF-0.05775933712720871
aa(lp25
F11.20556354522705
aF146.16583251953125
aF-8.906669616699219
aF-0.367283433675766
aF0.33332234621047974
aF-0.034551020711660385
aF3.526658058166504
aF-4.149810791015625
aF0.3014383316040039
aF0.07786351442337036
aF-0.11180302500724792
aF-0.22191732749342918
aF7.253667831420898
aF-5.3114471435546875
aF-0.11809349060058594
aF0.15900233387947083
aF-0.10981151461601257
aF-0.4474658630788326
aF-0.20035171508789062
aF-2.9881744384765625
aF0.7209701538085938
aF-0.0032753050327301025
aF-0.11379453539848328
aF0.0036312080919742584
aa(lp26
F11.774576187133789
aF144.54144287109375
aF-9.222870826721191
aF-0.3510635197162628
aF0.2897586226463318
aF-0.10211122781038284
aF2.842379570007324
aF-4.5980987548828125
aF0.28447723388671875
aF0.07086935639381409
aF-0.12818476557731628
aF-0.2144325077533722
aF7.474891662597656
aF-6.988250732421875
aF-0.07291507720947266
aF0.16464677453041077
aF-0.16258034110069275
aF-0.4809211567044258
aF-1.7901325225830078
aF-2.20794677734375
aF0.6418695449829102
aF-0.022908061742782593
aF-0.09378919005393982
aF0.05205614119768143
aa(lp27
F12.09672737121582
aF143.4976348876953
aF-9.312189102172852
aF-0.3362559974193573
aF0.25606992840766907
aF-0.15132015943527222
aF1.733377456665039
aF-4.19769287109375
aF-0.5524578094482422
aF0.05534955859184265
aF-0.12396174669265747
aF-0.18970278650522232
aF7.005563259124756
aF-7.5547332763671875
aF-0.5295677185058594
aF0.1623852550983429
aF-0.19898927211761475
aF-0.48141685128211975
aF-3.5388083457946777
aF-0.8406524658203125
aF-0.575347900390625
aF-0.05168613791465759
aF-0.048934221267700195
aF0.10201127827167511
aa(lp28
F12.208373069763184
aF142.99119567871094
aF-10.352842330932617
aF-0.32464882731437683
aF0.23033180832862854
aF-0.1866123229265213
aF1.0028095245361328
aF-3.1746368408203125
aF-1.4461727142333984
aF0.04263460636138916
aF-0.1029905378818512
aF-0.15206130221486092
aF6.020190238952637
aF-7.940765380859375
aF-1.3033027648925781
aF0.149664044380188
aF-0.22586765885353088
aF-0.45025797188282013
aF-4.014571189880371
aF1.59149169921875
aF-1.5890426635742188
aF-0.06439483165740967
aF0.01988658308982849
aF0.1461353674530983
aa(lp29
F12.470780372619629
aF143.10125732421875
aF-11.485469818115234
aF-0.3142477869987488
aF0.2152642011642456
aF-0.20092567801475525
aF0.6962041854858398
aF-1.440185546875
aF-2.262598991394043
aF0.03681573271751404
aF-0.07449442148208618
aF-0.0988144502043724
aF4.791874885559082
aF-7.214385986328125
aF-2.2773618698120117
aF0.13089916110038757
aF-0.22986117005348206
aF-0.38829198479652405
aF-3.3994665145874023
aF4.334014892578125
aF-2.247836112976074
aF-0.0572676956653595
aF0.08087232708930969
aF0.19066308438777924
aa(lp30
F12.698330879211426
aF143.9087677001953
aF-12.622798919677734
aF-0.3037949502468109
aF0.21834848821163177
aF-0.19752925634384155
aF0.6016035079956055
aF0.4111328125
aF-3.310609817504883
aF0.03246104717254639
aF-0.03772144019603729
aF-0.046209096908569336
aF3.766134262084961
aF-5.23077392578125
aF-3.115450859069824
aF0.11813792586326599
aF-0.1995949000120163
aF-0.3098505362868309
aF-2.56292724609375
aF6.05303955078125
aF-3.5057687759399414
aF-0.05321583151817322
aF0.12415201961994171
aF0.21743234246969223
aa(lp31
F12.947264671325684
aF144.84701538085938
aF-13.208296775817871
aF-0.2973136305809021
aF0.2394520342350006
aF-0.1727754771709442
aF0.7388916015625
aF1.8558197021484375
aF-2.855454444885254
aF0.02733519673347473
aF0.00912022590637207
aF0.013836845755577087
aF2.5839147567749023
aF-2.8483123779296875
aF-4.448565483093262
aF0.09429192543029785
aF-0.14057964086532593
aF-0.21115810424089432
aF-1.1061315536499023
aF6.5599517822265625
aF-1.262343406677246
aF-0.03962153196334839
aF0.15882009267807007
aF0.2388317957520485
aa(lp32
F13.008066177368164
aF145.9279022216797
aF-13.74618911743164
aF-0.2961324453353882
aF0.2665601372718811
aF-0.1286306083202362
aF0.5372858047485352
aF2.8266448974609375
aF-2.2607192993164062
aF0.018115341663360596
aF0.0512959361076355
aF0.07229506969451904
aF1.8025026321411133
aF-0.2379302978515625
aF-4.839519500732422
aF0.07115098834037781
aF-0.06676220893859863
aF-0.09407958760857582
aF-0.727931022644043
aF5.8912200927734375
aF0.3180809020996094
aF-0.034920305013656616
aF0.16935408115386963
aF0.2386697269976139
aa(lp33
F12.849762916564941
aF146.7505340576172
aF-14.025212287902832
aF-0.29873666167259216
aF0.30181971192359924
aF-0.07415781915187836
aF0.15143203735351562
aF2.841766357421875
aF-1.4024133682250977
aF0.00505828857421875
aF0.08347122371196747
aF0.1233714371919632
aF1.0751867294311523
aF2.2090911865234375
aF-4.802341461181641
aF0.052326858043670654
aF0.012061089277267456
aF0.027953408658504486
aF-0.7723226547241211
aF3.4744415283203125
aF1.9975147247314453
aF-0.042210280895233154
aF0.15488135814666748
aF0.2187894657254219
aa(lp34
F12.567673683166504
aF147.4768524169922
aF-14.694493293762207
aF-0.31379687786102295
aF0.33613744378089905
aF-0.00670085521414876
aF-0.3795909881591797
aF2.6298370361328125
aF-1.486196517944336
aF-0.01648324728012085
aF0.09668540954589844
aF0.16607462195679545
aF0.4709463119506836
aF3.979217529296875
aF-5.3823041915893555
aF0.02245911955833435
aF0.08006751537322998
aF0.14461930422112346
aF-1.230128288269043
aF1.28045654296875
aF2.4099111557006836
aF-0.05542561411857605
aF0.1133033037185669
aF0.18752993969246745
aa(lp35
F12.0712251663208
aF142.6681671142578
aF-11.260764122009277
aF-0.3215465247631073
aF0.32795020937919617
aF0.06807667762041092
aF-0.9368410110473633
aF-3.259735107421875
aF2.4854249954223633
aF-0.025414079427719116
aF0.061390072107315063
aF0.19670728594064713
aF-0.1371479034423828
aF-0.323028564453125
aF-0.9079217910766602
aF0.0031023025512695312
aF0.09761840105056763
aF0.2546890005469322
aF-1.7365341186523438
aF-6.196441650390625
aF5.878771781921387
aF-0.053930461406707764
aF0.0251617431640625
aF0.13872557133436203
aa(lp36
F11.329654693603516
aF143.7322998046875
aF-13.806225776672363
aF-0.3504985570907593
aF0.3570575714111328
aF0.14560864865779877
aF-1.5201082229614258
aF-3.0182342529296875
aF0.21898651123046875
aF-0.051761895418167114
aF0.05523785948753357
aF0.21976646780967712
aF-1.1411256790161133
aF0.63104248046875
aF-2.320755958557129
aF-0.0362507700920105
aF0.1417933702468872
aF0.346534326672554
aF-1.8990907669067383
aF-6.667510986328125
aF2.7587289810180664
aF-0.06727302074432373
aF-0.03131765127182007
aF0.09299860894680023
aa(lp37
F10.973783493041992
aF144.3578643798828
aF-15.328372955322266
aF-0.3713485300540924
aF0.37024083733558655
aF0.215081125497818
aF-1.5938901901245117
aF-3.118988037109375
aF-0.6338796615600586
aF-0.05755165219306946
aF0.0341033935546875
aF0.22178198071196675
aF-1.7245473861694336
aF0.4490966796875
aF-2.7055740356445312
aF-0.0675535798072815
aF0.15189234912395477
aF0.41261038184165955
aF-1.4632329940795898
aF-6.68707275390625
aF1.437814712524414
aF-0.04754972457885742
aF-0.08368556201457977
aF0.03095357958227396
aa(lp38
F10.191303253173828
aF148.4971466064453
aF-18.321582794189453
aF-0.3914635181427002
aF0.408882737159729
aF0.2432338297367096
aF-1.8799219131469727
aF5.8289794921875
aF-7.060818672180176
aF-0.0699169933795929
aF0.08093252778053284
aF0.17515715211629868
aF-2.7559614181518555
aF3.6501312255859375
aF-5.113286018371582
aF-0.0941498875617981
aF0.1694307029247284
aF0.4160093069076538
aF-1.0038824081420898
aF8.007827758789062
aF-9.00835132598877
aF-0.045684099197387695
aF-0.00756564736366272
aF-0.06569500267505646
aa(lp39
F9.934404373168945
aF150.78045654296875
aF-19.843151092529297
aF-0.40878716111183167
aF0.4245559573173523
aF0.2882864475250244
aF-1.3952503204345703
aF7.04815673828125
aF-6.036925315856934
aF-0.05828860402107239
aF0.06749838590621948
aF0.14267779886722565
aF-3.0736618041992188
aF4.8525543212890625
aF-6.096961975097656
aF-0.11265471577644348
aF0.1579958200454712
aF0.4169170558452606
aF0.2831611633300781
aF9.243759155273438
aF-5.976888656616211
aF-0.003922492265701294
aF-0.022999048233032227
aF-0.13156145811080933
aa(lp40
F10.304455757141113
aF151.27455139160156
aF-20.161741256713867
aF-0.3933398723602295
aF0.4410473108291626
aF0.32445475459098816
aF-0.6693277359008789
aF6.91668701171875
aF-4.833368301391602
aF-0.021991342306137085
aF0.07080647349357605
aF0.10937362909317017
aF-2.545307159423828
aF4.524017333984375
aF-6.136528968811035
aF-0.09460321068763733
aF0.13922759890556335
aF0.3986125737428665
aF1.2066516876220703
aF9.309356689453125
aF-3.530207633972168
aF0.05062052607536316
aF0.002385348081588745
aF-0.17986531555652618
aa(lp41
F10.79159927368164
aF151.45643615722656
aF-20.176918029785156
aF-0.3814004063606262
aF0.4615391790866852
aF0.3422461748123169
aF0.6002960205078125
aF2.95928955078125
aF-1.8553352355957031
aF0.010063111782073975
aF0.05265644192695618
aF0.0990123450756073
aF-1.7760744094848633
aF3.979583740234375
aF-5.482424736022949
aF-0.06760352849960327
aF0.12540173530578613
aF0.34894703002646565
aF2.9766664505004883
aF1.938995361328125
aF1.771754264831543
aF0.08772975206375122
aF-0.02008885145187378
aF-0.15092233987525105
aa(lp42
F10.467905044555664
aF154.69320678710938
aF-22.099618911743164
aF-0.3615363836288452
aF0.5018491744995117
aF0.29504770040512085
aF0.5335006713867188
aF3.912750244140625
aF-2.256467819213867
aF0.04725077748298645
aF0.07729321718215942
aF0.0067612528800964355
aF-1.6033201217651367
aF12.025039672851562
aF-10.838854789733887
aF-0.039989858865737915
aF0.17389896512031555
aF0.22697102278470993
aF2.670321464538574
aF-4.1995391845703125
aF6.325919151306152
aF0.13449141383171082
aF-0.019312530755996704
aF-0.21344851702451706
aa(lp43
F11.35373306274414
aF152.43209838867188
aF-21.364498138427734
aF-0.34697195887565613
aF0.4978332221508026
aF0.31598302721977234
aF1.0492773056030273
aF1.1575469970703125
aF-1.2027568817138672
aF0.046367913484573364
aF0.056785911321640015
aF-0.00847172737121582
aF0.024078369140625
aF8.699798583984375
aF-7.558272361755371
aF0.0035265982151031494
aF0.1407756507396698
aF0.17037437856197357
aF2.0744762420654297
aF-6.38470458984375
aF5.152758598327637
aF0.08920922875404358
aF-0.02720382809638977
aF-0.1873178333044052
aa(lp44
F12.73359203338623
aF147.60696411132812
aF-19.61355209350586
aF-0.32575345039367676
aF0.488850474357605
aF0.31123673915863037
aF1.9419927597045898
aF-3.8494720458984375
aF0.5633659362792969
aF0.05564695596694946
aF0.0273112952709198
aF-0.031009435653686523
aF1.7598085403442383
aF3.2490997314453125
aF-4.285179138183594
aF0.04559507966041565
aF0.11860963702201843
aF0.09615561366081238
aF2.1241769790649414
aF-10.948043823242188
aF5.4119110107421875
aF0.06569883227348328
aF-0.06398704648017883
aF-0.15817448496818542
aa(lp45
F14.342330932617188
aF144.46485900878906
aF-18.0282039642334
aF-0.3286755681037903
aF0.47156772017478943
aF0.28620174527168274
aF3.8744258880615234
aF-10.228347778320312
aF4.071414947509766
aF0.03286081552505493
aF-0.03028145432472229
aF-0.00884595513343811
aF4.151027679443359
aF-4.03228759765625
aF0.2933788299560547
aF0.06278795003890991
aF0.06268498301506042
aF0.042967915534973145
aF3.5978240966796875
aF-16.424407958984375
aF7.849451065063477
aF0.002933681011199951
aF-0.123247891664505
aF-0.060659825801849365
aa(lp46
F16.0025577545166
aF142.48228454589844
aF-16.70780372619629
aF-0.32443320751190186
aF0.45009616017341614
aF0.23908165097236633
aF4.648824691772461
aF-9.949813842773438
aF4.656694412231445
aF0.022538751363754272
aF-0.047737061977386475
aF-0.076901376247406
aF6.068153381347656
aF-8.298171997070312
aF3.135347366333008
aF0.08435395359992981
aF0.025540202856063843
aF-0.04920479655265808
aF3.2294960021972656
aF-11.601455688476562
aF6.178041458129883
aF-0.039276450872421265
aF-0.12101432681083679
aF-0.10459795594215393
aa(lp47
F17.644515991210938
aF140.94888305664062
aF-15.454206466674805
aF-0.31638312339782715
aF0.42345917224884033
aF0.17831988632678986
aF4.910923957824707
aF-6.6580810546875
aF4.159345626831055
aF0.00937032699584961
aF-0.06539130210876465
aF-0.13291685283184052
aF7.340060234069824
aF-10.325668334960938
aF4.7075347900390625
aF0.07695674896240234
aF-0.017588138580322266
aF-0.1461348682641983
aF2.48178768157959
aF-2.9904937744140625
aF3.611156463623047
aF-0.058216094970703125
aF-0.11319446563720703
aF-0.11969883739948273
aa(lp48
F18.96634864807129
aF139.60545349121094
aF-13.682140350341797
aF-0.3052658140659332
aF0.38703739643096924
aF0.10264034569263458
aF4.624017715454102
aF-4.859405517578125
aF4.346063613891602
aF0.023409754037857056
aF-0.08453032374382019
aF-0.18356139957904816
aF8.174749374389648
aF-11.850982666015625
aF6.494777679443359
aF0.076134592294693
aF-0.07450178265571594
aF-0.2396058291196823
aF1.0732860565185547
aF2.132171630859375
aF2.1973495483398438
aF-0.029315084218978882
aF-0.09455886483192444
aF-0.127516970038414
aa(lp49
F19.810813903808594
aF138.2088623046875
aF-12.243256568908691
aF-0.2957223951816559
aF0.3407774567604065
aF0.02897382155060768
aF3.808256149291992
aF-4.2734222412109375
aF4.464547157287598
aF0.02871081233024597
aF-0.10931870341300964
aF-0.21010782942175865
aF9.34290885925293
aF-16.484344482421875
aF9.856362342834473
aF0.06581398844718933
aF-0.16107171773910522
aF-0.26607387885451317
aF-1.7263965606689453
aF7.9375
aF-0.9272680282592773
aF-0.008392363786697388
aF-0.05756568908691406
aF-0.15414177998900414
aa(lp50
F20.051753997802734
aF136.88140869140625
aF-11.705358505249023
aF-0.2808419466018677
aF0.2901715934276581
aF-0.0479375384747982
aF2.407238006591797
aF-4.067474365234375
aF3.7488479614257812
aF0.03554117679595947
aF-0.13328757882118225
aF-0.22625742480158806
aF8.698020935058594
aF-15.550689697265625
aF9.659139633178711
aF0.06613001227378845
aF-0.20766162872314453
aF-0.36392056569457054
aF-3.883544921875
aF7.415740966796875
aF-2.1614437103271484
aF0.004952341318130493
aF-0.05891352891921997
aF-0.08859428390860558
aa.