(lp0
(lp1
F0.7318267822265625
aF-0.12158203125
aF-0.0048007965087890625
aF0.004568576812744141
aF-0.0008527636528015137
aF-0.003131777048110962
aF1.9088058471679688
aF0.082122802734375
aF-0.052417755126953125
aF0.013173043727874756
aF0.004416957497596741
aF-0.00997936725616455
aF-0.44515228271484375
aF-0.325286865234375
aF0.042816162109375
aF-0.004035890102386475
aF-0.006122484803199768
aF0.003715813159942627
aF-75.99347686767578
aF266.8019104003906
aF21.507503509521484
aF-0.596368670463562
aF0.2028799206018448
aF0.34695854783058167
aa(lp2
F0.6174468994140625
aF-0.291259765625
aF0.08400344848632812
aF0.00541841983795166
aF-0.0033505260944366455
aF0.00013813376426696777
aF1.6637191772460938
aF-0.22943115234375
aF-0.018114089965820312
aF0.014505326747894287
aF0.0008332282304763794
aF-0.00765720009803772
aF-0.42882537841796875
aF-0.35308837890625
aF0.18612098693847656
aF-0.003668487071990967
aF-0.00753428041934967
aF0.007933467626571655
aF-75.88545227050781
aF266.6711730957031
aF21.563274383544922
aF-0.5938259363174438
aF0.2003859132528305
aF0.34783175587654114
aa(lp3
F0.6368179321289062
aF-0.448883056640625
aF0.06395912170410156
aF0.006282031536102295
aF-0.005654454231262207
aF0.0037725865840911865
aF1.6243057250976562
aF-0.35845947265625
aF0.037746429443359375
aF0.011788547039031982
aF-0.0032032430171966553
aF-0.00435107946395874
aF-0.35066986083984375
aF-0.539306640625
aF0.09017181396484375
aF0.0007755160331726074
aF-0.008105665445327759
aF0.011896252632141113
aF-75.62141418457031
aF266.5102233886719
aF21.609046936035156
aF-0.5920190215110779
aF0.19917793571949005
aF0.34969595074653625
aa(lp4
F0.3997344970703125
aF-0.444061279296875
aF0.12300300598144531
aF0.0061759352684021
aF-0.004105359315872192
aF0.00021126866340637207
aF1.363372802734375
aF-0.53717041015625
aF0.08057785034179688
aF0.012268781661987305
aF-0.004693254828453064
aF-0.004515886306762695
aF-0.56390380859375
aF-0.3509521484375
aF0.16542816162109375
aF8.308887481689453e-05
aF-0.003517463803291321
aF0.0049384236335754395
aF-75.59374237060547
aF266.35784912109375
aF21.63050651550293
aF-0.5901927351951599
aF0.1987745612859726
aF0.34716981649398804
aa(lp5
F0.35655975341796875
aF-0.396453857421875
aF0.06768226623535156
aF0.005575418472290039
aF-0.004124239087104797
aF-0.0007539689540863037
aF1.1964111328125
aF-0.648773193359375
aF0.11865234375
aF0.012686729431152344
aF-0.007471010088920593
aF-0.003012537956237793
aF-0.4832916259765625
aF-0.144134521484375
aF0.016712188720703125
aF-0.0015358924865722656
aF-0.0007774680852890015
aF0.0015046000480651855
aF-75.52889251708984
aF266.27471923828125
aF21.630956649780273
aF-0.5882505178451538
aF0.1962616741657257
aF0.34707778692245483
aa(lp6
F0.14118194580078125
aF-0.387908935546875
aF-0.0399932861328125
aF0.0054343342781066895
aF-0.004873499274253845
aF-0.001157224178314209
aF1.0226669311523438
aF-0.840118408203125
aF0.08978271484375
aF0.012659668922424316
aF-0.009432002902030945
aF0.000845104455947876
aF-0.7403030395507812
aF0.064300537109375
aF-0.169769287109375
aF-0.0017910003662109375
aF-0.0003149956464767456
aF-0.003159552812576294
aF-75.48023223876953
aF266.122314453125
aF21.569053649902344
aF-0.5865846872329712
aF0.1943044364452362
aF0.34853872656822205
aa(lp7
F0.157958984375
aF-0.406982421875
aF-0.04506683349609375
aF0.004064977169036865
aF-0.003490433096885681
aF-0.0006543099880218506
aF0.82244873046875
aF-1.00823974609375
aF0.04035186767578125
aF0.012173295021057129
aF-0.009548261761665344
aF0.0005921423435211182
aF-0.50653076171875
aF0.19427490234375
aF-0.13048553466796875
aF-0.0040433406829833984
aF0.002567395567893982
aF-0.0019007623195648193
aF-75.43578338623047
aF265.95086669921875
aF21.585439682006836
aF-0.586127758026123
aF0.19528412818908691
aF0.3465155065059662
aa(lp8
F0.07489013671875
aF-0.495635986328125
aF-0.07373046875
aF0.0031325221061706543
aF-0.0013630092144012451
aF-6.324052810668945e-05
aF0.5394744873046875
aF-1.0228271484375
aF0.04972267150878906
aF0.011250674724578857
aF-0.007981255650520325
aF5.599856376647949e-05
aF-0.3896942138671875
aF0.03155517578125
aF-0.19718360900878906
aF-0.004985630512237549
aF0.0052552372217178345
aF-0.0001824796199798584
aF-75.4540023803711
aF265.7790832519531
aF21.557226181030273
aF-0.5851179957389832
aF0.19489866495132446
aF0.34701454639434814
aa(lp9
F0.14032745361328125
aF-0.5667724609375
aF0.2639732360839844
aF0.005829215049743652
aF0.0015636086463928223
aF-0.0018237829208374023
aF0.5455474853515625
aF-1.115631103515625
aF0.26975250244140625
aF0.013070464134216309
aF-0.004517868161201477
aF-0.0011168122291564941
aF-0.264892578125
aF-0.017913818359375
aF0.2581939697265625
aF-0.001412034034729004
aF0.007645085453987122
aF-0.0025307536125183105
aF-75.33990478515625
aF265.5555419921875
aF21.833026885986328
aF-0.5807554721832275
aF0.19586804509162903
aF0.34671494364738464
aa(lp10
F0.1309356689453125
aF-0.58929443359375
aF0.32106971740722656
aF0.00877535343170166
aF0.00380001962184906
aF-0.0011536180973052979
aF0.31656646728515625
aF-1.148651123046875
aF0.29746246337890625
aF0.014666616916656494
aF-9.378790855407715e-05
aF-0.004334062337875366
aF-0.05469512939453125
aF-0.029937744140625
aF0.3446769714355469
aF0.002884089946746826
aF0.007693827152252197
aF0.0020268261432647705
aF-75.30484771728516
aF265.361572265625
aF21.906509399414062
aF-0.5773524045944214
aF0.19908414781093597
aF0.3453618884086609
aa(lp11
F0.05410003662109375
aF-0.455413818359375
aF0.4425086975097656
aF0.011103630065917969
aF0.006930708885192871
aF-0.0034200549125671387
aF0.19384002685546875
aF-1.0341796875
aF0.3692283630371094
aF0.016178369522094727
aF0.0030548125505447388
aF-0.0035753250122070312
aF-0.08563995361328125
aF0.12335205078125
aF0.5157890319824219
aF0.006028890609741211
aF0.010806605219841003
aF-0.003264784812927246
aF-75.39990234375
aF265.32366943359375
aF21.99973487854004
aF-0.5740143656730652
aF0.20182937383651733
aF0.343594491481781
aa(lp12
F-0.327178955078125
aF-0.298370361328125
aF-0.06664848327636719
aF0.010513067245483398
aF0.006509318947792053
aF-0.002211064100265503
aF-0.13819122314453125
aF-1.017547607421875
aF0.1354217529296875
aF0.018008112907409668
aF0.0061156898736953735
aF-0.0025739073753356934
aF-0.5161666870117188
aF0.420806884765625
aF-0.2687187194824219
aF0.003018021583557129
aF0.006902948021888733
aF-0.0018482208251953125
aF-75.66708374023438
aF265.2571716308594
aF21.76637840270996
aF-0.5702424049377441
aF0.20237736403942108
aF0.34450387954711914
aa(lp13
F-0.5282058715820312
aF-0.30718994140625
aF-0.1530590057373047
aF0.010634064674377441
aF0.00437571108341217
aF-0.0020458102226257324
aF-0.35282135009765625
aF-1.06793212890625
aF0.18439674377441406
aF0.019866347312927246
aF0.009155422449111938
aF-0.00522264838218689
aF-0.7035903930664062
aF0.45355224609375
aF-0.49051475524902344
aF0.0014017820358276367
aF-0.00040400028228759766
aF0.0011310279369354248
aF-75.83305358886719
aF265.05438232421875
aF21.753450393676758
aF-0.566718339920044
aF0.20345985889434814
aF0.34331607818603516
aa(lp14
F-0.6810150146484375
aF-0.36297607421875
aF-0.42951202392578125
aF0.01008981466293335
aF0.004352256655693054
aF-0.003347933292388916
aF-0.6451339721679688
aF-0.99017333984375
aF-0.015216827392578125
aF0.02220320701599121
aF0.010897502303123474
aF-0.006268948316574097
aF-0.7168960571289062
aF0.26422119140625
aF-0.8438072204589844
aF-0.0020235776901245117
aF-0.0021929889917373657
aF-0.00042691826820373535
aF-76.08091735839844
aF264.960693359375
aF21.570222854614258
aF-0.5639245510101318
aF0.2061816304922104
aF0.3402465581893921
aa(lp15
F-0.5899429321289062
aF-0.452239990234375
aF-0.151824951171875
aF0.00928729772567749
aF0.0037250518798828125
aF-0.0030218660831451416
aF-0.8030242919921875
aF-0.974151611328125
aF0.0573272705078125
aF0.024162888526916504
aF0.011203750967979431
aF-0.0055325329303741455
aF-0.376861572265625
aF0.069671630859375
aF-0.3609771728515625
aF-0.0055882930755615234
aF-0.003753647208213806
aF-0.0005111992359161377
aF-76.25702667236328
aF264.804931640625
aF21.614553451538086
aF-0.5609551072120667
aF0.2061024159193039
aF0.341482013463974
aa(lp16
F-0.489898681640625
aF-0.348419189453125
aF0.10226058959960938
aF0.008600115776062012
aF0.002576500177383423
aF-0.0017070770263671875
aF-0.9830474853515625
aF-0.849578857421875
aF0.022684097290039062
aF0.022637248039245605
aF0.010168313980102539
aF-0.005105942487716675
aF0.0032501220703125
aF0.152740478515625
aF0.1818370819091797
aF-0.005437016487121582
aF-0.005015313625335693
aF0.0016917884349822998
aF-76.32295227050781
aF264.7059631347656
aF21.855710983276367
aF-0.5581182241439819
aF0.20603635907173157
aF0.34160900115966797
aa(lp17
F-0.47856903076171875
aF-0.325653076171875
aF0.3001823425292969
aF0.007455766201019287
aF0.0014551728963851929
aF0.0015262365341186523
aF-1.254638671875
aF-0.726531982421875
aF-0.03610420227050781
aF0.020883619785308838
aF0.008552655577659607
aF-0.0035890936851501465
aF0.2975006103515625
aF0.075225830078125
aF0.6364688873291016
aF-0.005972087383270264
aF-0.005642309784889221
aF0.006641566753387451
aF-76.55948638916016
aF264.6350402832031
aF21.870405197143555
aF-0.5564687848091125
aF0.20763680338859558
aF0.34177279472351074
aa(lp18
F-0.525146484375
aF-0.19384765625
aF0.31867027282714844
aF0.006914496421813965
aF0.0024037212133407593
aF-0.0008513033390045166
aF-1.3822708129882812
aF-0.71258544921875
aF-0.06651115417480469
aF0.0199737548828125
aF0.006676763296127319
aF-0.0029637813568115234
aF0.33197784423828125
aF0.32489013671875
aF0.7038516998291016
aF-0.00614476203918457
aF-0.0018693208694458008
aF0.0012611746788024902
aF-76.78217315673828
aF264.611083984375
aF21.933223724365234
aF-0.5540406107902527
aF0.20850613713264465
aF0.3406307101249695
aa(lp19
F-0.6824188232421875
aF-0.241973876953125
aF0.06644058227539062
aF0.006438076496124268
aF0.003578752279281616
aF-0.000474393367767334
aF-1.338287353515625
aF-0.793182373046875
aF0.15577316284179688
aF0.018562257289886475
aF0.007237747311592102
aF-0.003369271755218506
aF-0.02655029296875
aF0.309234619140625
aF-0.022891998291015625
aF-0.0056861042976379395
aF-8.024275302886963e-05
aF0.002420485019683838
aF-77.00537109375
aF264.4639892578125
aF21.922151565551758
aF-0.5516801476478577
aF0.20961511135101318
aF0.34113460779190063
aa(lp20
F-0.6577072143554688
aF-0.09661865234375
aF0.1067657470703125
aF0.008417785167694092
aF0.0008591562509536743
aF-0.0016879737377166748
aF-1.3841400146484375
aF-0.515960693359375
aF0.22372055053710938
aF0.01866734027862549
aF0.005036100745201111
aF-0.003231257200241089
aF0.0687255859375
aF0.322723388671875
aF-0.010189056396484375
aF-0.0018317699432373047
aF-0.003317788243293762
aF-0.00014469027519226074
aF-77.21719360351562
aF264.5384216308594
aF21.977170944213867
aF-0.5480509996414185
aF0.20849595963954926
aF0.34008482098579407
aa(lp21
F-0.49477386474609375
aF-0.1566162109375
aF0.30983924865722656
aF0.008080124855041504
aF0.0014367550611495972
aF-0.002604246139526367
aF-1.1960296630859375
aF-0.5062255859375
aF0.6728401184082031
aF0.017964065074920654
aF0.0037612617015838623
aF-0.0022200942039489746
aF0.20648193359375
aF0.1929931640625
aF-0.05316162109375
aF-0.0018038153648376465
aF-0.000887751579284668
aF-0.0029883980751037598
aF-77.27694702148438
aF264.4544677734375
aF22.24306297302246
aF-0.5459604859352112
aF0.20994289219379425
aF0.3380264639854431
aa(lp22
F-0.56494140625
aF-0.0079345703125
aF0.30315208435058594
aF0.007942676544189453
aF-0.0007735788822174072
aF-0.00033721327781677246
aF-1.3132858276367188
aF-0.348876953125
aF0.6107501983642578
aF0.017217636108398438
aF0.0027391165494918823
aF-0.0006846189498901367
aF0.18340301513671875
aF0.3330078125
aF-0.0044460296630859375
aF-0.0013322830200195312
aF-0.004286274313926697
aF1.0192394256591797e-05
aF-77.5703125
aF264.4560546875
aF22.225303649902344
aF-0.5437374711036682
aF0.20884153246879578
aF0.34079739451408386
aa(lp23
F-0.5716323852539062
aF-0.12744140625
aF0.2684764862060547
aF0.007124185562133789
aF-0.0024400949478149414
aF0.0014802217483520508
aF-1.4658737182617188
aF-0.29498291015625
aF0.3899364471435547
aF0.017191410064697266
aF1.9505620002746582e-05
aF-4.3958425521850586e-05
aF0.32260894775390625
aF0.04010009765625
aF0.1470165252685547
aF-0.0029430389404296875
aF-0.004899695515632629
aF0.003004401922225952
aF-77.78882598876953
aF264.4109802246094
aF22.245647430419922
aF-0.5409268140792847
aF0.20605586469173431
aF0.3415650427341461
aa(lp24
F-0.8217315673828125
aF0.043914794921875
aF-0.07019424438476562
aF0.005984067916870117
aF-0.003519997000694275
aF0.004931211471557617
aF-1.5391921997070312
aF-0.13665771484375
aF0.3024635314941406
aF0.016492366790771484
aF-0.0012139081954956055
aF0.0011848807334899902
aF-0.10427093505859375
aF0.2244873046875
aF-0.4428520202636719
aF-0.00452423095703125
aF-0.005826085805892944
aF0.008677542209625244
aF-78.09867858886719
aF264.4983825683594
aF22.172868728637695
aF-0.5399764180183411
aF0.20642289519309998
aF0.34295767545700073
aa(lp25
F-0.7821121215820312
aF0.22186279296875
aF0.017238616943359375
aF0.0046607255935668945
aF-0.0024506598711013794
aF0.003700435161590576
aF-1.57025146484375
aF0.06683349609375
aF0.30931854248046875
aF0.014963865280151367
aF-0.0021152645349502563
aF0.003867119550704956
aF0.0060272216796875
aF0.37689208984375
aF-0.27484130859375
aF-0.005642414093017578
aF-0.0027860552072525024
aF0.0035337507724761963
aF-78.35242462158203
aF264.67791748046875
aF22.242542266845703
aF-0.5390767455101013
aF0.2063908725976944
aF0.34449782967567444
aa(lp26
F-0.8672027587890625
aF0.499420166015625
aF-0.003093719482421875
aF0.0026760101318359375
aF0.0018402040004730225
aF-0.0004685819149017334
aF-1.6506576538085938
aF0.4464111328125
aF0.3204021453857422
aF0.013429343700408936
aF-0.0017190426588058472
aF-3.814697265625e-05
aF-0.08374786376953125
aF0.55242919921875
aF-0.32658958435058594
aF-0.00807732343673706
aF0.005399450659751892
aF-0.0008990168571472168
aF-78.6560287475586
aF264.910400390625
aF22.2425537109375
aF-0.5382508039474487
aF0.20789606869220734
aF0.3410964608192444
aa(lp27
F-0.815765380859375
aF0.576904296875
aF-0.007869720458984375
aF0.002186894416809082
aF0.0018472820520401
aF-0.0012297332286834717
aF-1.6972503662109375
aF0.536865234375
aF0.18782806396484375
aF0.010261476039886475
aF-0.0002257823944091797
aF0.0016431212425231934
aF0.0657196044921875
aF0.616943359375
aF-0.2035675048828125
aF-0.0058876872062683105
aF0.00392034649848938
aF-0.004102587699890137
aF-78.91444396972656
aF265.0752868652344
aF22.16499900817871
aF-0.537789523601532
aF0.20827017724514008
aF0.34172794222831726
aa(lp28
F-0.7605438232421875
aF0.62530517578125
aF-0.06261825561523438
aF0.0015254616737365723
aF0.0031678229570388794
aF-0.004932403564453125
aF-1.8360214233398438
aF0.8487548828125
aF-0.06313896179199219
aF0.008409202098846436
aF-0.0003841966390609741
aF0.0015389621257781982
aF0.31493377685546875
aF0.40185546875
aF-0.06209754943847656
aF-0.005358278751373291
aF0.006719842553138733
aF-0.011403769254684448
aF-79.11296844482422
aF265.30322265625
aF22.17992401123047
aF-0.5375512838363647
aF0.20955869555473328
aF0.3395654261112213
aa(lp29
F-0.7563400268554688
aF0.523712158203125
aF-0.3416023254394531
aF0.0007107257843017578
aF0.001516774296760559
aF0.0004093647003173828
aF-1.8420562744140625
aF0.978057861328125
aF-0.3243522644042969
aF0.00619739294052124
aF0.0005713105201721191
aF0.0007084310054779053
aF0.329376220703125
aF0.069366455078125
aF-0.3588523864746094
aF-0.004775941371917725
aF0.002462238073348999
aF0.00011029839515686035
aF-79.41236877441406
aF265.4341125488281
aF21.900951385498047
aF-0.537540078163147
aF0.2094128429889679
aF0.34150582551956177
aa(lp30
F-0.6019210815429688
aF0.608306884765625
aF-0.1668834686279297
aF0.00048530101776123047
aF0.0003604292869567871
aF0.0012773871421813965
aF-1.7275390625
aF1.272613525390625
aF-0.24753189086914062
aF0.003622591495513916
aF0.002574741840362549
aF0.001440286636352539
aF0.5236968994140625
aF-0.055999755859375
aF-0.08623504638671875
aF-0.002651989459991455
aF-0.0018538832664489746
aF0.001114487648010254
aF-79.51636505126953
aF265.68359375
aF21.99811553955078
aF-0.5373042225837708
aF0.20863060653209686
aF0.34300532937049866
aa(lp31
F-0.4813232421875
aF0.611907958984375
aF-0.10645675659179688
aF0.00021964311599731445
aF-0.0009502321481704712
aF0.004243761301040649
aF-1.4956130981445312
aF1.416748046875
aF-0.09940147399902344
aF0.002644777297973633
aF0.0021855682134628296
aF0.0008515119552612305
aF0.5329666137695312
aF-0.19293212890625
aF-0.11351203918457031
aF-0.002205491065979004
aF-0.004086032509803772
aF0.007636010646820068
aF-79.59429168701172
aF265.9151306152344
aF22.073467254638672
aF-0.5373316407203674
aF0.2086084634065628
aF0.34380918741226196
aa(lp32
F-0.24925994873046875
aF0.702117919921875
aF0.319183349609375
aF-4.673004150390625e-05
aF-0.0006112456321716309
aF0.0029402971267700195
aF-1.3092041015625
aF1.45831298828125
aF-0.02240753173828125
aF0.0014899373054504395
aF0.0024107247591018677
aF-5.170702934265137e-05
aF0.8106842041015625
aF-0.0540771484375
aF0.6607742309570312
aF-0.001583397388458252
aF-0.0036332160234451294
aF0.00593230128288269
aF-79.66162872314453
aF266.13623046875
aF22.220134735107422
aF-0.5375868082046509
aF0.20880159735679626
aF0.3444461226463318
aa(lp33
F-0.35712432861328125
aF0.773712158203125
aF0.10158729553222656
aF4.5180320739746094e-05
aF0.00042387843132019043
aF-0.0008901059627532959
aF-1.2174606323242188
aF1.546905517578125
aF-0.1428508758544922
aF0.0009917616844177246
aF0.0011584162712097168
aF0.0010187625885009766
aF0.5032119750976562
aF0.000518798828125
aF0.3460254669189453
aF-0.0009014010429382324
aF-0.00031065940856933594
aF-0.0027989745140075684
aF-79.87348937988281
aF266.4573059082031
aF22.099702835083008
aF-0.537259042263031
aF0.20905448496341705
aF0.34211522340774536
aa(lp34
F-0.4212646484375
aF0.877532958984375
aF-0.01270294189453125
aF-0.00018477439880371094
aF0.0011662095785140991
aF-0.003405630588531494
aF-1.1011123657226562
aF1.717376708984375
aF-0.10423469543457031
aF0.00027310848236083984
aF0.0015044957399368286
aF-0.001324385404586792
aF0.25858306884765625
aF0.037689208984375
aF0.07882881164550781
aF-0.0006426572799682617
aF0.0008279234170913696
aF-0.005486875772476196
aF-80.01555633544922
aF266.79266357421875
aF22.06076431274414
aF-0.5375164151191711
aF0.2097746729850769
aF0.34040355682373047
aa(lp35
F-0.49207305908203125
aF1.056854248046875
aF-0.20330429077148438
aF-0.0007512569427490234
aF0.0027577579021453857
aF-0.00574040412902832
aF-1.0407333374023438
aF1.889862060546875
aF-0.16309356689453125
aF-0.0007867813110351562
aF0.002000659704208374
aF-0.0008597075939178467
aF0.05658721923828125
aF0.223846435546875
aF-0.2435150146484375
aF-0.0007157325744628906
aF0.0035148561000823975
aF-0.010621100664138794
aF-80.15370178222656
aF267.1930847167969
aF22.016830444335938
aF-0.5383380651473999
aF0.21155935525894165
aF0.33870571851730347
aa(lp36
F-0.32108306884765625
aF1.135284423828125
aF-0.12813949584960938
aF-0.0010837912559509277
aF0.0023014992475509644
aF-0.00437164306640625
aF-0.7822036743164062
aF2.158477783203125
aF0.07061195373535156
aF-0.0008027553558349609
aF0.001943141222000122
aF-0.0037622451782226562
aF0.14003753662109375
aF0.112091064453125
aF-0.3268909454345703
aF-0.0013648271560668945
aF0.0026598572731018066
aF-0.004981040954589844
aF-80.19457244873047
aF267.59259033203125
aF21.9715633392334
aF-0.5383428335189819
aF0.21135598421096802
aF0.3377435803413391
aa(lp37
F-0.20700836181640625
aF1.131622314453125
aF-0.14671707153320312
aF-0.0040770769119262695
aF-0.002383023500442505
aF-0.0014226436614990234
aF-0.7061996459960938
aF2.240692138671875
aF-0.08406829833984375
aF-0.00428926944732666
aF-0.0012389570474624634
aF-0.004024416208267212
aF0.29218292236328125
aF0.022552490234375
aF-0.2093658447265625
aF-0.003864884376525879
aF-0.0035270899534225464
aF0.001179128885269165
aF-80.22256469726562
aF267.9242858886719
aF21.914047241210938
aF-0.5415934920310974
aF0.2073916494846344
aF0.33898091316223145
aa(lp38
F-0.09720611572265625
aF1.170623779296875
aF-0.11770820617675781
aF-0.006930291652679443
aF-0.0066788047552108765
aF0.0009256899356842041
aF-0.6566162109375
aF2.448577880859375
aF-0.1743450164794922
aF-0.007936716079711914
aF-0.0037279129028320312
aF-0.004177778959274292
aF0.4622039794921875
aF-0.107330322265625
aF-0.06107139587402344
aF-0.005923867225646973
aF-0.009629696607589722
aF0.0060291588306427
aF-80.25090789794922
aF268.36370849609375
aF21.89912223815918
aF-0.5452683568000793
aF0.20488055050373077
aF0.33963140845298767
aa(lp39
F-0.146331787109375
aF1.262359619140625
aF-0.27561187744140625
aF-0.010395050048828125
aF-0.006747573614120483
aF0.0003235042095184326
aF-0.6792755126953125
aF2.718719482421875
aF-0.5241832733154297
aF-0.01115107536315918
aF-0.0041931867599487305
aF-0.006379038095474243
aF0.3866119384765625
aF-0.194000244140625
aF-0.027040481567382812
aF-0.00963902473449707
aF-0.009301960468292236
aF0.007026046514511108
aF-80.34090423583984
aF268.8549499511719
aF21.695951461791992
aF-0.5487378835678101
aF0.20460841059684753
aF0.33806708455085754
aa(lp40
F-0.1524810791015625
aF1.429595947265625
aF-0.2994499206542969
aF-0.010815739631652832
aF-0.004286229610443115
aF0.0008966028690338135
aF-0.501556396484375
aF2.896575927734375
aF-0.4851055145263672
aF-0.015150189399719238
aF-0.005949065089225769
aF-0.0022377073764801025
aF0.19659423828125
aF-0.037384033203125
aF-0.11379432678222656
aF-0.006481289863586426
aF-0.0026233941316604614
aF0.0040309131145477295
aF-80.37504577636719
aF269.3538818359375
aF21.61459732055664
aF-0.5524092316627502
aF0.20310541987419128
aF0.33987751603126526
aa(lp41
F-0.15282440185546875
aF1.438995361328125
aF-0.392242431640625
aF-0.010323405265808105
aF-0.001638174057006836
aF-0.0020838379859924316
aF-0.38817596435546875
aF3.010040283203125
aF-0.5538845062255859
aF-0.01807534694671631
aF-0.006532296538352966
aF-0.0028559863567352295
aF0.08252716064453125
aF-0.132049560546875
aF-0.23060035705566406
aF-0.0025714635848999023
aF0.0032559484243392944
aF-0.0013116896152496338
aF-80.40373229980469
aF269.8027038574219
aF21.506879806518555
aF-0.5555917620658875
aF0.20324237644672394
aF0.33754757046699524
aa(lp42
F-0.15634918212890625
aF1.41632080078125
aF-0.4033012390136719
aF-0.010496258735656738
aF-0.002348199486732483
aF0.0006708204746246338
aF-0.3435516357421875
aF3.07818603515625
aF-0.7241802215576172
aF-0.020896077156066895
aF-0.009299144148826599
aF3.218650817871094e-05
aF0.030853271484375
aF-0.24554443359375
aF-0.08242225646972656
aF-9.644031524658203e-05
aF0.004602745175361633
aF0.0013094544410705566
aF-80.49725341796875
aF270.2712707519531
aF21.29265022277832
aF-0.5592341423034668
aF0.20226021111011505
aF0.3387379050254822
aa(lp43
F0.03205108642578125
aF1.2095947265625
aF-0.21297264099121094
aF-0.009980440139770508
aF-0.002374127507209778
aF0.0004013478755950928
aF-0.1484222412109375
aF2.97088623046875
aF-0.5699386596679688
aF-0.02404683828353882
aF-0.010624691843986511
aF0.0025352835655212402
aF0.2125244140625
aF-0.55169677734375
aF0.14399337768554688
aF0.004085958003997803
aF0.005876436829566956
aF-0.0017325878143310547
aF-80.3429946899414
aF270.5634765625
aF21.40162467956543
aF-0.5623896718025208
aF0.2007312923669815
aF0.34027886390686035
aa(lp44
F0.05939483642578125
aF1.053466796875
aF-0.22833633422851562
aF-0.008423030376434326
aF-0.0036766380071640015
aF0.0027686357498168945
aF-0.12177276611328125
aF2.931884765625
aF-0.6355037689208984
aF-0.022421300411224365
aF-0.007825911045074463
aF0.0013352930545806885
aF0.24056243896484375
aF-0.824951171875
aF0.1788311004638672
aF0.005575239658355713
aF0.00047263503074645996
aF0.004201978445053101
aF-80.3443374633789
aF270.8561706542969
aF21.27854347229004
aF-0.5640147924423218
aF0.19956573843955994
aF0.34031620621681213
aa(lp45
F0.1168365478515625
aF0.9652099609375
aF-0.17384910583496094
aF-0.007440507411956787
aF-0.0021326392889022827
aF-0.00016620755195617676
aF-0.12950897216796875
aF2.872772216796875
aF-0.7803211212158203
aF-0.02140629291534424
aF-0.004752978682518005
aF-0.00105971097946167
aF0.36318206787109375
aF-0.942352294921875
aF0.43262290954589844
aF0.006525278091430664
aF0.00048770010471343994
aF0.0007272958755493164
aF-80.38041687011719
aF271.2364807128906
aF21.11880111694336
aF-0.5666746497154236
aF0.20012757182121277
aF0.338571697473526
aa(lp46
F0.018402099609375
aF0.87200927734375
aF-0.4202709197998047
aF-0.00610119104385376
aF-0.0013252347707748413
aF-0.0009286105632781982
aF0.0163116455078125
aF2.580535888671875
aF-0.7145977020263672
aF-0.019752979278564453
aF-0.005202353000640869
aF0.0012831687927246094
aF0.0204925537109375
aF-0.836517333984375
aF-0.1259441375732422
aF0.007550597190856934
aF0.0025518834590911865
aF-0.003140389919281006
aF-80.32459259033203
aF271.43548583984375
aF20.981353759765625
aF-0.5684908628463745
aF0.19940605759620667
aF0.33935025334358215
aa(lp47
F-0.01900482177734375
aF0.907257080078125
aF-0.48065185546875
aF-0.006168246269226074
aF-0.0004854351282119751
aF-0.0015301406383514404
aF0.0117034912109375
aF2.4095458984375
aF-0.8167057037353516
aF-0.017773807048797607
aF-0.004025116562843323
aF-0.0010914504528045654
aF-0.049713134765625
aF-0.59503173828125
aF-0.14459800720214844
aF0.005437314510345459
aF0.0030542463064193726
aF-0.0019688308238983154
aF-80.36334228515625
aF271.763427734375
aF20.79789161682129
aF-0.5701830387115479
aF0.19908030331134796
aF0.3387860655784607
aa(lp48
F0.05340576171875
aF0.789398193359375
aF-0.43306922912597656
aF-0.005292713642120361
aF-9.258091449737549e-05
aF-0.0019288063049316406
aF0.07672119140625
aF2.223175048828125
aF-0.8211479187011719
aF-0.016375601291656494
aF-0.003207385540008545
aF-0.0009046792984008789
aF0.03009033203125
aF-0.644378662109375
aF-0.04499053955078125
aF0.0057901740074157715
aF0.003022223711013794
aF-0.0029529333114624023
aF-80.32701110839844
aF272.02587890625
aF20.685731887817383
aF-0.571967363357544
aF0.2000349909067154
aF0.33664289116859436
aa(lp49
F0.033416748046875
aF1.001556396484375
aF-0.33774566650390625
aF-0.004645049571990967
aF-0.000505402684211731
aF-0.0004509389400482178
aF0.20607757568359375
aF2.165771484375
aF-0.6490421295166016
aF-0.013901770114898682
aF-0.003359556198120117
aF0.0001614093780517578
aF-0.13924407958984375
aF-0.16265869140625
aF-0.026449203491210938
aF0.004611670970916748
aF0.0023487508296966553
aF-0.0010632872581481934
aF-80.29117584228516
aF272.4370422363281
aF20.64360809326172
aF-0.5731359124183655
aF0.19890065491199493
aF0.33889931440353394
aa(lp50
F0.1747589111328125
aF0.95574951171875
aF-0.10655021667480469
aF-0.0034848451614379883
aF-0.0016646981239318848
aF0.0008800327777862549
aF0.15441131591796875
aF2.15570068359375
aF-0.7102832794189453
aF-0.011278212070465088
aF-0.0033156871795654297
aF-0.0006127655506134033
aF0.19510650634765625
aF-0.24420166015625
aF0.49718284606933594
aF0.004308521747589111
aF-1.3709068298339844e-05
aF0.002372831106185913
aF-80.18858337402344
aF272.71917724609375
aF20.691341400146484
aF-0.5736678838729858
aF0.19741560518741608
aF0.33966609835624695
aa(lp51
F0.03981781005859375
aF0.936065673828125
aF-0.2809734344482422
aF-0.0033298730850219727
aF-0.003333359956741333
aF0.005630910396575928
aF0.0571441650390625
aF2.10577392578125
aF-0.8737850189208984
aF-0.01128244400024414
aF-0.0028641074895858765
aF0.0019575953483581543
aF0.022491455078125
aF-0.233642578125
aF0.31183815002441406
aF0.004622697830200195
aF-0.0038026124238967896
aF0.009304225444793701
aF-80.28719329833984
aF272.9619445800781
aF20.40475845336914
aF-0.5752972364425659
aF0.19670163094997406
aF0.3422738015651703
aa(lp52
F-0.1403045654296875
aF0.922119140625
aF-0.4725837707519531
aF-0.0028086304664611816
aF-0.0016789287328720093
aF0.0008601248264312744
aF-0.05106353759765625
aF2.1226806640625
aF-0.9477767944335938
aF-0.009269893169403076
aF-0.0029058456420898438
aF0.001187741756439209
aF-0.22954559326171875
aF-0.2784423828125
aF0.0026092529296875
aF0.003652632236480713
aF-0.0004520118236541748
aF0.0005325078964233398
aF-80.43148040771484
aF273.3591613769531
aF20.171024322509766
aF-0.5759445428848267
aF0.19722172617912292
aF0.3397594392299652
aa(lp53
F-0.2865447998046875
aF0.891998291015625
aF-0.6110954284667969
aF-0.0024179816246032715
aF0.0003151446580886841
aF-0.003390103578567505
aF-0.15053558349609375
aF2.175689697265625
aF-0.9011077880859375
aF-0.0075950026512146
aF-0.0016753077507019043
aF-0.00307425856590271
aF-0.42255401611328125
aF-0.391693115234375
aF-0.32108306884765625
aF0.0027590394020080566
aF0.0023055970668792725
aF-0.0037059485912323
aF-80.47512817382812
aF273.6111755371094
aF20.080245971679688
aF-0.5760858654975891
aF0.19773074984550476
aF0.33627599477767944
aa(lp54
F-0.3402557373046875
aF1.0731201171875
aF-0.4783191680908203
aF-0.0014802813529968262
aF0.002887219190597534
aF-0.007616698741912842
aF-0.26410675048828125
aF2.271636962890625
aF-0.8714523315429688
aF-0.006594479084014893
aF0.0005085468292236328
aF-0.004128962755203247
aF-0.41640472412109375
aF-0.125396728515625
aF-0.08518600463867188
aF0.0036339163780212402
aF0.0052658915519714355
aF-0.011104434728622437
aF-80.62744903564453
aF274.0350646972656
aF19.92643928527832
aF-0.5767775177955627
aF0.1995888501405716
aF0.33465710282325745
aa(lp55
F-0.267852783203125
aF1.0576171875
aF-0.32904815673828125
aF-0.0015953779220581055
aF0.002690255641937256
aF-0.0078084468841552734
aF-0.37232208251953125
aF2.390899658203125
aF-0.8437557220458984
aF-0.00557255744934082
aF-0.0001230090856552124
aF-0.004691898822784424
aF-0.16338348388671875
aF-0.275665283203125
aF0.18565940856933594
aF0.0023818016052246094
aF0.005503520369529724
aF-0.010924994945526123
aF-80.69933319091797
aF274.4167785644531
aF19.841976165771484
aF-0.5775399208068848
aF0.19991198182106018
aF0.33195099234580994
aa(lp56
F-0.303009033203125
aF1.149261474609375
aF-0.40135955810546875
aF-0.0019099712371826172
aF0.002320125699043274
aF-0.006476104259490967
aF-0.48696136474609375
aF2.323394775390625
aF-0.9647216796875
aF-0.00485992431640625
aF0.0011502206325531006
aF-0.009099423885345459
aF-0.11905670166015625
aF-0.024871826171875
aF0.1620025634765625
aF0.0010399818420410156
aF0.0034900307655334473
aF-0.0038527846336364746
aF-80.77813720703125
aF274.76043701171875
aF19.67888641357422
aF-0.5779958367347717
aF0.20005087554454803
aF0.3297998905181885
aa(lp57
F-0.20654296875
aF1.012176513671875
aF-0.37055015563964844
aF-0.0010952949523925781
aF-0.0003754347562789917
aF-0.006085246801376343
aF-0.6454086303710938
aF2.32806396484375
aF-1.1354522705078125
aF-0.004204928874969482
aF0.0017978101968765259
aF-0.011094242334365845
aF0.23232269287109375
aF-0.3037109375
aF0.3943519592285156
aF0.002014338970184326
aF-0.0025486797094345093
aF-0.0010762512683868408
aF-80.83399200439453
aF275.0472412109375
aF19.555889129638672
aF-0.5778728127479553
aF0.1992134153842926
aF0.3285718560218811
aa(lp58
F-0.18360137939453125
aF0.995819091796875
aF-0.341461181640625
aF-0.0010241866111755371
aF-0.00016957521438598633
aF-0.004184365272521973
aF-0.5957412719726562
aF2.450653076171875
aF-0.9042434692382812
aF-0.0032668709754943848
aF0.0030407756567001343
aF-0.014507174491882324
aF0.22853851318359375
aF-0.459014892578125
aF0.22132110595703125
aF0.0012184977531433105
aF-0.003379926085472107
aF0.006138443946838379
aF-80.8829345703125
aF275.41259765625
aF19.50051498413086
aF-0.5785641074180603
aF0.1997424066066742
aF0.32776662707328796
aa(lp59
F-0.14229583740234375
aF0.9256591796875
aF-0.16120147705078125
aF-0.001403212547302246
aF-0.0015927255153656006
aF0.0010232329368591309
aF-0.48895263671875
aF2.326934814453125
aF-0.6533393859863281
aF-0.0034545063972473145
aF0.0012364238500595093
aF-0.008936315774917603
aF0.2043609619140625
aF-0.475616455078125
aF0.3309364318847656
aF0.0006480813026428223
aF-0.0044218748807907104
aF0.010982781648635864
aF-80.9204330444336
aF275.68609619140625
aF19.517684936523438
aF-0.579399049282074
aF0.19845815002918243
aF0.3308231234550476
aa(lp60
F-0.16666412353515625
aF0.980621337890625
aF-0.07415008544921875
aF-0.002491593360900879
aF0.0006838887929916382
aF0.001125633716583252
aF-0.5255279541015625
aF2.41668701171875
aF-0.5985069274902344
aF-0.00427854061126709
aF0.00216655433177948
aF-0.006578505039215088
aF0.19219970703125
aF-0.4554443359375
aF0.4502067565917969
aF-0.000704646110534668
aF-0.0007987767457962036
aF0.008829772472381592
aF-81.00065612792969
aF276.0278625488281
aF19.481739044189453
aF-0.5803644061088562
aF0.19989730417728424
aF0.32969748973846436
aa.