(lp0
(lp1
F-2.9737796783447266
aF4.5908966064453125
aF1.983428955078125
aF-0.03660324215888977
aF-0.03842329978942871
aF-0.04100888967514038
aF4.797771453857422
aF-29.056289672851562
aF8.460182189941406
aF-0.18779798597097397
aF-0.13471627235412598
aF-0.03483176231384277
aF-10.745330810546875
aF38.23808288574219
aF-4.493324279785156
aF0.11459150165319443
aF0.057869672775268555
aF-0.04718601703643799
aF-32.39488983154297
aF238.76841735839844
aF122.82977294921875
aF-0.289559930562973
aF1.2781916856765747
aF-1.0127309560775757
aa(lp2
F-1.5394115447998047
aF1.474456787109375
aF2.9023895263671875
aF-0.025899678468704224
aF-0.03483080863952637
aF-0.030826330184936523
aF0.5005874633789062
aF-12.616775512695312
aF6.424812316894531
aF-0.13364724814891815
aF-0.11737453937530518
aF-0.05679178237915039
aF-3.5794105529785156
aF15.565689086914062
aF-0.6200332641601562
aF0.0818478912115097
aF0.04771292209625244
aF-0.004860877990722656
aF-32.92189407348633
aF239.53570556640625
aF123.5820083618164
aF-0.29394233226776123
aF1.2681419849395752
aF-1.022735834121704
aa(lp3
F-1.6437721252441406
aF2.65020751953125
aF2.6933822631835938
aF-0.02180805802345276
aF-0.03031015396118164
aF-0.02962470054626465
aF-2.325723648071289
aF-1.9365692138671875
aF5.467506408691406
aF-0.09478901326656342
aF-0.09886705875396729
aF-0.06736791133880615
aF-0.9618206024169922
aF7.2369842529296875
aF-0.08074188232421875
aF0.0511728972196579
aF0.038246750831604004
aF0.008118510246276855
aF-33.73871994018555
aF241.53115844726562
aF124.02105712890625
aF-0.2983231544494629
aF1.2598322629928589
aF-1.0338112115859985
aa(lp4
F-3.0346031188964844
aF7.136444091796875
aF1.5146560668945312
aF-0.006970196962356567
aF-0.027472257614135742
aF-0.04021775722503662
aF-5.278425216674805
aF8.138748168945312
aF4.663177490234375
aF-0.06459437310695648
aF-0.08470070362091064
aF-0.08402317762374878
aF-0.7907810211181641
aF6.1341400146484375
aF-1.6338653564453125
aF0.05065397918224335
aF0.02975618839263916
aF0.003587663173675537
aF-35.42949295043945
aF245.9048614501953
aF124.34442901611328
aF-0.2965301275253296
aF1.250719428062439
aF-1.0529487133026123
aa(lp5
F-2.912372589111328
aF6.8109588623046875
aF1.49169921875
aF-0.006844460964202881
aF-0.018999576568603516
aF-0.03756999969482422
aF-6.413156509399414
aF12.169143676757812
aF4.227363586425781
aF-0.04783010482788086
aF-0.06747257709503174
aF-0.08858376741409302
aF0.5884113311767578
aF1.4527740478515625
aF-1.2439651489257812
aF0.0341411828994751
aF0.029473423957824707
aF0.01344376802444458
aF-35.834266662597656
aF246.34666442871094
aF125.0737075805664
aF-0.3007867932319641
aF1.2491424083709717
aF-1.0603058338165283
aa(lp6
F-2.6878280639648438
aF6.2607879638671875
aF1.28851318359375
aF0.0034055113792419434
aF-0.012900590896606445
aF-0.03623461723327637
aF-5.044065475463867
aF9.730697631835938
aF4.629951477050781
aF-0.02687498927116394
aF-0.05604112148284912
aF-0.07813632488250732
aF-0.3315906524658203
aF2.7908782958984375
aF-2.0529251098632812
aF0.03368601202964783
aF0.03023993968963623
aF0.00566709041595459
aF-36.42654800415039
aF247.7919464111328
aF125.3095703125
aF-0.29491764307022095
aF1.2469316720962524
aF-1.070045828819275
aa(lp7
F-1.1035690307617188
aF1.88165283203125
aF1.6543807983398438
aF0.00901782512664795
aF-0.0056493282318115234
aF-0.024806499481201172
aF-4.438114166259766
aF8.905563354492188
aF4.671134948730469
aF-0.010997205972671509
aF-0.045072317123413086
aF-0.07356870174407959
aF2.230976104736328
aF-5.1422576904296875
aF-1.3623733520507812
aF0.029032856225967407
aF0.03377366065979004
aF0.023955702781677246
aF-36.53306198120117
aF247.78651428222656
aF125.99880981445312
aF-0.28751230239868164
aF1.2450700998306274
aF-1.0777552127838135
aa(lp8
F-0.8365707397460938
aF1.672943115234375
aF1.8218460083007812
aF0.01809754967689514
aF-0.005305886268615723
aF-0.024929046630859375
aF-4.275947570800781
aF9.251190185546875
aF4.0657806396484375
aF0.006870687007904053
aF-0.03435516357421875
aF-0.07250392436981201
aF2.6028060913085938
aF-5.905303955078125
aF-0.422088623046875
aF0.02932441234588623
aF0.023743391036987305
aF0.02264583110809326
aF-36.67083740234375
aF248.0196075439453
aF126.89555358886719
aF-0.28268924355506897
aF1.243836522102356
aF-1.0852348804473877
aa(lp9
F-0.169097900390625
aF-0.2030029296875
aF2.2481765747070312
aF0.01729649305343628
aF-0.004098057746887207
aF-0.020660996437072754
aF-3.6737518310546875
aF8.053237915039062
aF3.975738525390625
aF0.016321182250976562
aF-0.02530837059020996
aF-0.06797099113464355
aF3.3355560302734375
aF-8.459243774414062
aF0.5206146240234375
aF0.018271803855895996
aF0.017112255096435547
aF0.026648998260498047
aF-36.595645904541016
aF247.5889434814453
aF127.55774688720703
aF-0.27762115001678467
aF1.2428336143493652
aF-1.0907068252563477
aa(lp10
F-1.9806747436523438
aF5.5931243896484375
aF1.0181503295898438
aF0.015540599822998047
aF-0.0014358758926391602
aF-0.021184444427490234
aF-4.775016784667969
aF11.848480224609375
aF2.9959030151367188
aF0.026351451873779297
aF-0.016198039054870605
aF-0.06512844562530518
aF0.8136672973632812
aF-0.6622314453125
aF-0.9596023559570312
aF0.004729747772216797
aF0.013326287269592285
aF0.022759556770324707
aF-38.513736724853516
aF253.379638671875
aF127.01696014404297
aF-0.2719717025756836
aF1.2436342239379883
aF-1.0989396572113037
aa(lp11
F-2.980926513671875
aF8.836807250976562
aF-0.221435546875
aF0.02242538332939148
aF-0.00011038780212402344
aF-0.021184921264648438
aF-4.222270965576172
aF10.951553344726562
aF2.3296890258789062
aF0.0362662672996521
aF-0.006993293762207031
aF-0.05347108840942383
aF-1.7395820617675781
aF6.7220611572265625
aF-2.7725601196289062
aF0.00858449935913086
aF0.006772518157958984
aF0.011101245880126953
aF-39.651763916015625
aF256.8564147949219
aF126.67411804199219
aF-0.2602638602256775
aF1.243726134300232
aF-1.1064198017120361
aa(lp12
F-3.7783737182617188
aF11.584030151367188
aF-1.1305999755859375
aF0.01395842432975769
aF0.0049381256103515625
aF-0.023944973945617676
aF-4.539752960205078
aF12.826309204101562
aF1.3534393310546875
aF0.037124067544937134
aF-0.0013706684112548828
aF-0.05434596538543701
aF-3.0169944763183594
aF10.341751098632812
aF-3.6146392822265625
aF-0.009207218885421753
aF0.011246919631958008
aF0.00645601749420166
aF-40.374019622802734
aF259.1729736328125
aF126.4271469116211
aF-0.263662725687027
aF1.2477717399597168
aF-1.1146517992019653
aa(lp13
F-1.0719032287597656
aF3.335357666015625
aF-0.155914306640625
aF0.011172294616699219
aF0.004263162612915039
aF-0.018969297409057617
aF-3.1590919494628906
aF8.923049926757812
aF1.5514755249023438
aF0.03411823511123657
aF0.0009657144546508789
aF-0.047863125801086426
aF1.0152854919433594
aF-2.2523345947265625
aF-1.8633041381835938
aF-0.011773645877838135
aF0.007560610771179199
aF0.009924530982971191
aF-39.58563995361328
aF256.7149963378906
aF126.86104583740234
aF-0.2607994079589844
aF1.2478973865509033
aF-1.1179089546203613
aa(lp14
F0.29567718505859375
aF-0.345123291015625
aF0.09688568115234375
aF-0.001062840223312378
aF0.005136370658874512
aF-0.01586437225341797
aF-2.8230247497558594
aF8.724777221679688
aF0.7721939086914062
aF0.026185601949691772
aF0.003792405128479004
aF-0.044528961181640625
aF3.414379119873047
aF-9.415023803710938
aF-0.5784225463867188
aF-0.02831128239631653
aF0.0064803361892700195
aF0.012800216674804688
aF-39.35608673095703
aF256.51129150390625
aF126.77100372314453
aF-0.26132670044898987
aF1.2488625049591064
aF-1.122284173965454
aa(lp15
F2.234661102294922
aF-4.56353759765625
aF-1.1542739868164062
aF0.008533895015716553
aF0.000986337661743164
aF-0.008548259735107422
aF-1.4685211181640625
aF6.5898284912109375
aF-1.6226806640625
aF0.027560412883758545
aF0.004921555519104004
aF-0.03796517848968506
aF5.937843322753906
aF-15.716903686523438
aF-0.6858673095703125
aF-0.01049262285232544
aF-0.0029488801956176758
aF0.020868659019470215
aF-38.13935852050781
aF254.60943603515625
aF125.27287292480469
aF-0.2551288306713104
aF1.24875807762146
aF-1.1232000589370728
aa(lp16
F2.219573974609375
aF-2.6297760009765625
aF-3.2381134033203125
aF0.008465558290481567
aF0.0004239082336425781
aF-0.005752205848693848
aF-0.7704200744628906
aF6.49627685546875
aF-3.934814453125
aF0.02528730034828186
aF0.005487680435180664
aF-0.03295433521270752
aF5.209568023681641
aF-11.755828857421875
aF-2.541412353515625
aF-0.008356183767318726
aF-0.004639863967895508
aF0.021449923515319824
aF-37.366065979003906
aF254.08522033691406
aF123.62293243408203
aF-0.2523338496685028
aF1.248321294784546
aF-1.1236611604690552
aa(lp17
F2.5857086181640625
aF-3.1313934326171875
aF-4.1026458740234375
aF0.009749501943588257
aF-0.0011512041091918945
aF0.00023663043975830078
aF1.7433586120605469
aF0.0002593994140625
aF-4.348602294921875
aF0.020394504070281982
aF0.0040770769119262695
aF-0.02310788631439209
aF3.428058624267578
aF-6.2630462646484375
aF-3.856689453125
aF-0.0008955001831054688
aF-0.006379485130310059
aF0.02358114719390869
aF-36.77037811279297
aF253.37989807128906
aF122.6683578491211
aF-0.2515771985054016
aF1.2477113008499146
aF-1.1220475435256958
aa(lp18
F1.8083381652832031
aF-1.0386199951171875
aF-4.015235900878906
aF0.01034441590309143
aF-0.002322077751159668
aF0.002013087272644043
aF3.3207435607910156
aF-3.2855987548828125
aF-5.416481018066406
aF0.015479445457458496
aF0.0027098655700683594
aF-0.014767169952392578
aF0.2959327697753906
aF1.2083587646484375
aF-2.6139907836914062
aF0.005209386348724365
aF-0.007354021072387695
aF0.018793344497680664
aF-36.33102035522461
aF253.57081604003906
aF121.25763702392578
aF-0.244784414768219
aF1.2464359998703003
aF-1.1211869716644287
aa(lp19
F1.5705947875976562
aF-0.7452850341796875
aF-3.565704345703125
aF0.014382898807525635
aF-0.0011647939682006836
aF0.004641413688659668
aF4.578548431396484
aF-5.833038330078125
aF-6.3699188232421875
aF0.025711774826049805
aF-0.000615239143371582
aF-0.004367947578430176
aF-1.4373588562011719
aF4.34246826171875
aF-0.7614898681640625
aF0.003054022789001465
aF-0.0017143487930297852
aF0.013650774955749512
aF-35.79547119140625
aF253.33993530273438
aF120.0572280883789
aF-0.23795095086097717
aF1.2471565008163452
aF-1.1190197467803955
aa(lp20
F1.1022758483886719
aF1.4747161865234375
aF-4.459739685058594
aF0.014996528625488281
aF-0.004065036773681641
aF0.006037235260009766
aF3.9175376892089844
aF-1.860382080078125
aF-8.652427673339844
aF0.024218738079071045
aF-0.00425112247467041
aF0.001898646354675293
aF-1.7129859924316406
aF4.809814453125
aF-0.26705169677734375
aF0.005774319171905518
aF-0.003878951072692871
aF0.010175824165344238
aF-35.6681022644043
aF254.8546142578125
aF118.2086181640625
aF-0.23658066987991333
aF1.243646264076233
aF-1.116010308265686
aa(lp21
F1.6524658203125
aF0.8110504150390625
aF-5.097114562988281
aF0.010330051183700562
aF-0.00405275821685791
aF0.011510372161865234
aF4.677532196044922
aF-2.129425048828125
aF-10.610481262207031
aF0.026872336864471436
aF-0.0064792633056640625
aF0.012607574462890625
aF-1.3726005554199219
aF3.75152587890625
aF0.41625213623046875
aF-0.0062122344970703125
aF-0.0016262531280517578
aF0.010413169860839844
aF-34.67855453491211
aF254.38186645507812
aF116.1605224609375
aF-0.23445436358451843
aF1.2423832416534424
aF-1.1096765995025635
aa(lp22
F2.5841331481933594
aF0.6859130859375
aF-7.355316162109375
aF0.005977258086204529
aF-0.006344795227050781
aF0.01930069923400879
aF4.928020477294922
aF-0.583587646484375
aF-12.570960998535156
aF0.02315513789653778
aF-0.007946372032165527
aF0.023481011390686035
aF0.24024581909179688
aF1.955413818359375
aF-2.1396713256835938
aF-0.011200621724128723
aF-0.004743218421936035
aF0.015120387077331543
aF-33.21133804321289
aF254.02584838867188
aF112.70191192626953
aF-0.23197369277477264
aF1.2408117055892944
aF-1.0997190475463867
aa(lp23
F3.4266586303710938
aF1.0145416259765625
aF-9.584609985351562
aF0.011115282773971558
aF-0.005005002021789551
aF0.02223944664001465
aF5.124622344970703
aF1.783935546875
aF-14.998924255371094
aF0.026868462562561035
aF-0.009680032730102539
aF0.02989029884338379
aF1.7286949157714844
aF0.245147705078125
aF-4.170295715332031
aF-0.00463789701461792
aF-0.0003299713134765625
aF0.014588594436645508
aF-32.2414436340332
aF255.86915588378906
aF108.62400817871094
aF-0.22546538710594177
aF1.2386412620544434
aF-1.0937708616256714
aa(lp24
F3.1313610076904297
aF3.02178955078125
aF-10.649688720703125
aF0.016425326466560364
aF-0.008922815322875977
aF0.02626514434814453
aF5.223184585571289
aF4.0237579345703125
aF-17.15752410888672
aF0.03354816138744354
aF-0.014250874519348145
aF0.038636088371276855
aF1.0395374298095703
aF2.0198211669921875
aF-4.141853332519531
aF-0.0006975084543228149
aF-0.0035947561264038086
aF0.013894200325012207
aF-31.54719352722168
aF257.4036560058594
aF105.51083374023438
aF-0.21802903711795807
aF1.2334604263305664
aF-1.083411455154419
aa(lp25
F2.302295684814453
aF4.8970947265625
aF-10.165924072265625
aF0.020486295223236084
aF-0.010050535202026367
aF0.03133070468902588
aF5.421977996826172
aF5.3521270751953125
aF-18.721649169921875
aF0.033297017216682434
aF-0.015674829483032227
aF0.05279862880706787
aF-0.8173866271972656
aF4.4420623779296875
aF-1.610198974609375
aF0.007675573229789734
aF-0.004426240921020508
aF0.009862780570983887
aF-30.909042358398438
aF258.9229431152344
aF102.5359878540039
aF-0.21148739755153656
aF1.230761170387268
aF-1.0683883428573608
aa(lp26
F2.776834487915039
aF4.1287689208984375
aF-10.850059509277344
aF0.018431901931762695
aF-0.010818839073181152
aF0.04146301746368408
aF6.330862045288086
aF6.657989501953125
aF-22.283279418945312
aF0.030917465686798096
aF-0.019334077835083008
aF0.0667119026184082
aF-0.7771930694580078
aF1.59954833984375
aF0.583160400390625
aF0.005946338176727295
aF-0.002303600311279297
aF0.01621413230895996
aF-29.464609146118164
aF259.9979248046875
aF97.7739486694336
aF-0.20703348517417908
aF1.2278224229812622
aF-1.0523078441619873
aa(lp27
F2.246337890625
aF7.215911865234375
aF-12.660568237304688
aF0.0025267452001571655
aF-0.0023256540298461914
aF0.04641735553741455
aF6.367246627807617
aF9.76495361328125
aF-25.358352661132812
aF0.021078377962112427
aF-0.012511491775512695
aF0.07901620864868164
aF-1.8745708465576172
aF4.6668701171875
aF0.0372161865234375
aF-0.016024887561798096
aF0.007860183715820312
aF0.013818502426147461
aF-29.30085563659668
aF264.61956787109375
aF92.85026550292969
aF-0.2155022919178009
aF1.2311347723007202
aF-1.0369940996170044
aa(lp28
F2.0557403564453125
aF8.417266845703125
aF-13.148284912109375
aF-0.0176001638174057
aF0.005408883094787598
aF0.05546987056732178
aF5.825252532958984
aF12.958343505859375
aF-26.77281951904297
aF0.005366802215576172
aF-0.006213188171386719
aF0.09675812721252441
aF-1.7137718200683594
aF3.876190185546875
aF0.47624969482421875
aF-0.04056712985038757
aF0.017030954360961914
aF0.01418161392211914
aF-28.853302001953125
aF267.3402099609375
aF89.38770294189453
aF-0.22908756136894226
aF1.2361700534820557
aF-1.012918472290039
aa(lp29
F3.4505767822265625
aF1.551544189453125
aF-8.97412109375
aF-0.03797847032546997
aF0.0016667842864990234
aF0.08816254138946533
aF7.197305679321289
aF7.52362060546875
aF-23.902084350585938
aF-0.013038262724876404
aF-0.011322498321533203
aF0.13557374477386475
aF-0.29615211486816406
aF-4.4205322265625
aF5.9538421630859375
aF-0.06291867792606354
aF0.01465606689453125
aF0.04075133800506592
aF-26.0140323638916
aF261.5494689941406
aF88.7998275756836
aF-0.24501195549964905
aF1.2294892072677612
aF-0.964145302772522
aa(lp30
F9.15938949584961
aF-22.283401489257812
aF0.7932586669921875
aF-0.04422315955162048
aF-0.013986349105834961
aF0.16461384296417236
aF12.099977493286133
aF-13.532989501953125
aF-14.980484008789062
aF-0.034260064363479614
aF-0.021492838859558105
aF0.22139060497283936
aF6.218801498413086
aF-31.0338134765625
aF16.567001342773438
aF-0.05418625473976135
aF-0.006479859352111816
aF0.10783708095550537
aF-20.14146614074707
aF242.33616638183594
aF93.64352416992188
aF-0.2597254514694214
aF1.2171484231948853
aF-0.872380256652832
aa(lp31
F12.541788101196289
aF-35.89976501464844
aF6.0667572021484375
aF-0.03654184937477112
aF-0.030762195587158203
aF0.23073220252990723
aF15.235679626464844
aF-25.963211059570312
aF-10.056373596191406
aF-0.04760037362575531
aF-0.028052568435668945
aF0.3012251853942871
aF9.847896575927734
aF-45.83631896972656
aF22.18988800048828
aF-0.025483325123786926
aF-0.03347182273864746
aF0.16023921966552734
aF-16.311513900756836
aF231.44044494628906
aF95.45446014404297
aF-0.2656294107437134
aF1.2054078578948975
aF-0.7821862697601318
aa(lp32
F11.87239933013916
aF-36.34513854980469
aF7.784553527832031
aF-0.02143004536628723
aF-0.037595272064208984
aF0.2733812928199768
aF16.767409324645996
aF-33.71861267089844
aF-5.951606750488281
aF-0.05495460331439972
aF-0.03886723518371582
aF0.3776243329048157
aF6.977389335632324
aF-38.97166442871094
aF21.520713806152344
aF0.012094512581825256
aF-0.03632330894470215
aF0.16913825273513794
aF-14.141633033752441
aF225.20433044433594
aF96.58438110351562
aF-0.2664420008659363
aF1.1918939352035522
aF-0.6907640099525452
aa(lp33
F8.379241943359375
aF-24.3204345703125
aF4.359169006347656
aF-0.003966391086578369
aF-0.03918099403381348
aF0.2730865478515625
aF17.70238494873047
aF-41.98219299316406
aF0.2287445068359375
aF-0.05665835738182068
aF-0.04985499382019043
aF0.4530141353607178
aF-0.9439010620117188
aF-6.6586761474609375
aF8.489593505859375
aF0.04872557520866394
aF-0.028506994247436523
aF0.09315896034240723
aF-11.762224197387695
aF218.01573181152344
aF98.00269317626953
aF-0.26369184255599976
aF1.1779674291610718
aF-0.5992937088012695
aa(lp34
F5.917745590209961
aF-12.720748901367188
aF-1.2107925415039062
aF0.014825254678726196
aF-0.04193711280822754
aF0.25614356994628906
aF18.907087326049805
aF-45.899871826171875
aF1.393402099609375
aF-0.03530186414718628
aF-0.06766402721405029
aF0.5109513998031616
aF-7.071596145629883
aF20.4583740234375
aF-3.8149871826171875
aF0.06495237350463867
aF-0.016210198402404785
aF0.001335740089416504
aF-10.393768310546875
aF218.71969604492188
aF94.24366760253906
aF-0.2508041560649872
aF1.16347074508667
aF-0.5260426998138428
aa(lp35
F4.515447616577148
aF-4.6244354248046875
aF-5.59039306640625
aF0.03185851871967316
aF-0.040543556213378906
aF0.22547876834869385
aF19.227116584777832
aF-46.76031494140625
aF1.6062850952148438
aF-0.005495920777320862
aF-0.08481967449188232
aF0.5476332306861877
aF-10.196221351623535
aF37.511444091796875
aF-12.787071228027344
aF0.06921295821666718
aF0.0037325620651245117
aF-0.09667569398880005
aF-9.626185417175293
aF220.57989501953125
aF90.99398803710938
aF-0.23458348214626312
aF1.1513503789901733
aF-0.4652852416038513
aa(lp36
F2.7138118743896484
aF5.0804901123046875
aF-10.37664794921875
aF0.029781118035316467
aF-0.03535592555999756
aF0.18604972958564758
aF16.965620040893555
aF-38.4532470703125
aF-1.1737823486328125
aF0.01110123097896576
aF-0.08687770366668701
aF0.5509013235569
aF-11.537996292114258
aF48.614227294921875
aF-19.579513549804688
aF0.048461005091667175
aF0.016165852546691895
aF-0.17880186438560486
aF-9.048412322998047
aF223.09622192382812
aF87.62604522705078
aF-0.2339107245206833
aF1.1426115036010742
aF-0.41324397921562195
aa(lp37
F-7.662286758422852
aF83.65899658203125
aF-51.11331558227539
aF0.00858035683631897
aF0.009690284729003906
aF0.19622406363487244
aF2.0854110717773438
aF60.04252624511719
aF-50.5131721496582
aF0.017501652240753174
aF-0.043987393379211426
aF0.5425616204738617
aF-17.409984588623047
aF107.27546691894531
aF-51.71345901489258
aF-0.0003409385681152344
aF0.06336796283721924
aF-0.15011349320411682
aF-18.056055068969727
aF302.3786926269531
aF43.13035202026367
aF-0.2422237992286682
aF1.1731610298156738
aF-0.32981863617897034
aa(lp38
F-10.980029106140137
aF107.50775146484375
aF-63.25434112548828
aF-0.005952969193458557
aF0.023227572441101074
aF0.1667788326740265
aF-4.294700622558594
aF96.64720153808594
aF-67.71481323242188
aF0.0250929594039917
aF-0.030829906463623047
aF0.483679860830307
aF-17.66535758972168
aF118.36830139160156
aF-58.79386901855469
aF-0.036998897790908813
aF0.0772850513458252
aF-0.15012219548225403
aF-20.60621452331543
aF328.087646484375
aF27.739646911621094
aF-0.24053645133972168
aF1.1745779514312744
aF-0.29850640892982483
aa(lp39
F-13.324604034423828
aF124.60476684570312
aF-73.11322784423828
aF0.0455767959356308
aF0.02514827251434326
aF0.13268747925758362
aF-8.231383323669434
aF122.49665832519531
aF-82.07156372070312
aF0.07810807228088379
aF-0.024134159088134766
aF0.41020750999450684
aF-18.417824745178223
aF126.71287536621094
aF-64.15489196777344
aF0.013045519590377808
aF0.07443070411682129
aF-0.1448325514793396
aF-22.373016357421875
aF347.70098876953125
aF14.5128173828125
aF-0.1883339285850525
aF1.1677597761154175
aF-0.28055649995803833
aa(lp40
F-4.909208297729492
aF53.712127685546875
aF-38.652631759643555
aF0.11871819198131561
aF-0.021407008171081543
aF0.06801968812942505
aF-11.203039169311523
aF138.07508850097656
aF-93.52497291564941
aF0.14018623530864716
aF-0.026213407516479492
aF0.33749476075172424
aF1.384622573852539
aF-30.650833129882812
aF16.219709396362305
aF0.09725014865398407
aF-0.016600608825683594
aF-0.20145538449287415
aF-22.96526336669922
aF356.0908203125
aF4.477720260620117
aF-0.1235056072473526
aF1.1517540216445923
aF-0.2617989480495453
aa(lp41
F-2.448049545288086
aF30.553924560546875
aF-30.580506324768066
aF0.18736934661865234
aF-0.04003024101257324
aF0.06071057915687561
aF-12.66049575805664
aF139.921875
aF-97.08452701568604
aF0.19763705134391785
aF-0.02892303466796875
aF0.28824687004089355
aF7.764396667480469
aF-78.81402587890625
aF35.9235143661499
aF0.17710164189338684
aF-0.051137447357177734
aF-0.16682571172714233
aF-23.054264068603516
aF358.6415710449219
aF-2.8408594131469727
aF-0.053167104721069336
aF1.1345477104187012
aF-0.23779582977294922
aa(lp42
F-0.43764686584472656
aF10.204803466796875
aF-21.747750282287598
aF0.20479412004351616
aF-0.05246615409851074
aF0.07287612557411194
aF-13.184477806091309
aF137.32589721679688
aF-98.22892093658447
aF0.2510436736047268
aF-0.0360567569732666
aF0.2576048672199249
aF12.309184074401855
aF-116.91629028320312
aF54.73342037200928
aF0.15854456648230553
aF-0.06887555122375488
aF-0.11185261607170105
aF-22.8106632232666
aF357.9057922363281
aF-7.234932899475098
aF0.01646019145846367
aF1.1152936220169067
aF-0.2076803743839264
aa(lp43
F1.063497543334961
aF-2.383819580078125
aF-16.286285400390625
aF0.20204439014196396
aF-0.05664694309234619
aF0.09524029493331909
aF-12.853353500366211
aF130.61077880859375
aF-99.43461036682129
aF0.31244950741529465
aF-0.047504425048828125
aF0.24668532609939575
aF14.980348587036133
aF-135.37841796875
aF66.86203956604004
aF0.09163927286863327
aF-0.06578946113586426
aF-0.05620473623275757
aF-21.901765823364258
aF353.7070007324219
aF-11.808565139770508
aF0.07853878289461136
aF1.095107078552246
aF-0.1665586531162262
aa(lp44
F2.07135009765625
aF-9.184112548828125
aF-13.607111930847168
aF0.0800158679485321
aF-0.059612393379211426
aF0.10600100457668304
aF-2.926858901977539
aF47.078765869140625
aF-59.57832336425781
aF0.269072562456131
aF-0.09822571277618408
aF0.19802381098270416
aF7.069559097290039
aF-65.44699096679688
aF32.36409950256348
aF-0.10904082655906677
aF-0.02099907398223877
aF0.013978198170661926
aF-20.982913970947266
aF349.45745849609375
aF-16.44797134399414
aF0.02684876322746277
aF1.0749353170394897
aF-0.13179482519626617
aa(lp45
F3.0180702209472656
aF-14.749847412109375
aF-12.27796459197998
aF-0.03237741254270077
aF-0.06550335884094238
aF0.10849546641111374
aF0.8136215209960938
aF15.06829833984375
aF-47.25254440307617
aF0.22461923025548458
aF-0.12478768825531006
aF0.19932150095701218
aF5.2225189208984375
aF-44.5679931640625
aF22.69661521911621
aF-0.2893740553408861
aF-0.006219029426574707
aF0.0176694318652153
aF-19.792593002319336
aF343.15594482421875
aF-19.512897491455078
aF-0.0159172210842371
aF1.0497902631759644
aF-0.09918490797281265
aa(lp46
F3.184934616088867
aF-15.9661865234375
aF-9.527969360351562
aF-0.03683524951338768
aF-0.07583808898925781
aF0.10559003055095673
aF3.6561851501464844
aF-9.960174560546875
aF-35.84935188293457
aF0.23003746196627617
aF-0.1484907865524292
aF0.21958787739276886
aF2.71368408203125
aF-21.972198486328125
aF16.793413162231445
aF-0.30370796099305153
aF-0.0031853914260864258
aF-0.008407816290855408
aF-18.71683120727539
aF337.7408142089844
aF-21.33653450012207
aF0.04170353338122368
aF1.0192689895629883
aF-0.06096862256526947
aa(lp47
F3.4779281616210938
aF-17.689239501953125
aF-7.624397277832031
aF0.060257941484451294
aF-0.08877527713775635
aF0.09486375749111176
aF5.460277557373047
aF-24.322601318359375
aF-28.55008888244629
aF0.21061231195926666
aF-0.1655939817428589
aF0.22486788034439087
aF1.4955787658691406
aF-11.055877685546875
aF13.301294326782227
aF-0.09009642899036407
aF-0.011956572532653809
aF-0.03514036536216736
aF-17.504985809326172
aF331.7682189941406
aF-24.072368621826172
aF0.08710670471191406
aF0.9861600399017334
aF-0.03693106770515442
aa(lp48
F3.2301082611083984
aF-16.484100341796875
aF-7.628789901733398
aF0.13753889687359333
aF-0.0973389744758606
aF0.07835620641708374
aF6.491779327392578
aF-31.9697265625
aF-24.300827980041504
aF0.17478878051042557
aF-0.1820964217185974
aF0.2169671282172203
aF-0.03156280517578125
aF-0.99847412109375
aF9.043248176574707
aF0.1002890132367611
aF-0.01258152723312378
aF-0.060254715383052826
aF-16.562484741210938
aF326.6718444824219
aF-27.141687393188477
aF0.12162167578935623
aF0.9524512887001038
aF-0.020828701555728912
aa(lp49
F3.2426910400390625
aF-16.6910400390625
aF-8.370706558227539
aF0.10759841278195381
aF-0.0976749062538147
aF0.05260463710874319
aF7.336523056030273
aF-36.85601806640625
aF-22.47230815887451
aF0.13284175470471382
aF-0.19369953870773315
aF0.1993163889274001
aF-0.8511409759521484
aF3.47393798828125
aF5.730895042419434
aF0.0823550708591938
aF-0.0016502737998962402
aF-0.09410711470991373
aF-15.474140167236328
aF321.0497741699219
aF-29.70724105834961
aF0.1493019461631775
aF0.9215940833091736
aF-0.00836398545652628
aa(lp50
F3.5906457901000977
aF-20.279510498046875
aF-9.121280670166016
aF0.10385644435882568
aF-0.14373409748077393
aF0.04327328037470579
aF7.987425804138184
aF-42.218292236328125
aF-21.38508415222168
aF0.11242436617612839
aF-0.2526811361312866
aF0.17290086578577757
aF-0.8061342239379883
aF1.659271240234375
aF3.1425228118896484
aF0.09528852254152298
aF-0.03478705883026123
aF-0.08635430503636599
aF-13.914340019226074
aF311.48870849609375
aF-33.19364929199219
aF0.19096314907073975
aF0.8424259424209595
aF0.0063422126695513725
aa(lp51
F3.2535533905029297
aF-19.2679443359375
aF-8.025930404663086
aF0.08704445511102676
aF-0.1431816816329956
aF0.03401057422161102
aF7.673982620239258
aF-42.053558349609375
aF-18.719646453857422
aF0.18181736767292023
aF-0.2656657099723816
aF0.14497669786214828
aF-1.1668758392333984
aF3.517669677734375
aF2.66778564453125
aF-0.007728457450866699
aF-0.02069765329360962
aF-0.07695554941892624
aF-13.308931350708008
aF307.4039001464844
aF-35.16761779785156
aF0.208666130900383
aF0.8092696070671082
aF0.01318187266588211
aa(lp52
F2.6780080795288086
aF-17.93524169921875
aF-7.256702423095703
aF0.07620017230510712
aF-0.1418595314025879
aF0.028530851937830448
aF6.996460914611816
aF-40.041412353515625
aF-17.451045989990234
aF0.2414193395525217
aF-0.27005571126937866
aF0.11935177445411682
aF-1.6404447555541992
aF4.170928955078125
aF2.937641143798828
aF-0.08901899494230747
aF-0.01366335153579712
aF-0.062290070578455925
aF-12.79613208770752
aF303.1145324707031
aF-36.96394348144531
aF0.2255021184682846
aF0.7797345519065857
aF0.02016686648130417
aa(lp53
F1.6669940948486328
aF-12.976837158203125
aF-4.954555511474609
aF0.049154773354530334
aF-0.09242647886276245
aF0.02413864154368639
aF6.469485282897949
aF-39.22894287109375
aF-16.811670303344727
aF0.1984143890440464
aF-0.26926952600479126
aF0.09144947677850723
aF-3.1354970932006836
aF13.2752685546875
aF6.902559280395508
aF-0.10010484233498573
aF0.08441656827926636
aF-0.04317219369113445
aF-12.247345924377441
aF298.5118713378906
aF-38.1482048034668
aF0.24011792242527008
aF0.749999463558197
aF0.030480854213237762
aa(lp54
F1.5064191818237305
aF-13.765594482421875
aF-4.3697357177734375
aF0.04455725848674774
aF-0.0862472653388977
aF0.029214564710855484
aF5.7024736404418945
aF-38.129913330078125
aF-15.464984893798828
aF0.16611668467521667
aF-0.26313769817352295
aF0.07932750508189201
aF-2.6896352767944336
aF10.598724365234375
aF6.725513458251953
aF-0.07700216770172119
aF0.09064316749572754
aF-0.020898375660181046
aF-11.802512168884277
aF293.6383056640625
aF-39.537353515625
aF0.25322338938713074
aF0.7230223417282104
aF0.042396437376737595
aa(lp55
F1.3837175369262695
aF-14.146697998046875
aF-4.3722076416015625
aF0.03926794230937958
aF-0.08253687620162964
aF0.03342265635728836
aF5.1500701904296875
aF-37.704010009765625
aF-14.194463729858398
aF0.14314838498830795
aF-0.2552536129951477
aF0.07441822439432144
aF-2.3826351165771484
aF9.410614013671875
aF5.450048446655273
aF-0.0646125003695488
aF0.09017986059188843
aF-0.0075729116797447205
aF-11.41241455078125
aF288.96783447265625
aF-41.336151123046875
aF0.2647700607776642
aF0.697197675704956
aF0.05358952283859253
aa(lp56
F1.2150459289550781
aF-13.923004150390625
aF-4.574848175048828
aF0.03457005321979523
aF-0.07747441530227661
aF0.03391040116548538
aF4.441840171813965
aF-36.460906982421875
aF-13.015811920166016
aF0.12538602948188782
aF-0.24906903505325317
aF0.07275524083524942
aF-2.0117483139038086
aF8.614898681640625
aF3.8661155700683594
aF-0.05624592304229736
aF0.09412020444869995
aF-0.00493443850427866
aF-11.032299995422363
aF284.5888671875
aF-42.723052978515625
aF0.2746879756450653
aF0.6725250482559204
aF0.06439125537872314
aa(lp57
F1.1410274505615234
aF-13.417938232421875
aF-4.875965118408203
aF0.03079003095626831
aF-0.07777410745620728
aF0.0333554781973362
aF3.2528553009033203
aF-31.268341064453125
aF-11.219669342041016
aF0.0930502712726593
aF-0.1971777081489563
aF0.06940970290452242
aF-0.9708003997802734
aF4.432464599609375
aF1.4677391052246094
aF-0.03147020936012268
aF0.04162949323654175
aF-0.002698746509850025
aF-10.661484718322754
aF280.2203674316406
aF-44.4133186340332
aF0.28401342034339905
aF0.6452482342720032
aF0.07575191557407379
aa(lp58
F1.1408214569091797
aF-12.975128173828125
aF-3.8461227416992188
aF0.028385668992996216
aF-0.08438676595687866
aF0.031426802277565
aF3.0373382568359375
aF-31.41119384765625
aF-10.014656066894531
aF0.0844895988702774
aF-0.19645869731903076
aF0.07183445245027542
aF-0.7556953430175781
aF5.4609375
aF2.3224105834960938
aF-0.027718260884284973
aF0.027685165405273438
aF-0.008980847895145416
aF-10.27159309387207
aF275.9927062988281
aF-45.182273864746094
aF0.2931557297706604
aF0.6128109097480774
aF0.08501632511615753
aa(lp59
F1.2502126693725586
aF-13.05572509765625
aF-2.743671417236328
aF0.0260753333568573
aF-0.0915338397026062
aF0.031237684190273285
aF3.014044761657715
aF-31.581390380859375
aF-8.50278091430664
aF0.075261190533638
aF-0.19874334335327148
aF0.07546207308769226
aF-0.5136194229125977
aF5.469940185546875
aF3.0154380798339844
aF-0.0231105238199234
aF0.015675663948059082
aF-0.012986704707145691
aF-9.782087326049805
aF271.53314208984375
aF-45.46672439575195
aF0.3007633090019226
aF0.5809912085533142
aF0.09562893956899643
aa(lp60
F1.3682832717895508
aF-13.479888916015625
aF-1.3130569458007812
aF-0.03341326117515564
aF-0.09675657749176025
aF0.027202054858207703
aF2.9541444778442383
aF-31.771392822265625
aF-7.5781707763671875
aF0.010482236742973328
aF-0.2015078067779541
aF0.07247311621904373
aF-0.21757793426513672
aF4.811614990234375
aF4.952056884765625
aF-0.0773087590932846
aF0.007994651794433594
aF-0.018069006502628326
aF-9.293201446533203
aF266.740478515625
aF-45.726375579833984
aF0.2506001591682434
aF0.5484916567802429
aF0.1029539704322815
aa.